---
triple:          'arm64-apple-darwin'
binary-path:     '/tmp/llama-build/build-visionos-sim/framework/llama.framework/llama'
relocations:
  - { offset: 0x25B1E, size: 0x8, addend: 0x0, symName: __ZNSt3__127__tree_balance_after_insertB8ne200100IPNS_16__tree_node_baseIPvEEEEvT_S5_, symObjAddr: 0x30E0, symBinAddr: 0x3C20, symSize: 0x1AC }
  - { offset: 0x26C72, size: 0x8, addend: 0x0, symName: __ZNSt3__120__throw_length_errorB8ne200100EPKc, symObjAddr: 0x32A0, symBinAddr: 0x3DE0, symSize: 0x50 }
  - { offset: 0x271E9, size: 0x8, addend: 0x0, symName: __ZNSt3__120__throw_out_of_rangeB8ne200100EPKc, symObjAddr: 0x41AC, symBinAddr: 0x4CEC, symSize: 0x50 }
  - { offset: 0x28D16, size: 0x8, addend: 0x0, symName: __ZSt28__throw_bad_array_new_lengthB8ne200100v, symObjAddr: 0x30B8, symBinAddr: 0x3BF8, symSize: 0x28 }
  - { offset: 0x30307, size: 0x8, addend: 0x0, symName: __ZNK18llama_adapter_cvec10tensor_forEi, symObjAddr: 0x0, symBinAddr: 0xB40, symSize: 0x40 }
  - { offset: 0x30371, size: 0x8, addend: 0x0, symName: __ZNK18llama_adapter_cvec8apply_toEP12ggml_contextP11ggml_tensori, symObjAddr: 0x40, symBinAddr: 0xB80, symSize: 0x50 }
  - { offset: 0x303D8, size: 0x8, addend: 0x0, symName: __ZNK18llama_adapter_cvec8apply_toEP12ggml_contextP11ggml_tensori, symObjAddr: 0x40, symBinAddr: 0xB80, symSize: 0x50 }
  - { offset: 0x30A33, size: 0x8, addend: 0x0, symName: __ZN18llama_adapter_cvec4initERK11llama_model, symObjAddr: 0x90, symBinAddr: 0xBD0, symSize: 0x738 }
  - { offset: 0x337C8, size: 0x8, addend: 0x0, symName: __ZNSt3__16__treeINS_12__value_typeIP24ggml_backend_buffer_typeP12ggml_contextEENS_19__map_value_compareIS3_S6_NS_4lessIS3_EELb1EEENS_9allocatorIS6_EEE7destroyEPNS_11__tree_nodeIS6_PvEE, symObjAddr: 0x52EC, symBinAddr: 0x5E2C, symSize: 0x44 }
  - { offset: 0x338DF, size: 0x8, addend: 0x0, symName: __ZNSt3__16vectorINS_10unique_ptrI19ggml_backend_buffer27ggml_backend_buffer_deleterEENS_9allocatorIS4_EEE20__throw_length_errorB8ne200100Ev, symObjAddr: 0x4C1C, symBinAddr: 0x575C, symSize: 0x14 }
  - { offset: 0x338F7, size: 0x8, addend: 0x0, symName: __ZNSt3__16vectorIhNS_9allocatorIhEEE20__throw_length_errorB8ne200100Ev, symObjAddr: 0x4C30, symBinAddr: 0x5770, symSize: 0x14 }
  - { offset: 0x33902, size: 0x8, addend: 0x0, symName: __ZNSt3__16vectorIP11ggml_tensorNS_9allocatorIS2_EEE20__throw_length_errorB8ne200100Ev, symObjAddr: 0x5330, symBinAddr: 0x5E70, symSize: 0x14 }
  - { offset: 0x3391A, size: 0x8, addend: 0x0, symName: __ZNSt3__112__hash_tableINS_17__hash_value_typeINS_12basic_stringIcNS_11char_traitsIcEENS_9allocatorIcEEEE25llama_adapter_lora_weightEENS_22__unordered_map_hasherIS7_S9_NS_4hashIS7_EENS_8equal_toIS7_EELb1EEENS_21__unordered_map_equalIS7_S9_SE_SC_Lb1EEENS5_IS9_EEE4findIS7_EENS_15__hash_iteratorIPNS_11__hash_nodeIS9_PvEEEERKT_, symObjAddr: 0x5344, symBinAddr: 0x5E84, symSize: 0x1B4 }
  - { offset: 0x33925, size: 0x8, addend: 0x0, symName: __ZNSt3__16vectorINS_10unique_ptrI12ggml_context20ggml_context_deleterEENS_9allocatorIS4_EEE20__throw_length_errorB8ne200100Ev, symObjAddr: 0x328C, symBinAddr: 0x3DCC, symSize: 0x14 }
  - { offset: 0x3393D, size: 0x8, addend: 0x0, symName: __ZNSt3__120__throw_length_errorB8ne200100EPKc, symObjAddr: 0x32A0, symBinAddr: 0x3DE0, symSize: 0x50 }
  - { offset: 0x33984, size: 0x8, addend: 0x0, symName: __ZN18llama_adapter_cvec5applyERK11llama_modelPKfmiii, symObjAddr: 0x7C8, symBinAddr: 0x1308, symSize: 0x12C }
  - { offset: 0x33DC9, size: 0x8, addend: 0x0, symName: __ZN18llama_adapter_lora10get_weightEP11ggml_tensor, symObjAddr: 0x8F4, symBinAddr: 0x1434, symSize: 0x100 }
  - { offset: 0x342BB, size: 0x8, addend: 0x0, symName: __ZNSt3__112__hash_tableINS_17__hash_value_typeINS_12basic_stringIcNS_11char_traitsIcEENS_9allocatorIcEEEE25llama_adapter_lora_weightEENS_22__unordered_map_hasherIS7_S9_NS_4hashIS7_EENS_8equal_toIS7_EELb1EEENS_21__unordered_map_equalIS7_S9_SE_SC_Lb1EEENS5_IS9_EEE4findIS7_EENS_15__hash_iteratorIPNS_11__hash_nodeIS9_PvEEEERKT_, symObjAddr: 0x5344, symBinAddr: 0x5E84, symSize: 0x1B4 }
  - { offset: 0x345C4, size: 0x8, addend: 0x0, symName: __ZNSt3__112basic_stringIcNS_11char_traitsIcEENS_9allocatorIcEEE20__throw_length_errorB8ne200100Ev, symObjAddr: 0x4220, symBinAddr: 0x4D60, symSize: 0x14 }
  - { offset: 0x345DC, size: 0x8, addend: 0x0, symName: __ZNSt3__112basic_stringIcNS_11char_traitsIcEENS_9allocatorIcEEE25__init_copy_ctor_externalEPKcm, symObjAddr: 0x4234, symBinAddr: 0x4D74, symSize: 0x88 }
  - { offset: 0x345E7, size: 0x8, addend: 0x0, symName: __ZNSt3__112basic_stringIcNS_11char_traitsIcEENS_9allocatorIcEEEC1B8ne200100ILi0EEEPKc, symObjAddr: 0x9F4, symBinAddr: 0x1534, symSize: 0xA4 }
  - { offset: 0x3484F, size: 0x8, addend: 0x0, symName: _llama_adapter_lora_init, symObjAddr: 0xA98, symBinAddr: 0x15D8, symSize: 0x100 }
  - { offset: 0x34A34, size: 0x8, addend: 0x0, symName: _llama_adapter_lora_init, symObjAddr: 0xA98, symBinAddr: 0x15D8, symSize: 0x100 }
  - { offset: 0x34CB4, size: 0x8, addend: 0x0, symName: __ZL28llama_adapter_lora_init_implR11llama_modelPKcR18llama_adapter_lora, symObjAddr: 0xB98, symBinAddr: 0x16D8, symSize: 0x2270 }
  - { offset: 0x3D5ED, size: 0x8, addend: 0x0, symName: __ZN18llama_adapter_loraD2Ev, symObjAddr: 0x5180, symBinAddr: 0x5CC0, symSize: 0x16C }
  - { offset: 0x3F833, size: 0x8, addend: 0x0, symName: __ZNSt3__112__hash_tableINS_17__hash_value_typeINS_12basic_stringIcNS_11char_traitsIcEENS_9allocatorIcEEEES7_EENS_22__unordered_map_hasherIS7_S8_NS_4hashIS7_EENS_8equal_toIS7_EELb1EEENS_21__unordered_map_equalIS7_S8_SD_SB_Lb1EEENS5_IS8_EEE21__emplace_unique_implIJRPKcRKS7_EEENS_4pairINS_15__hash_iteratorIPNS_11__hash_nodeIS8_PvEEEEbEEDpOT_, symObjAddr: 0x3530, symBinAddr: 0x4070, symSize: 0x140 }
  - { offset: 0x40036, size: 0x8, addend: 0x0, symName: __ZNSt3__112basic_stringIcNS_11char_traitsIcEENS_9allocatorIcEEE25__init_copy_ctor_externalEPKcm, symObjAddr: 0x4234, symBinAddr: 0x4D74, symSize: 0x88 }
  - { offset: 0x401F6, size: 0x8, addend: 0x0, symName: __ZNSt3__16vectorIiNS_9allocatorIiEEE8__appendEm, symObjAddr: 0x42BC, symBinAddr: 0x4DFC, symSize: 0x120 }
  - { offset: 0x40294, size: 0x8, addend: 0x0, symName: __ZNSt3__16vectorIiNS_9allocatorIiEEE8__appendEm, symObjAddr: 0x42BC, symBinAddr: 0x4DFC, symSize: 0x120 }
  - { offset: 0x40672, size: 0x8, addend: 0x0, symName: __ZNSt3__16vectorIiNS_9allocatorIiEEE20__throw_length_errorB8ne200100Ev, symObjAddr: 0x43DC, symBinAddr: 0x4F1C, symSize: 0x14 }
  - { offset: 0x406E1, size: 0x8, addend: 0x0, symName: __ZNSt3__16__treeINS_12__value_typeINS_12basic_stringIcNS_11char_traitsIcEENS_9allocatorIcEEEE25llama_adapter_lora_weightEENS_19__map_value_compareIS7_S9_NS_4lessIS7_EELb1EEENS5_IS9_EEE25__emplace_unique_key_argsIS7_JRKNS_21piecewise_construct_tENS_5tupleIJRKS7_EEENSK_IJEEEEEENS_4pairINS_15__tree_iteratorIS9_PNS_11__tree_nodeIS9_PvEElEEbEERKT_DpOT0_, symObjAddr: 0x43F0, symBinAddr: 0x4F30, symSize: 0x1B0 }
  - { offset: 0x40DFB, size: 0x8, addend: 0x0, symName: __ZNSt3__112__hash_tableINS_17__hash_value_typeINS_12basic_stringIcNS_11char_traitsIcEENS_9allocatorIcEEEE25llama_adapter_lora_weightEENS_22__unordered_map_hasherIS7_S9_NS_4hashIS7_EENS_8equal_toIS7_EELb1EEENS_21__unordered_map_equalIS7_S9_SE_SC_Lb1EEENS5_IS9_EEE25__emplace_unique_key_argsIS7_JRKNS_21piecewise_construct_tENS_5tupleIJRKS7_EEENSO_IJEEEEEENS_4pairINS_15__hash_iteratorIPNS_11__hash_nodeIS9_PvEEEEbEERKT_DpOT0_, symObjAddr: 0x4614, symBinAddr: 0x5154, symSize: 0x428 }
  - { offset: 0x4190E, size: 0x8, addend: 0x0, symName: '__ZZL28llama_adapter_lora_init_implR11llama_modelPKcR18llama_adapter_loraENK3$_4clEP11ggml_tensorS7_', symObjAddr: 0x337C, symBinAddr: 0x3EBC, symSize: 0x180 }
  - { offset: 0x41EFB, size: 0x8, addend: 0x0, symName: __ZNSt3__110unique_ptrI12gguf_context20gguf_context_deleterED1B8ne200100Ev, symObjAddr: 0x34FC, symBinAddr: 0x403C, symSize: 0x34 }
  - { offset: 0x41F0C, size: 0x8, addend: 0x0, symName: __ZNSt3__112__hash_tableIP18llama_adapter_loraNS_4hashIS2_EENS_8equal_toIS2_EENS_9allocatorIS2_EEE25__emplace_unique_key_argsIS2_JS2_EEENS_4pairINS_15__hash_iteratorIPNS_11__hash_nodeIS2_PvEEEEbEERKT_DpOT0_, symObjAddr: 0x4C44, symBinAddr: 0x5784, symSize: 0x35C }
  - { offset: 0x42661, size: 0x8, addend: 0x0, symName: __ZNSt3__16__treeINS_12__value_typeINS_12basic_stringIcNS_11char_traitsIcEENS_9allocatorIcEEEE25llama_adapter_lora_weightEENS_19__map_value_compareIS7_S9_NS_4lessIS7_EELb1EEENS5_IS9_EEE7destroyEPNS_11__tree_nodeIS9_PvEE, symObjAddr: 0x5120, symBinAddr: 0x5C60, symSize: 0x60 }
  - { offset: 0x428BE, size: 0x8, addend: 0x0, symName: __ZNSt3__112basic_stringIcNS_11char_traitsIcEENS_9allocatorIcEEE20__throw_out_of_rangeB8ne200100Ev, symObjAddr: 0x4198, symBinAddr: 0x4CD8, symSize: 0x14 }
  - { offset: 0x428D6, size: 0x8, addend: 0x0, symName: __ZNSt3__120__throw_out_of_rangeB8ne200100EPKc, symObjAddr: 0x41AC, symBinAddr: 0x4CEC, symSize: 0x50 }
  - { offset: 0x428E1, size: 0x8, addend: 0x0, symName: __ZNSt3__16vectorIP24ggml_backend_buffer_typeNS_9allocatorIS2_EEE20__throw_length_errorB8ne200100Ev, symObjAddr: 0x4600, symBinAddr: 0x5140, symSize: 0x14 }
  - { offset: 0x428F9, size: 0x8, addend: 0x0, symName: __ZNSt3__112__hash_tableINS_17__hash_value_typeINS_12basic_stringIcNS_11char_traitsIcEENS_9allocatorIcEEEE25llama_adapter_lora_weightEENS_22__unordered_map_hasherIS7_S9_NS_4hashIS7_EENS_8equal_toIS7_EELb1EEENS_21__unordered_map_equalIS7_S9_SE_SC_Lb1EEENS5_IS9_EEE25__emplace_unique_key_argsIS7_JRKNS_21piecewise_construct_tENS_5tupleIJRKS7_EEENSO_IJEEEEEENS_4pairINS_15__hash_iteratorIPNS_11__hash_nodeIS9_PvEEEEbEERKT_DpOT0_, symObjAddr: 0x4614, symBinAddr: 0x5154, symSize: 0x428 }
  - { offset: 0x42904, size: 0x8, addend: 0x0, symName: __ZNSt3__110unique_ptrI12gguf_context20gguf_context_deleterED1B8ne200100Ev, symObjAddr: 0x34FC, symBinAddr: 0x403C, symSize: 0x34 }
  - { offset: 0x42998, size: 0x8, addend: 0x0, symName: __ZNSt3__110unique_ptrI19ggml_backend_buffer27ggml_backend_buffer_deleterED1B8ne200100Ev, symObjAddr: 0x3348, symBinAddr: 0x3E88, symSize: 0x34 }
  - { offset: 0x42A2C, size: 0x8, addend: 0x0, symName: __ZNSt3__110unique_ptrI12ggml_context20ggml_context_deleterED1B8ne200100Ev, symObjAddr: 0x3314, symBinAddr: 0x3E54, symSize: 0x34 }
  - { offset: 0x42AE8, size: 0x8, addend: 0x0, symName: _llama_adapter_meta_val_str, symObjAddr: 0x2E18, symBinAddr: 0x3958, symSize: 0x13C }
  - { offset: 0x430B8, size: 0x8, addend: 0x0, symName: __ZNKSt3__112__hash_tableINS_17__hash_value_typeINS_12basic_stringIcNS_11char_traitsIcEENS_9allocatorIcEEEES7_EENS_22__unordered_map_hasherIS7_S8_NS_4hashIS7_EENS_8equal_toIS7_EELb1EEENS_21__unordered_map_equalIS7_S8_SD_SB_Lb1EEENS5_IS8_EEE4findIS7_EENS_21__hash_const_iteratorIPNS_11__hash_nodeIS8_PvEEEERKT_, symObjAddr: 0x54F8, symBinAddr: 0x6038, symSize: 0x1B4 }
  - { offset: 0x43411, size: 0x8, addend: 0x0, symName: _llama_adapter_meta_count, symObjAddr: 0x2F54, symBinAddr: 0x3A94, symSize: 0x8 }
  - { offset: 0x4343F, size: 0x8, addend: 0x0, symName: _llama_adapter_meta_count, symObjAddr: 0x2F54, symBinAddr: 0x3A94, symSize: 0x8 }
  - { offset: 0x4345E, size: 0x8, addend: 0x0, symName: _llama_adapter_meta_count, symObjAddr: 0x2F54, symBinAddr: 0x3A94, symSize: 0x8 }
  - { offset: 0x43531, size: 0x8, addend: 0x0, symName: _llama_adapter_meta_key_by_index, symObjAddr: 0x2F5C, symBinAddr: 0x3A9C, symSize: 0x84 }
  - { offset: 0x4376B, size: 0x8, addend: 0x0, symName: _llama_adapter_meta_val_str_by_index, symObjAddr: 0x2FE0, symBinAddr: 0x3B20, symSize: 0x84 }
  - { offset: 0x4395C, size: 0x8, addend: 0x0, symName: _llama_adapter_lora_free, symObjAddr: 0x3064, symBinAddr: 0x3BA4, symSize: 0x4 }
  - { offset: 0x4397F, size: 0x8, addend: 0x0, symName: _llama_adapter_get_alora_n_invocation_tokens, symObjAddr: 0x3068, symBinAddr: 0x3BA8, symSize: 0x14 }
  - { offset: 0x439E1, size: 0x8, addend: 0x0, symName: _llama_adapter_get_alora_invocation_tokens, symObjAddr: 0x307C, symBinAddr: 0x3BBC, symSize: 0x3C }
  - { offset: 0x43A2F, size: 0x8, addend: 0x0, symName: __ZSt28__throw_bad_array_new_lengthB8ne200100v, symObjAddr: 0x30B8, symBinAddr: 0x3BF8, symSize: 0x28 }
  - { offset: 0x43A80, size: 0x8, addend: 0x0, symName: __ZNSt12length_errorC1B8ne200100EPKc, symObjAddr: 0x32F0, symBinAddr: 0x3E30, symSize: 0x24 }
  - { offset: 0x44018, size: 0x8, addend: 0x0, symName: __ZNSt3__16vectorIhNS_9allocatorIhEEE20__throw_length_errorB8ne200100Ev, symObjAddr: 0x4C30, symBinAddr: 0x5770, symSize: 0x14 }
  - { offset: 0x44030, size: 0x8, addend: 0x0, symName: __ZNSt3__112__hash_tableIP18llama_adapter_loraNS_4hashIS2_EENS_8equal_toIS2_EENS_9allocatorIS2_EEE25__emplace_unique_key_argsIS2_JS2_EEENS_4pairINS_15__hash_iteratorIPNS_11__hash_nodeIS2_PvEEEEbEERKT_DpOT0_, symObjAddr: 0x4C44, symBinAddr: 0x5784, symSize: 0x35C }
  - { offset: 0x444C2, size: 0x8, addend: 0x0, symName: __ZNSt3__14pairIKNS_12basic_stringIcNS_11char_traitsIcEENS_9allocatorIcEEEES6_EC2B8ne200100IRPKcRS7_Li0EEEOT_OT0_, symObjAddr: 0x3820, symBinAddr: 0x4360, symSize: 0x108 }
  - { offset: 0x448CD, size: 0x8, addend: 0x0, symName: __ZNKSt3__121__murmur2_or_cityhashImLm64EEclB8ne200100EPKvm, symObjAddr: 0x3928, symBinAddr: 0x4468, symSize: 0x44C }
  - { offset: 0x452E6, size: 0x8, addend: 0x0, symName: __ZNSt3__112__hash_tableINS_17__hash_value_typeINS_12basic_stringIcNS_11char_traitsIcEENS_9allocatorIcEEEES7_EENS_22__unordered_map_hasherIS7_S8_NS_4hashIS7_EENS_8equal_toIS7_EELb1EEENS_21__unordered_map_equalIS7_S8_SD_SB_Lb1EEENS5_IS8_EEE20__node_insert_uniqueEPNS_11__hash_nodeIS8_PvEE, symObjAddr: 0x3670, symBinAddr: 0x41B0, symSize: 0x144 }
  - { offset: 0x45559, size: 0x8, addend: 0x0, symName: __ZNSt3__110unique_ptrINS_11__hash_nodeINS_17__hash_value_typeINS_12basic_stringIcNS_11char_traitsIcEENS_9allocatorIcEEEES8_EEPvEENS_22__hash_node_destructorINS6_ISB_EEEEED1B8ne200100Ev, symObjAddr: 0x37B4, symBinAddr: 0x42F4, symSize: 0x6C }
  - { offset: 0x45978, size: 0x8, addend: 0x0, symName: __ZNSt3__112__hash_tableINS_17__hash_value_typeINS_12basic_stringIcNS_11char_traitsIcEENS_9allocatorIcEEEES7_EENS_22__unordered_map_hasherIS7_S8_NS_4hashIS7_EENS_8equal_toIS7_EELb1EEENS_21__unordered_map_equalIS7_S8_SD_SB_Lb1EEENS5_IS8_EEE28__node_insert_unique_prepareB8ne200100EmRS8_, symObjAddr: 0x3D74, symBinAddr: 0x48B4, symSize: 0x2A4 }
  - { offset: 0x45FE6, size: 0x8, addend: 0x0, symName: __ZNSt3__112__hash_tableINS_17__hash_value_typeINS_12basic_stringIcNS_11char_traitsIcEENS_9allocatorIcEEEES7_EENS_22__unordered_map_hasherIS7_S8_NS_4hashIS7_EENS_8equal_toIS7_EELb1EEENS_21__unordered_map_equalIS7_S8_SD_SB_Lb1EEENS5_IS8_EEE11__do_rehashILb1EEEvm, symObjAddr: 0x4018, symBinAddr: 0x4B58, symSize: 0x180 }
  - { offset: 0x46373, size: 0x8, addend: 0x0, symName: __ZNSt3__112basic_stringIcNS_11char_traitsIcEENS_9allocatorIcEEE20__throw_out_of_rangeB8ne200100Ev, symObjAddr: 0x4198, symBinAddr: 0x4CD8, symSize: 0x14 }
  - { offset: 0x46498, size: 0x8, addend: 0x0, symName: __ZNSt12out_of_rangeC1B8ne200100EPKc, symObjAddr: 0x41FC, symBinAddr: 0x4D3C, symSize: 0x24 }
  - { offset: 0x46833, size: 0x8, addend: 0x0, symName: __ZNSt3__16vectorIiNS_9allocatorIiEEE20__throw_length_errorB8ne200100Ev, symObjAddr: 0x43DC, symBinAddr: 0x4F1C, symSize: 0x14 }
  - { offset: 0x4684B, size: 0x8, addend: 0x0, symName: __ZNSt3__16__treeINS_12__value_typeINS_12basic_stringIcNS_11char_traitsIcEENS_9allocatorIcEEEE25llama_adapter_lora_weightEENS_19__map_value_compareIS7_S9_NS_4lessIS7_EELb1EEENS5_IS9_EEE25__emplace_unique_key_argsIS7_JRKNS_21piecewise_construct_tENS_5tupleIJRKS7_EEENSK_IJEEEEEENS_4pairINS_15__tree_iteratorIS9_PNS_11__tree_nodeIS9_PvEElEEbEERKT_DpOT0_, symObjAddr: 0x43F0, symBinAddr: 0x4F30, symSize: 0x1B0 }
  - { offset: 0x46C76, size: 0x8, addend: 0x0, symName: __ZNSt3__110unique_ptrINS_11__tree_nodeINS_12__value_typeINS_12basic_stringIcNS_11char_traitsIcEENS_9allocatorIcEEEE25llama_adapter_lora_weightEEPvEENS_22__tree_node_destructorINS6_ISC_EEEEED1B8ne200100Ev, symObjAddr: 0x45A0, symBinAddr: 0x50E0, symSize: 0x60 }
  - { offset: 0x474A2, size: 0x8, addend: 0x0, symName: __ZNSt3__112__hash_tableINS_17__hash_value_typeINS_12basic_stringIcNS_11char_traitsIcEENS_9allocatorIcEEEE25llama_adapter_lora_weightEENS_22__unordered_map_hasherIS7_S9_NS_4hashIS7_EENS_8equal_toIS7_EELb1EEENS_21__unordered_map_equalIS7_S9_SE_SC_Lb1EEENS5_IS9_EEE11__do_rehashILb1EEEvm, symObjAddr: 0x4A9C, symBinAddr: 0x55DC, symSize: 0x180 }
  - { offset: 0x4782F, size: 0x8, addend: 0x0, symName: __ZNSt3__16vectorINS_10unique_ptrI19ggml_backend_buffer27ggml_backend_buffer_deleterEENS_9allocatorIS4_EEE20__throw_length_errorB8ne200100Ev, symObjAddr: 0x4C1C, symBinAddr: 0x575C, symSize: 0x14 }
  - { offset: 0x47844, size: 0x8, addend: 0x0, symName: __ZNSt3__110unique_ptrINS_11__hash_nodeINS_17__hash_value_typeINS_12basic_stringIcNS_11char_traitsIcEENS_9allocatorIcEEEE25llama_adapter_lora_weightEEPvEENS_22__hash_node_destructorINS6_ISC_EEEEED1B8ne200100Ev, symObjAddr: 0x4A3C, symBinAddr: 0x557C, symSize: 0x60 }
  - { offset: 0x48181, size: 0x8, addend: 0x0, symName: __ZNSt3__112__hash_tableIP18llama_adapter_loraNS_4hashIS2_EENS_8equal_toIS2_EENS_9allocatorIS2_EEE11__do_rehashILb1EEEvm, symObjAddr: 0x4FA0, symBinAddr: 0x5AE0, symSize: 0x180 }
  - { offset: 0x4850E, size: 0x8, addend: 0x0, symName: __ZNSt3__16__treeINS_12__value_typeINS_12basic_stringIcNS_11char_traitsIcEENS_9allocatorIcEEEE25llama_adapter_lora_weightEENS_19__map_value_compareIS7_S9_NS_4lessIS7_EELb1EEENS5_IS9_EEE7destroyEPNS_11__tree_nodeIS9_PvEE, symObjAddr: 0x5120, symBinAddr: 0x5C60, symSize: 0x60 }
  - { offset: 0x4AF44, size: 0x8, addend: 0x0, symName: __MergedGlobals, symObjAddr: 0x724D0, symBinAddr: 0x371D90, symSize: 0x0 }
  - { offset: 0x5AB33, size: 0x8, addend: 0x0, symName: __MergedGlobals, symObjAddr: 0x724D0, symBinAddr: 0x371D90, symSize: 0x0 }
  - { offset: 0x5AF5B, size: 0x8, addend: 0x0, symName: __MergedGlobals, symObjAddr: 0x724D0, symBinAddr: 0x371D90, symSize: 0x0 }
  - { offset: 0x5B867, size: 0x8, addend: 0x0, symName: __MergedGlobals, symObjAddr: 0x724D0, symBinAddr: 0x371D90, symSize: 0x0 }
  - { offset: 0x5C002, size: 0x8, addend: 0x0, symName: __ZNSt3__13mapI8llm_archPKcNS_4lessIS1_EENS_9allocatorINS_4pairIKS1_S3_EEEEED1B8ne200100Ev, symObjAddr: 0x0, symBinAddr: 0x61EC, symSize: 0x28 }
  - { offset: 0x5C0B6, size: 0x8, addend: 0x0, symName: __ZNSt3__16__treeINS_12__value_typeI8llm_archPKcEENS_19__map_value_compareIS2_S5_NS_4lessIS2_EELb1EEENS_9allocatorIS5_EEE7destroyEPNS_11__tree_nodeIS5_PvEE, symObjAddr: 0x17FC, symBinAddr: 0x782C, symSize: 0x44 }
  - { offset: 0x5C241, size: 0x8, addend: 0x0, symName: __ZNSt3__13mapI6llm_kvPKcNS_4lessIS1_EENS_9allocatorINS_4pairIKS1_S3_EEEEED1B8ne200100Ev, symObjAddr: 0x28, symBinAddr: 0x6214, symSize: 0x28 }
  - { offset: 0x5C2F5, size: 0x8, addend: 0x0, symName: __ZNSt3__16__treeINS_12__value_typeI6llm_kvPKcEENS_19__map_value_compareIS2_S5_NS_4lessIS2_EELb1EEENS_9allocatorIS5_EEE7destroyEPNS_11__tree_nodeIS5_PvEE, symObjAddr: 0x1AE0, symBinAddr: 0x7B10, symSize: 0x44 }
  - { offset: 0x5C480, size: 0x8, addend: 0x0, symName: __ZNSt3__13mapI10llm_tensorPKcNS_4lessIS1_EENS_9allocatorINS_4pairIKS1_S3_EEEEED1B8ne200100Ev, symObjAddr: 0x50, symBinAddr: 0x623C, symSize: 0x28 }
  - { offset: 0x5C534, size: 0x8, addend: 0x0, symName: __ZNSt3__16__treeINS_12__value_typeI10llm_tensorPKcEENS_19__map_value_compareIS2_S5_NS_4lessIS2_EELb1EEENS_9allocatorIS5_EEE7destroyEPNS_11__tree_nodeIS5_PvEE, symObjAddr: 0x1DC4, symBinAddr: 0x7DF4, symSize: 0x44 }
  - { offset: 0x5C6BF, size: 0x8, addend: 0x0, symName: __ZNSt3__13mapI10llm_tensor15llm_tensor_infoNS_4lessIS1_EENS_9allocatorINS_4pairIKS1_S2_EEEEED1B8ne200100Ev, symObjAddr: 0x78, symBinAddr: 0x6264, symSize: 0x28 }
  - { offset: 0x5C773, size: 0x8, addend: 0x0, symName: __ZNSt3__16__treeINS_12__value_typeI10llm_tensor15llm_tensor_infoEENS_19__map_value_compareIS2_S4_NS_4lessIS2_EELb1EEENS_9allocatorIS4_EEE7destroyEPNS_11__tree_nodeIS4_PvEE, symObjAddr: 0x20B4, symBinAddr: 0x80E4, symSize: 0x44 }
  - { offset: 0x5C88F, size: 0x8, addend: 0x0, symName: __ZN6LLM_KVC2E8llm_archPKc, symObjAddr: 0xA0, symBinAddr: 0x628C, symSize: 0xC }
  - { offset: 0x5C8F8, size: 0x8, addend: 0x0, symName: __ZN6LLM_KVC1E8llm_archPKc, symObjAddr: 0xAC, symBinAddr: 0x6298, symSize: 0xC }
  - { offset: 0x5C942, size: 0x8, addend: 0x0, symName: __ZN6LLM_KVC1E8llm_archPKc, symObjAddr: 0xAC, symBinAddr: 0x6298, symSize: 0xC }
  - { offset: 0x5CCC2, size: 0x8, addend: 0x0, symName: __ZNK6LLM_KVclE6llm_kv, symObjAddr: 0xB8, symBinAddr: 0x62A4, symSize: 0xFC }
  - { offset: 0x5D1F7, size: 0x8, addend: 0x0, symName: __ZN11LLM_TN_IMPLC2E8llm_arch10llm_tensorPKcii, symObjAddr: 0x1B4, symBinAddr: 0x63A0, symSize: 0xABC }
  - { offset: 0x5D39A, size: 0x8, addend: 0x0, symName: __ZN11LLM_TN_IMPLC1E8llm_arch10llm_tensorPKcii, symObjAddr: 0xC70, symBinAddr: 0x6E5C, symSize: 0x4 }
  - { offset: 0x5D3AD, size: 0x8, addend: 0x0, symName: __ZNSt3__13setI10llm_tensorNS_4lessIS1_EENS_9allocatorIS1_EEEC2B8ne200100ESt16initializer_listIS1_ERKS3_, symObjAddr: 0x10BC, symBinAddr: 0x72A8, symSize: 0xF0 }
  - { offset: 0x5D720, size: 0x8, addend: 0x0, symName: __ZN11LLM_TN_IMPLC1E8llm_arch10llm_tensorPKcii, symObjAddr: 0xC70, symBinAddr: 0x6E5C, symSize: 0x4 }
  - { offset: 0x5D795, size: 0x8, addend: 0x0, symName: __ZN11LLM_TN_IMPLC1E8llm_arch10llm_tensorPKcii, symObjAddr: 0xC70, symBinAddr: 0x6E5C, symSize: 0x4 }
  - { offset: 0x5DC3E, size: 0x8, addend: 0x0, symName: __ZNK11LLM_TN_IMPL3strEv, symObjAddr: 0xC74, symBinAddr: 0x6E60, symSize: 0x200 }
  - { offset: 0x5E4D2, size: 0x8, addend: 0x0, symName: __Z13llm_arch_name8llm_arch, symObjAddr: 0xE74, symBinAddr: 0x7060, symSize: 0x58 }
  - { offset: 0x5E514, size: 0x8, addend: 0x0, symName: __Z13llm_arch_name8llm_arch, symObjAddr: 0xE74, symBinAddr: 0x7060, symSize: 0x58 }
  - { offset: 0x5E529, size: 0x8, addend: 0x0, symName: __Z13llm_arch_name8llm_arch, symObjAddr: 0xE74, symBinAddr: 0x7060, symSize: 0x58 }
  - { offset: 0x5E547, size: 0x8, addend: 0x0, symName: __Z13llm_arch_name8llm_arch, symObjAddr: 0xE74, symBinAddr: 0x7060, symSize: 0x58 }
  - { offset: 0x5E70D, size: 0x8, addend: 0x0, symName: __Z20llm_arch_from_stringRKNSt3__112basic_stringIcNS_11char_traitsIcEENS_9allocatorIcEEEE, symObjAddr: 0xECC, symBinAddr: 0x70B8, symSize: 0x108 }
  - { offset: 0x5EAAC, size: 0x8, addend: 0x0, symName: __Z19llm_tensor_info_for10llm_tensor, symObjAddr: 0xFD4, symBinAddr: 0x71C0, symSize: 0x50 }
  - { offset: 0x5EB98, size: 0x8, addend: 0x0, symName: __Z21llm_arch_is_recurrentRK8llm_arch, symObjAddr: 0x1024, symBinAddr: 0x7210, symSize: 0x20 }
  - { offset: 0x5EBC8, size: 0x8, addend: 0x0, symName: __Z18llm_arch_is_hybridRK8llm_arch, symObjAddr: 0x1044, symBinAddr: 0x7230, symSize: 0x58 }
  - { offset: 0x5EBF8, size: 0x8, addend: 0x0, symName: __Z21llm_arch_is_diffusionRK8llm_arch, symObjAddr: 0x109C, symBinAddr: 0x7288, symSize: 0x20 }
  - { offset: 0x5EEB9, size: 0x8, addend: 0x0, symName: __ZNSt3__16__treeI10llm_tensorNS_4lessIS1_EENS_9allocatorIS1_EEE12__find_equalIS1_EERPNS_16__tree_node_baseIPvEENS_21__tree_const_iteratorIS1_PNS_11__tree_nodeIS1_S9_EElEERPNS_15__tree_end_nodeISB_EESC_RKT_, symObjAddr: 0x11AC, symBinAddr: 0x7398, symSize: 0x1B0 }
  - { offset: 0x5EF1C, size: 0x8, addend: 0x0, symName: __ZNSt3__16__treeI10llm_tensorNS_4lessIS1_EENS_9allocatorIS1_EEE12__find_equalIS1_EERPNS_16__tree_node_baseIPvEENS_21__tree_const_iteratorIS1_PNS_11__tree_nodeIS1_S9_EElEERPNS_15__tree_end_nodeISB_EESC_RKT_, symObjAddr: 0x11AC, symBinAddr: 0x7398, symSize: 0x1B0 }
  - { offset: 0x5EF38, size: 0x8, addend: 0x0, symName: __ZNSt3__16__treeI10llm_tensorNS_4lessIS1_EENS_9allocatorIS1_EEE12__find_equalIS1_EERPNS_16__tree_node_baseIPvEENS_21__tree_const_iteratorIS1_PNS_11__tree_nodeIS1_S9_EElEERPNS_15__tree_end_nodeISB_EESC_RKT_, symObjAddr: 0x11AC, symBinAddr: 0x7398, symSize: 0x1B0 }
  - { offset: 0x5F1C3, size: 0x8, addend: 0x0, symName: __ZNSt3__16__treeI10llm_tensorNS_4lessIS1_EENS_9allocatorIS1_EEE7destroyEPNS_11__tree_nodeIS1_PvEE, symObjAddr: 0x1518, symBinAddr: 0x7548, symSize: 0x44 }
  - { offset: 0x5F710, size: 0x8, addend: 0x0, symName: __ZNSt3__13mapI8llm_archPKcNS_4lessIS1_EENS_9allocatorINS_4pairIKS1_S3_EEEEEC2B8ne200100ESt16initializer_listIS9_ERKS5_, symObjAddr: 0x155C, symBinAddr: 0x758C, symSize: 0xF0 }
  - { offset: 0x5FA92, size: 0x8, addend: 0x0, symName: __ZNSt3__16__treeINS_12__value_typeI8llm_archPKcEENS_19__map_value_compareIS2_S5_NS_4lessIS2_EELb1EEENS_9allocatorIS5_EEE12__find_equalIS2_EERPNS_16__tree_node_baseIPvEENS_21__tree_const_iteratorIS5_PNS_11__tree_nodeIS5_SF_EElEERPNS_15__tree_end_nodeISH_EESI_RKT_, symObjAddr: 0x164C, symBinAddr: 0x767C, symSize: 0x1B0 }
  - { offset: 0x5FAF5, size: 0x8, addend: 0x0, symName: __ZNSt3__16__treeINS_12__value_typeI8llm_archPKcEENS_19__map_value_compareIS2_S5_NS_4lessIS2_EELb1EEENS_9allocatorIS5_EEE12__find_equalIS2_EERPNS_16__tree_node_baseIPvEENS_21__tree_const_iteratorIS5_PNS_11__tree_nodeIS5_SF_EElEERPNS_15__tree_end_nodeISH_EESI_RKT_, symObjAddr: 0x164C, symBinAddr: 0x767C, symSize: 0x1B0 }
  - { offset: 0x5FB11, size: 0x8, addend: 0x0, symName: __ZNSt3__16__treeINS_12__value_typeI8llm_archPKcEENS_19__map_value_compareIS2_S5_NS_4lessIS2_EELb1EEENS_9allocatorIS5_EEE12__find_equalIS2_EERPNS_16__tree_node_baseIPvEENS_21__tree_const_iteratorIS5_PNS_11__tree_nodeIS5_SF_EElEERPNS_15__tree_end_nodeISH_EESI_RKT_, symObjAddr: 0x164C, symBinAddr: 0x767C, symSize: 0x1B0 }
  - { offset: 0x601DB, size: 0x8, addend: 0x0, symName: __ZNSt3__13mapI6llm_kvPKcNS_4lessIS1_EENS_9allocatorINS_4pairIKS1_S3_EEEEEC2B8ne200100ESt16initializer_listIS9_ERKS5_, symObjAddr: 0x1840, symBinAddr: 0x7870, symSize: 0xF0 }
  - { offset: 0x6055D, size: 0x8, addend: 0x0, symName: __ZNSt3__16__treeINS_12__value_typeI6llm_kvPKcEENS_19__map_value_compareIS2_S5_NS_4lessIS2_EELb1EEENS_9allocatorIS5_EEE12__find_equalIS2_EERPNS_16__tree_node_baseIPvEENS_21__tree_const_iteratorIS5_PNS_11__tree_nodeIS5_SF_EElEERPNS_15__tree_end_nodeISH_EESI_RKT_, symObjAddr: 0x1930, symBinAddr: 0x7960, symSize: 0x1B0 }
  - { offset: 0x605C0, size: 0x8, addend: 0x0, symName: __ZNSt3__16__treeINS_12__value_typeI6llm_kvPKcEENS_19__map_value_compareIS2_S5_NS_4lessIS2_EELb1EEENS_9allocatorIS5_EEE12__find_equalIS2_EERPNS_16__tree_node_baseIPvEENS_21__tree_const_iteratorIS5_PNS_11__tree_nodeIS5_SF_EElEERPNS_15__tree_end_nodeISH_EESI_RKT_, symObjAddr: 0x1930, symBinAddr: 0x7960, symSize: 0x1B0 }
  - { offset: 0x605DC, size: 0x8, addend: 0x0, symName: __ZNSt3__16__treeINS_12__value_typeI6llm_kvPKcEENS_19__map_value_compareIS2_S5_NS_4lessIS2_EELb1EEENS_9allocatorIS5_EEE12__find_equalIS2_EERPNS_16__tree_node_baseIPvEENS_21__tree_const_iteratorIS5_PNS_11__tree_nodeIS5_SF_EElEERPNS_15__tree_end_nodeISH_EESI_RKT_, symObjAddr: 0x1930, symBinAddr: 0x7960, symSize: 0x1B0 }
  - { offset: 0x60CF0, size: 0x8, addend: 0x0, symName: __ZNSt3__13mapI10llm_tensorPKcNS_4lessIS1_EENS_9allocatorINS_4pairIKS1_S3_EEEEEC2B8ne200100ESt16initializer_listIS9_ERKS5_, symObjAddr: 0x1B24, symBinAddr: 0x7B54, symSize: 0xF0 }
  - { offset: 0x61072, size: 0x8, addend: 0x0, symName: __ZNSt3__16__treeINS_12__value_typeI10llm_tensorPKcEENS_19__map_value_compareIS2_S5_NS_4lessIS2_EELb1EEENS_9allocatorIS5_EEE12__find_equalIS2_EERPNS_16__tree_node_baseIPvEENS_21__tree_const_iteratorIS5_PNS_11__tree_nodeIS5_SF_EElEERPNS_15__tree_end_nodeISH_EESI_RKT_, symObjAddr: 0x1C14, symBinAddr: 0x7C44, symSize: 0x1B0 }
  - { offset: 0x610D5, size: 0x8, addend: 0x0, symName: __ZNSt3__16__treeINS_12__value_typeI10llm_tensorPKcEENS_19__map_value_compareIS2_S5_NS_4lessIS2_EELb1EEENS_9allocatorIS5_EEE12__find_equalIS2_EERPNS_16__tree_node_baseIPvEENS_21__tree_const_iteratorIS5_PNS_11__tree_nodeIS5_SF_EElEERPNS_15__tree_end_nodeISH_EESI_RKT_, symObjAddr: 0x1C14, symBinAddr: 0x7C44, symSize: 0x1B0 }
  - { offset: 0x610F1, size: 0x8, addend: 0x0, symName: __ZNSt3__16__treeINS_12__value_typeI10llm_tensorPKcEENS_19__map_value_compareIS2_S5_NS_4lessIS2_EELb1EEENS_9allocatorIS5_EEE12__find_equalIS2_EERPNS_16__tree_node_baseIPvEENS_21__tree_const_iteratorIS5_PNS_11__tree_nodeIS5_SF_EElEERPNS_15__tree_end_nodeISH_EESI_RKT_, symObjAddr: 0x1C14, symBinAddr: 0x7C44, symSize: 0x1B0 }
  - { offset: 0x617D7, size: 0x8, addend: 0x0, symName: __ZNSt3__13mapI10llm_tensor15llm_tensor_infoNS_4lessIS1_EENS_9allocatorINS_4pairIKS1_S2_EEEEEC2B8ne200100ESt16initializer_listIS8_ERKS4_, symObjAddr: 0x1E08, symBinAddr: 0x7E38, symSize: 0xFC }
  - { offset: 0x61B59, size: 0x8, addend: 0x0, symName: __ZNSt3__16__treeINS_12__value_typeI10llm_tensor15llm_tensor_infoEENS_19__map_value_compareIS2_S4_NS_4lessIS2_EELb1EEENS_9allocatorIS4_EEE12__find_equalIS2_EERPNS_16__tree_node_baseIPvEENS_21__tree_const_iteratorIS4_PNS_11__tree_nodeIS4_SE_EElEERPNS_15__tree_end_nodeISG_EESH_RKT_, symObjAddr: 0x1F04, symBinAddr: 0x7F34, symSize: 0x1B0 }
  - { offset: 0x61BBC, size: 0x8, addend: 0x0, symName: __ZNSt3__16__treeINS_12__value_typeI10llm_tensor15llm_tensor_infoEENS_19__map_value_compareIS2_S4_NS_4lessIS2_EELb1EEENS_9allocatorIS4_EEE12__find_equalIS2_EERPNS_16__tree_node_baseIPvEENS_21__tree_const_iteratorIS4_PNS_11__tree_nodeIS4_SE_EElEERPNS_15__tree_end_nodeISG_EESH_RKT_, symObjAddr: 0x1F04, symBinAddr: 0x7F34, symSize: 0x1B0 }
  - { offset: 0x61BD8, size: 0x8, addend: 0x0, symName: __ZNSt3__16__treeINS_12__value_typeI10llm_tensor15llm_tensor_infoEENS_19__map_value_compareIS2_S4_NS_4lessIS2_EELb1EEENS_9allocatorIS4_EEE12__find_equalIS2_EERPNS_16__tree_node_baseIPvEENS_21__tree_const_iteratorIS4_PNS_11__tree_nodeIS4_SE_EElEERPNS_15__tree_end_nodeISG_EESH_RKT_, symObjAddr: 0x1F04, symBinAddr: 0x7F34, symSize: 0x1B0 }
  - { offset: 0x621C3, size: 0x8, addend: 0x0, symName: __GLOBAL__sub_I_llama_arch.cpp, symObjAddr: 0x4558, symBinAddr: 0x8128, symSize: 0x154 }
  - { offset: 0x73D9F, size: 0x8, addend: 0x0, symName: __ZNSt3__124__put_character_sequenceB8ne200100IcNS_11char_traitsIcEEEERNS_13basic_ostreamIT_T0_EES7_PKS4_m, symObjAddr: 0x59B8, symBinAddr: 0xD9E0, symSize: 0x170 }
  - { offset: 0x7B0F9, size: 0x8, addend: 0x0, symName: __ZNSt3__116__pad_and_outputB8ne200100IcNS_11char_traitsIcEEEENS_19ostreambuf_iteratorIT_T0_EES6_PKS4_S8_S8_RNS_8ios_baseES4_, symObjAddr: 0x5B28, symBinAddr: 0xDB50, symSize: 0x1A4 }
  - { offset: 0x7F759, size: 0x8, addend: 0x0, symName: __ZN18llama_batch_allocrC2Ej, symObjAddr: 0x0, symBinAddr: 0x827C, symSize: 0x2D0 }
  - { offset: 0x80539, size: 0x8, addend: 0x0, symName: __ZNSt3__16vectorINS_3setIiNS_4lessIiEENS_9allocatorIiEEEENS4_IS6_EEE8__appendEm, symObjAddr: 0x4940, symBinAddr: 0xCBAC, symSize: 0x224 }
  - { offset: 0x80BDD, size: 0x8, addend: 0x0, symName: __ZNSt3__16vectorINS_3setIiNS_4lessIiEENS_9allocatorIiEEEENS4_IS6_EEE20__throw_length_errorB8ne200100Ev, symObjAddr: 0x4B64, symBinAddr: 0xCDD0, symSize: 0x14 }
  - { offset: 0x80BE8, size: 0x8, addend: 0x0, symName: __ZNSt3__16vectorINS0_IbNS_9allocatorIbEEEENS1_IS3_EEE8__appendEm, symObjAddr: 0x4C14, symBinAddr: 0xCDE4, symSize: 0x1CC }
  - { offset: 0x8124B, size: 0x8, addend: 0x0, symName: __ZNSt3__16vectorINS0_IbNS_9allocatorIbEEEENS1_IS3_EEE20__throw_length_errorB8ne200100Ev, symObjAddr: 0x4DE0, symBinAddr: 0xCFB0, symSize: 0x14 }
  - { offset: 0x81256, size: 0x8, addend: 0x0, symName: __ZNSt3__16vectorIbNS_9allocatorIbEEE6resizeEmb, symObjAddr: 0x2D0, symBinAddr: 0x854C, symSize: 0x264 }
  - { offset: 0x81A3A, size: 0x8, addend: 0x0, symName: __ZNSt3__16vectorIiNS_9allocatorIiEEE8__appendEmRKi, symObjAddr: 0x4F10, symBinAddr: 0xD0E0, symSize: 0x234 }
  - { offset: 0x81E8F, size: 0x8, addend: 0x0, symName: __ZNSt3__113unordered_mapINS_6bitsetILm256EEENS_6vectorIiNS_9allocatorIiEEEENS_4hashIS2_EENS_8equal_toIS2_EENS4_INS_4pairIKS2_S6_EEEEED1B8ne200100Ev, symObjAddr: 0x534, symBinAddr: 0x87B0, symSize: 0x68 }
  - { offset: 0x822B3, size: 0x8, addend: 0x0, symName: __ZNSt3__16vectorINS0_IbNS_9allocatorIbEEEENS1_IS3_EEED1B8ne200100Ev, symObjAddr: 0x59C, symBinAddr: 0x8818, symSize: 0x68 }
  - { offset: 0x82521, size: 0x8, addend: 0x0, symName: __ZNSt3__16vectorINS_3setIiNS_4lessIiEENS_9allocatorIiEEEENS4_IS6_EEED1B8ne200100Ev, symObjAddr: 0x604, symBinAddr: 0x8880, symSize: 0x68 }
  - { offset: 0x8294E, size: 0x8, addend: 0x0, symName: __ZNSt3__16vectorIbNS_9allocatorIbEEE7reserveEm, symObjAddr: 0x4DF4, symBinAddr: 0xCFC4, symSize: 0x108 }
  - { offset: 0x82D63, size: 0x8, addend: 0x0, symName: __ZNSt3__16vectorIbNS_9allocatorIbEEE20__throw_length_errorB8ne200100Ev, symObjAddr: 0x4EFC, symBinAddr: 0xD0CC, symSize: 0x14 }
  - { offset: 0x82D6E, size: 0x8, addend: 0x0, symName: __ZNSt3__16vectorIbNS_9allocatorIbEEE20__throw_length_errorB8ne200100Ev, symObjAddr: 0x4EFC, symBinAddr: 0xD0CC, symSize: 0x14 }
  - { offset: 0x82D86, size: 0x8, addend: 0x0, symName: __ZNSt3__16vectorIiNS_9allocatorIiEEE8__appendEmRKi, symObjAddr: 0x4F10, symBinAddr: 0xD0E0, symSize: 0x234 }
  - { offset: 0x83281, size: 0x8, addend: 0x0, symName: __ZNSt3__16__treeIiNS_4lessIiEENS_9allocatorIiEEE7destroyEPNS_11__tree_nodeIiPvEE, symObjAddr: 0x48FC, symBinAddr: 0xCB68, symSize: 0x44 }
  - { offset: 0x83398, size: 0x8, addend: 0x0, symName: __ZN18llama_batch_allocrC1Ej, symObjAddr: 0x66C, symBinAddr: 0x88E8, symSize: 0x4 }
  - { offset: 0x833D4, size: 0x8, addend: 0x0, symName: __ZN18llama_batch_allocrC1Ej, symObjAddr: 0x66C, symBinAddr: 0x88E8, symSize: 0x4 }
  - { offset: 0x84B2E, size: 0x8, addend: 0x0, symName: __ZN18llama_batch_allocr4initERK11llama_batchRK11llama_vocabPK14llama_memory_ijjb, symObjAddr: 0x670, symBinAddr: 0x88EC, symSize: 0x18C0 }
  - { offset: 0x887B6, size: 0x8, addend: 0x0, symName: __ZN18llama_batch_allocr5clearEv, symObjAddr: 0x1F30, symBinAddr: 0xA1AC, symSize: 0x194 }
  - { offset: 0x89375, size: 0x8, addend: 0x0, symName: __ZNSt3__16vectorIPiNS_9allocatorIS1_EEE8__appendEm, symObjAddr: 0x5278, symBinAddr: 0xD314, symSize: 0x120 }
  - { offset: 0x89380, size: 0x8, addend: 0x0, symName: __ZNSt3__16vectorIPiNS_9allocatorIS1_EEE8__appendEm, symObjAddr: 0x5278, symBinAddr: 0xD314, symSize: 0x120 }
  - { offset: 0x8975E, size: 0x8, addend: 0x0, symName: __ZNSt3__16vectorIPiNS_9allocatorIS1_EEE20__throw_length_errorB8ne200100Ev, symObjAddr: 0x5398, symBinAddr: 0xD434, symSize: 0x14 }
  - { offset: 0x8977B, size: 0x8, addend: 0x0, symName: __ZNSt3__112__hash_tableINS_17__hash_value_typeINS_6bitsetILm256EEENS_6vectorIiNS_9allocatorIiEEEEEENS_22__unordered_map_hasherIS3_S8_NS_4hashIS3_EENS_8equal_toIS3_EELb1EEENS_21__unordered_map_equalIS3_S8_SD_SB_Lb1EEENS5_IS8_EEE25__emplace_unique_key_argsIS3_JRKNS_21piecewise_construct_tENS_5tupleIJRKS3_EEENSN_IJEEEEEENS_4pairINS_15__hash_iteratorIPNS_11__hash_nodeIS8_PvEEEEbEERKT_DpOT0_, symObjAddr: 0x5448, symBinAddr: 0xD470, symSize: 0x390 }
  - { offset: 0x89F95, size: 0x8, addend: 0x0, symName: __ZN18llama_batch_allocr12ubatch_printERK12llama_ubatchi, symObjAddr: 0x21B0, symBinAddr: 0xA42C, symSize: 0x9A4 }
  - { offset: 0x8B34F, size: 0x8, addend: 0x0, symName: __ZNSt3__118basic_stringstreamIcNS_11char_traitsIcEENS_9allocatorIcEEEC1B8ne200100Ev, symObjAddr: 0x2B54, symBinAddr: 0xADD0, symSize: 0x194 }
  - { offset: 0x8B6BA, size: 0x8, addend: 0x0, symName: __ZNSt3__16vectorINS_6bitsetILm256EEENS_9allocatorIS2_EEE20__throw_length_errorB8ne200100Ev, symObjAddr: 0x5434, symBinAddr: 0xD45C, symSize: 0x14 }
  - { offset: 0x8B6D2, size: 0x8, addend: 0x0, symName: __ZNSt3__112__hash_tableINS_17__hash_value_typeINS_6bitsetILm256EEENS_6vectorIiNS_9allocatorIiEEEEEENS_22__unordered_map_hasherIS3_S8_NS_4hashIS3_EENS_8equal_toIS3_EELb1EEENS_21__unordered_map_equalIS3_S8_SD_SB_Lb1EEENS5_IS8_EEE25__emplace_unique_key_argsIS3_JRKNS_21piecewise_construct_tENS_5tupleIJRKS3_EEENSN_IJEEEEEENS_4pairINS_15__hash_iteratorIPNS_11__hash_nodeIS8_PvEEEEbEERKT_DpOT0_, symObjAddr: 0x5448, symBinAddr: 0xD470, symSize: 0x390 }
  - { offset: 0x8B6F7, size: 0x8, addend: 0x0, symName: __ZNSt3__16vectorIaNS_9allocatorIaEEE20__throw_length_errorB8ne200100Ev, symObjAddr: 0x53AC, symBinAddr: 0xD448, symSize: 0x14 }
  - { offset: 0x8B720, size: 0x8, addend: 0x0, symName: __ZN12llama_ubatchD1Ev, symObjAddr: 0x2DE8, symBinAddr: 0xB064, symSize: 0x5C }
  - { offset: 0x8B7EC, size: 0x8, addend: 0x0, symName: __ZNSt3__118basic_stringstreamIcNS_11char_traitsIcEENS_9allocatorIcEEED1Ev, symObjAddr: 0x2D60, symBinAddr: 0xAFDC, symSize: 0x88 }
  - { offset: 0x8BA8B, size: 0x8, addend: 0x0, symName: __ZNSt3__16vectorIiNS_9allocatorIiEEE9push_backB8ne200100ERKi, symObjAddr: 0x20C4, symBinAddr: 0xA340, symSize: 0xEC }
  - { offset: 0x8BE90, size: 0x8, addend: 0x0, symName: __ZN18llama_batch_allocr12ubatch_printERK12llama_ubatchi, symObjAddr: 0x21B0, symBinAddr: 0xA42C, symSize: 0x9A4 }
  - { offset: 0x8C27D, size: 0x8, addend: 0x0, symName: __ZNK18llama_batch_allocr11seq_pos_minEi, symObjAddr: 0x2CE8, symBinAddr: 0xAF64, symSize: 0x28 }
  - { offset: 0x8C2A8, size: 0x8, addend: 0x0, symName: __ZNK18llama_batch_allocr11seq_pos_minEi, symObjAddr: 0x2CE8, symBinAddr: 0xAF64, symSize: 0x28 }
  - { offset: 0x8C31D, size: 0x8, addend: 0x0, symName: __ZNK18llama_batch_allocr11seq_pos_maxEi, symObjAddr: 0x2D10, symBinAddr: 0xAF8C, symSize: 0x50 }
  - { offset: 0x8C348, size: 0x8, addend: 0x0, symName: __ZNK18llama_batch_allocr11seq_pos_maxEi, symObjAddr: 0x2D10, symBinAddr: 0xAF8C, symSize: 0x50 }
  - { offset: 0x8C4B8, size: 0x8, addend: 0x0, symName: __ZN18llama_batch_allocr11split_resetEv, symObjAddr: 0x2E44, symBinAddr: 0xB0C0, symSize: 0x20 }
  - { offset: 0x8C4DC, size: 0x8, addend: 0x0, symName: __ZN18llama_batch_allocr11split_resetEv, symObjAddr: 0x2E44, symBinAddr: 0xB0C0, symSize: 0x20 }
  - { offset: 0x8C4FB, size: 0x8, addend: 0x0, symName: __ZN18llama_batch_allocr11split_resetEv, symObjAddr: 0x2E44, symBinAddr: 0xB0C0, symSize: 0x20 }
  - { offset: 0x8C9CE, size: 0x8, addend: 0x0, symName: __ZN18llama_batch_allocr14ubatch_reserveEjj, symObjAddr: 0x2E64, symBinAddr: 0xB0E0, symSize: 0x458 }
  - { offset: 0x8DB15, size: 0x8, addend: 0x0, symName: __ZNSt3__110shared_ptrIN12llama_ubatch6data_tEED1B8ne200100Ev, symObjAddr: 0x32BC, symBinAddr: 0xB538, symSize: 0x5C }
  - { offset: 0x8DBAA, size: 0x8, addend: 0x0, symName: __ZNK18llama_batch_allocr9get_batchEv, symObjAddr: 0x3318, symBinAddr: 0xB594, symSize: 0x4 }
  - { offset: 0x8DBD2, size: 0x8, addend: 0x0, symName: __ZNK18llama_batch_allocr12get_n_tokensEv, symObjAddr: 0x331C, symBinAddr: 0xB598, symSize: 0x8 }
  - { offset: 0x8DBF4, size: 0x8, addend: 0x0, symName: __ZNK18llama_batch_allocr13get_n_outputsEv, symObjAddr: 0x3324, symBinAddr: 0xB5A0, symSize: 0x8 }
  - { offset: 0x8DC1E, size: 0x8, addend: 0x0, symName: __ZNK18llama_batch_allocr10get_n_usedEv, symObjAddr: 0x332C, symBinAddr: 0xB5A8, symSize: 0x8 }
  - { offset: 0x8DC48, size: 0x8, addend: 0x0, symName: __ZN18llama_batch_allocr11get_out_idsEv, symObjAddr: 0x3334, symBinAddr: 0xB5B0, symSize: 0x8 }
  - { offset: 0x8DC72, size: 0x8, addend: 0x0, symName: __ZN18llama_batch_allocr12split_simpleEj, symObjAddr: 0x333C, symBinAddr: 0xB5B8, symSize: 0x200 }
  - { offset: 0x8E3D6, size: 0x8, addend: 0x0, symName: __ZN18llama_batch_allocr10ubatch_addERKNSt3__16vectorIiNS0_9allocatorIiEEEEjb, symObjAddr: 0x353C, symBinAddr: 0xB7B8, symSize: 0x8A0 }
  - { offset: 0x900F7, size: 0x8, addend: 0x0, symName: __ZNSt3__16vectorIfNS_9allocatorIfEEE8__appendEm, symObjAddr: 0x6254, symBinAddr: 0xE268, symSize: 0x120 }
  - { offset: 0x904D5, size: 0x8, addend: 0x0, symName: __ZNSt3__16vectorIfNS_9allocatorIfEEE20__throw_length_errorB8ne200100Ev, symObjAddr: 0x6374, symBinAddr: 0xE388, symSize: 0x14 }
  - { offset: 0x909E9, size: 0x8, addend: 0x0, symName: __ZN18llama_batch_allocr11split_equalEjb, symObjAddr: 0x3DDC, symBinAddr: 0xC058, symSize: 0x678 }
  - { offset: 0x92346, size: 0x8, addend: 0x0, symName: __ZNSt3__16vectorIiNS_9allocatorIiEEE18__insert_with_sizeB8ne200100INS_11__wrap_iterIPiEES7_EES7_NS5_IPKiEET_T0_l, symObjAddr: 0x5E58, symBinAddr: 0xDE6C, symSize: 0x3FC }
  - { offset: 0x92E18, size: 0x8, addend: 0x0, symName: __ZNSt3__16vectorIfNS_9allocatorIfEEE8__appendEm, symObjAddr: 0x6254, symBinAddr: 0xE268, symSize: 0x120 }
  - { offset: 0x92E35, size: 0x8, addend: 0x0, symName: __ZNSt3__128__exception_guard_exceptionsINS_6vectorINS1_IiNS_9allocatorIiEEEENS2_IS4_EEE16__destroy_vectorEED1B8ne200100Ev, symObjAddr: 0x5DD4, symBinAddr: 0xDDE8, symSize: 0x84 }
  - { offset: 0x930C2, size: 0x8, addend: 0x0, symName: __ZNSt3__16vectorINS0_IiNS_9allocatorIiEEEENS1_IS3_EEED1B8ne200100Ev, symObjAddr: 0x4454, symBinAddr: 0xC6D0, symSize: 0x74 }
  - { offset: 0x93389, size: 0x8, addend: 0x0, symName: __ZN18llama_batch_allocr9split_seqEj, symObjAddr: 0x44C8, symBinAddr: 0xC744, symSize: 0x2A8 }
  - { offset: 0x93CA3, size: 0x8, addend: 0x0, symName: _llama_batch_get_one, symObjAddr: 0x4770, symBinAddr: 0xC9EC, symSize: 0x1C }
  - { offset: 0x93CDB, size: 0x8, addend: 0x0, symName: _llama_batch_init, symObjAddr: 0x478C, symBinAddr: 0xCA08, symSize: 0xD0 }
  - { offset: 0x93DD4, size: 0x8, addend: 0x0, symName: _llama_batch_free, symObjAddr: 0x485C, symBinAddr: 0xCAD8, symSize: 0x90 }
  - { offset: 0x943A3, size: 0x8, addend: 0x0, symName: __ZNSt3__16vectorINS_3setIiNS_4lessIiEENS_9allocatorIiEEEENS4_IS6_EEE20__throw_length_errorB8ne200100Ev, symObjAddr: 0x4B64, symBinAddr: 0xCDD0, symSize: 0x14 }
  - { offset: 0x947AE, size: 0x8, addend: 0x0, symName: __ZNSt3__16vectorINS0_IbNS_9allocatorIbEEEENS1_IS3_EEE20__throw_length_errorB8ne200100Ev, symObjAddr: 0x4DE0, symBinAddr: 0xCFB0, symSize: 0x14 }
  - { offset: 0x947C6, size: 0x8, addend: 0x0, symName: __ZNSt3__16vectorIbNS_9allocatorIbEEE7reserveEm, symObjAddr: 0x4DF4, symBinAddr: 0xCFC4, symSize: 0x108 }
  - { offset: 0x94DD1, size: 0x8, addend: 0x0, symName: __ZNSt3__16vectorIPiNS_9allocatorIS1_EEE20__throw_length_errorB8ne200100Ev, symObjAddr: 0x5398, symBinAddr: 0xD434, symSize: 0x14 }
  - { offset: 0x94DE9, size: 0x8, addend: 0x0, symName: __ZNSt3__16vectorIaNS_9allocatorIaEEE20__throw_length_errorB8ne200100Ev, symObjAddr: 0x53AC, symBinAddr: 0xD448, symSize: 0x14 }
  - { offset: 0x95405, size: 0x8, addend: 0x0, symName: __ZNSt3__112__hash_tableINS_17__hash_value_typeINS_6bitsetILm256EEENS_6vectorIiNS_9allocatorIiEEEEEENS_22__unordered_map_hasherIS3_S8_NS_4hashIS3_EENS_8equal_toIS3_EELb1EEENS_21__unordered_map_equalIS3_S8_SD_SB_Lb1EEENS5_IS8_EEE11__do_rehashILb1EEEvm, symObjAddr: 0x5838, symBinAddr: 0xD860, symSize: 0x180 }
  - { offset: 0x95792, size: 0x8, addend: 0x0, symName: __ZNSt3__124__put_character_sequenceB8ne200100IcNS_11char_traitsIcEEEERNS_13basic_ostreamIT_T0_EES7_PKS4_m, symObjAddr: 0x59B8, symBinAddr: 0xD9E0, symSize: 0x170 }
  - { offset: 0x957A7, size: 0x8, addend: 0x0, symName: __ZNSt3__110unique_ptrINS_11__hash_nodeINS_17__hash_value_typeINS_6bitsetILm256EEENS_6vectorIiNS_9allocatorIiEEEEEEPvEENS_22__hash_node_destructorINS6_ISB_EEEEED1B8ne200100Ev, symObjAddr: 0x57D8, symBinAddr: 0xD800, symSize: 0x60 }
  - { offset: 0x95FDB, size: 0x8, addend: 0x0, symName: __ZNSt3__120__shared_ptr_emplaceIN12llama_ubatch6data_tENS_9allocatorIS2_EEED1Ev, symObjAddr: 0x5CE0, symBinAddr: 0xDCF4, symSize: 0x14 }
  - { offset: 0x96002, size: 0x8, addend: 0x0, symName: __ZNSt3__120__shared_ptr_emplaceIN12llama_ubatch6data_tENS_9allocatorIS2_EEED1Ev, symObjAddr: 0x5CE0, symBinAddr: 0xDCF4, symSize: 0x14 }
  - { offset: 0x96024, size: 0x8, addend: 0x0, symName: __ZNSt3__120__shared_ptr_emplaceIN12llama_ubatch6data_tENS_9allocatorIS2_EEED1Ev, symObjAddr: 0x5CE0, symBinAddr: 0xDCF4, symSize: 0x14 }
  - { offset: 0x9605A, size: 0x8, addend: 0x0, symName: __ZNSt3__120__shared_ptr_emplaceIN12llama_ubatch6data_tENS_9allocatorIS2_EEED0Ev, symObjAddr: 0x5CF4, symBinAddr: 0xDD08, symSize: 0x24 }
  - { offset: 0x9617A, size: 0x8, addend: 0x0, symName: __ZNSt3__120__shared_ptr_emplaceIN12llama_ubatch6data_tENS_9allocatorIS2_EEE16__on_zero_sharedEv, symObjAddr: 0x5D18, symBinAddr: 0xDD2C, symSize: 0x8 }
  - { offset: 0x961A3, size: 0x8, addend: 0x0, symName: __ZNSt3__120__shared_ptr_emplaceIN12llama_ubatch6data_tENS_9allocatorIS2_EEE16__on_zero_sharedEv, symObjAddr: 0x5D18, symBinAddr: 0xDD2C, symSize: 0x8 }
  - { offset: 0x961C7, size: 0x8, addend: 0x0, symName: __ZNSt3__120__shared_ptr_emplaceIN12llama_ubatch6data_tENS_9allocatorIS2_EEE16__on_zero_sharedEv, symObjAddr: 0x5D18, symBinAddr: 0xDD2C, symSize: 0x8 }
  - { offset: 0x96230, size: 0x8, addend: 0x0, symName: __ZN12llama_ubatch6data_tD2Ev, symObjAddr: 0x5D24, symBinAddr: 0xDD38, symSize: 0xB0 }
  - { offset: 0x96D20, size: 0x8, addend: 0x0, symName: __ZNSt3__120__shared_ptr_emplaceIN12llama_ubatch6data_tENS_9allocatorIS2_EEE21__on_zero_shared_weakEv, symObjAddr: 0x5D20, symBinAddr: 0xDD34, symSize: 0x4 }
  - { offset: 0x96D54, size: 0x8, addend: 0x0, symName: __ZNSt3__120__shared_ptr_emplaceIN12llama_ubatch6data_tENS_9allocatorIS2_EEE21__on_zero_shared_weakEv, symObjAddr: 0x5D20, symBinAddr: 0xDD34, symSize: 0x4 }
  - { offset: 0x96D76, size: 0x8, addend: 0x0, symName: __ZNSt3__120__shared_ptr_emplaceIN12llama_ubatch6data_tENS_9allocatorIS2_EEE21__on_zero_shared_weakEv, symObjAddr: 0x5D20, symBinAddr: 0xDD34, symSize: 0x4 }
  - { offset: 0x96D99, size: 0x8, addend: 0x0, symName: __ZNSt3__120__shared_ptr_emplaceIN12llama_ubatch6data_tENS_9allocatorIS2_EEE21__on_zero_shared_weakEv, symObjAddr: 0x5D20, symBinAddr: 0xDD34, symSize: 0x4 }
  - { offset: 0x96DCE, size: 0x8, addend: 0x0, symName: __ZNSt3__120__shared_ptr_emplaceIN12llama_ubatch6data_tENS_9allocatorIS2_EEE21__on_zero_shared_weakEv, symObjAddr: 0x5D20, symBinAddr: 0xDD34, symSize: 0x4 }
  - { offset: 0x97445, size: 0x8, addend: 0x0, symName: __ZNSt3__16vectorIfNS_9allocatorIfEEE20__throw_length_errorB8ne200100Ev, symObjAddr: 0x6374, symBinAddr: 0xE388, symSize: 0x14 }
  - { offset: 0x99352, size: 0x8, addend: 0x0, symName: __ZL18LLM_CHAT_TEMPLATES, symObjAddr: 0x87F60, symBinAddr: 0x371DF0, symSize: 0x0 }
  - { offset: 0xA1132, size: 0x8, addend: 0x0, symName: __ZNSt3__1eqB8ne200100IcNS_11char_traitsIcEENS_9allocatorIcEEEEbRKNS_12basic_stringIT_T0_T1_EEPKS6_, symObjAddr: 0x612C, symBinAddr: 0x14290, symSize: 0x88 }
  - { offset: 0xA12D2, size: 0x8, addend: 0x0, symName: __ZNSt3__1neB8ne200100IcNS_11char_traitsIcEENS_9allocatorIcEEEEbRKNS_12basic_stringIT_T0_T1_EEPKS6_, symObjAddr: 0x6374, symBinAddr: 0x144D8, symSize: 0x88 }
  - { offset: 0xA35B4, size: 0x8, addend: 0x0, symName: __ZNSt3__13mapINS_12basic_stringIcNS_11char_traitsIcEENS_9allocatorIcEEEE17llm_chat_templateNS_4lessIS6_EENS4_INS_4pairIKS6_S7_EEEEED1B8ne200100Ev, symObjAddr: 0x0, symBinAddr: 0xE39C, symSize: 0x28 }
  - { offset: 0xA3668, size: 0x8, addend: 0x0, symName: __ZNSt3__16__treeINS_12__value_typeINS_12basic_stringIcNS_11char_traitsIcEENS_9allocatorIcEEEE17llm_chat_templateEENS_19__map_value_compareIS7_S9_NS_4lessIS7_EELb1EEENS5_IS9_EEE7destroyEPNS_11__tree_nodeIS9_PvEE, symObjAddr: 0x6D34, symBinAddr: 0x14B44, symSize: 0x60 }
  - { offset: 0xA3B16, size: 0x8, addend: 0x0, symName: __Z26llm_chat_template_from_strRKNSt3__112basic_stringIcNS_11char_traitsIcEENS_9allocatorIcEEEE, symObjAddr: 0x28, symBinAddr: 0xE3C4, symSize: 0xF0 }
  - { offset: 0xA3E50, size: 0x8, addend: 0x0, symName: __Z24llm_chat_detect_templateRKNSt3__112basic_stringIcNS_11char_traitsIcEENS_9allocatorIcEEEE, symObjAddr: 0x118, symBinAddr: 0xE4B4, symSize: 0x920 }
  - { offset: 0xA44F8, size: 0x8, addend: 0x0, symName: '__ZZ24llm_chat_detect_templateRKNSt3__112basic_stringIcNS_11char_traitsIcEENS_9allocatorIcEEEEENK3$_0clEPKc', symObjAddr: 0xA38, symBinAddr: 0xEDD4, symSize: 0xD8 }
  - { offset: 0xA4755, size: 0x8, addend: 0x0, symName: __ZNKSt3__112basic_stringIcNS_11char_traitsIcEENS_9allocatorIcEEE4findB8ne200100EPKcm, symObjAddr: 0xB10, symBinAddr: 0xEEAC, symSize: 0xEC }
  - { offset: 0xA5142, size: 0x8, addend: 0x0, symName: __Z23llm_chat_apply_template17llm_chat_templateRKNSt3__16vectorIPK18llama_chat_messageNS0_9allocatorIS4_EEEERNS0_12basic_stringIcNS0_11char_traitsIcEENS5_IcEEEEb, symObjAddr: 0xBFC, symBinAddr: 0xEF98, symSize: 0x52F8 }
  - { offset: 0xB66A9, size: 0x8, addend: 0x0, symName: __ZL4trimRKNSt3__112basic_stringIcNS_11char_traitsIcEENS_9allocatorIcEEEE, symObjAddr: 0x61B4, symBinAddr: 0x14318, symSize: 0x1C0 }
  - { offset: 0xB6AD9, size: 0x8, addend: 0x0, symName: __ZNSt3__1neB8ne200100IcNS_11char_traitsIcEENS_9allocatorIcEEEEbRKNS_12basic_stringIT_T0_T1_EEPKS6_, symObjAddr: 0x6374, symBinAddr: 0x144D8, symSize: 0x88 }
  - { offset: 0xB6D97, size: 0x8, addend: 0x0, symName: __ZNSt3__1eqB8ne200100IcNS_11char_traitsIcEENS_9allocatorIcEEEEbRKNS_12basic_stringIT_T0_T1_EEPKS6_, symObjAddr: 0x612C, symBinAddr: 0x14290, symSize: 0x88 }
  - { offset: 0xB7322, size: 0x8, addend: 0x0, symName: _llama_chat_builtin_templates, symObjAddr: 0x6484, symBinAddr: 0x14560, symSize: 0x90 }
  - { offset: 0xB782D, size: 0x8, addend: 0x0, symName: __ZNSt3__16__treeINS_12__value_typeINS_12basic_stringIcNS_11char_traitsIcEENS_9allocatorIcEEEE17llm_chat_templateEENS_19__map_value_compareIS7_S9_NS_4lessIS7_EELb1EEENS5_IS9_EEE30__emplace_hint_unique_key_argsIS7_JRKNS_4pairIKS7_S8_EEEEENSH_INS_15__tree_iteratorIS9_PNS_11__tree_nodeIS9_PvEElEEbEENS_21__tree_const_iteratorIS9_SQ_lEERKT_DpOT0_, symObjAddr: 0x6634, symBinAddr: 0x145F0, symSize: 0xFC }
  - { offset: 0xB7BBA, size: 0x8, addend: 0x0, symName: __ZNSt3__16__treeINS_12__value_typeINS_12basic_stringIcNS_11char_traitsIcEENS_9allocatorIcEEEE17llm_chat_templateEENS_19__map_value_compareIS7_S9_NS_4lessIS7_EELb1EEENS5_IS9_EEE12__find_equalIS7_EERPNS_16__tree_node_baseIPvEENS_21__tree_const_iteratorIS9_PNS_11__tree_nodeIS9_SI_EElEERPNS_15__tree_end_nodeISK_EESL_RKT_, symObjAddr: 0x6730, symBinAddr: 0x146EC, symSize: 0x3F8 }
  - { offset: 0xB8882, size: 0x8, addend: 0x0, symName: __ZNSt3__110unique_ptrINS_11__tree_nodeINS_12__value_typeINS_12basic_stringIcNS_11char_traitsIcEENS_9allocatorIcEEEE17llm_chat_templateEEPvEENS_22__tree_node_destructorINS6_ISC_EEEEED1B8ne200100Ev, symObjAddr: 0x6B28, symBinAddr: 0x14AE4, symSize: 0x60 }
  - { offset: 0xB9987, size: 0x8, addend: 0x0, symName: __GLOBAL__sub_I_llama_chat.cpp, symObjAddr: 0x7944, symBinAddr: 0x14BA4, symSize: 0x8A8 }
  - { offset: 0xEC0F7, size: 0x8, addend: 0x0, symName: __ZNSt3__119piecewise_constructE, symObjAddr: 0x13118, symBinAddr: 0x2AD9E8, symSize: 0x0 }
  - { offset: 0xF3365, size: 0x8, addend: 0x0, symName: __ZNSt3__113__tree_removeB8ne200100IPNS_16__tree_node_baseIPvEEEEvT_S5_, symObjAddr: 0xE6FC, symBinAddr: 0x236AC, symSize: 0x3B4 }
  - { offset: 0xFE887, size: 0x8, addend: 0x0, symName: __ZN13llama_contextC2ERK11llama_model20llama_context_params, symObjAddr: 0x0, symBinAddr: 0x1544C, symSize: 0x16EC }
  - { offset: 0x102966, size: 0x8, addend: 0x0, symName: __ZNK13llama_context12graph_get_cbEv, symObjAddr: 0x7B14, symBinAddr: 0x1CEC0, symSize: 0x14 }
  - { offset: 0x1029C1, size: 0x8, addend: 0x0, symName: __ZNK13llama_context12graph_get_cbEv, symObjAddr: 0x7B14, symBinAddr: 0x1CEC0, symSize: 0x14 }
  - { offset: 0x1029E4, size: 0x8, addend: 0x0, symName: __ZNK13llama_context12graph_get_cbEv, symObjAddr: 0x7B14, symBinAddr: 0x1CEC0, symSize: 0x14 }
  - { offset: 0x102A07, size: 0x8, addend: 0x0, symName: __ZNK13llama_context12graph_get_cbEv, symObjAddr: 0x7B14, symBinAddr: 0x1CEC0, symSize: 0x14 }
  - { offset: 0x102A23, size: 0x8, addend: 0x0, symName: __ZNK13llama_context12graph_get_cbEv, symObjAddr: 0x7B14, symBinAddr: 0x1CEC0, symSize: 0x14 }
  - { offset: 0x102A3F, size: 0x8, addend: 0x0, symName: __ZNK13llama_context12graph_get_cbEv, symObjAddr: 0x7B14, symBinAddr: 0x1CEC0, symSize: 0x14 }
  - { offset: 0x102A58, size: 0x8, addend: 0x0, symName: __ZNK13llama_context12graph_get_cbEv, symObjAddr: 0x7B14, symBinAddr: 0x1CEC0, symSize: 0x14 }
  - { offset: 0x102A70, size: 0x8, addend: 0x0, symName: __ZNK13llama_context12graph_get_cbEv, symObjAddr: 0x7B14, symBinAddr: 0x1CEC0, symSize: 0x14 }
  - { offset: 0x102A8C, size: 0x8, addend: 0x0, symName: __ZNK13llama_context12graph_get_cbEv, symObjAddr: 0x7B14, symBinAddr: 0x1CEC0, symSize: 0x14 }
  - { offset: 0x104F18, size: 0x8, addend: 0x0, symName: __ZN13llama_context11set_samplerEiP13llama_sampler, symObjAddr: 0x16EC, symBinAddr: 0x16B38, symSize: 0x34C }
  - { offset: 0x105A73, size: 0x8, addend: 0x0, symName: __ZN13llama_context14output_reserveEi, symObjAddr: 0x1AE8, symBinAddr: 0x16F34, symSize: 0x364 }
  - { offset: 0x106330, size: 0x8, addend: 0x0, symName: __ZN13llama_context13sched_reserveEv, symObjAddr: 0x1E4C, symBinAddr: 0x17298, symSize: 0x8D0 }
  - { offset: 0x10766A, size: 0x8, addend: 0x0, symName: __ZNSt3__16vectorINS_10unique_ptrI12ggml_backend20ggml_backend_deleterEENS_9allocatorIS4_EEE20__throw_length_errorB8ne200100Ev, symObjAddr: 0xE550, symBinAddr: 0x2365C, symSize: 0x14 }
  - { offset: 0x107682, size: 0x8, addend: 0x0, symName: __ZNSt3__16vectorINS_4pairIP12ggml_backendPFvS3_iEEENS_9allocatorIS6_EEE20__throw_length_errorB8ne200100Ev, symObjAddr: 0xE564, symBinAddr: 0x23670, symSize: 0x14 }
  - { offset: 0x10768D, size: 0x8, addend: 0x0, symName: __ZNSt3__16vectorIP12ggml_backendNS_9allocatorIS2_EEE20__throw_length_errorB8ne200100Ev, symObjAddr: 0xE58C, symBinAddr: 0x23684, symSize: 0x14 }
  - { offset: 0x1076A5, size: 0x8, addend: 0x0, symName: __ZNSt3__16vectorImNS_9allocatorImEEE20__throw_length_errorB8ne200100Ev, symObjAddr: 0xE5A0, symBinAddr: 0x23698, symSize: 0x14 }
  - { offset: 0x1076B0, size: 0x8, addend: 0x0, symName: __ZNSt3__16vectorImNS_9allocatorImEEE20__throw_length_errorB8ne200100Ev, symObjAddr: 0xE5A0, symBinAddr: 0x23698, symSize: 0x14 }
  - { offset: 0x1076DD, size: 0x8, addend: 0x0, symName: __ZNSt3__16vectorIP12ggml_backendNS_9allocatorIS2_EEE20__throw_length_errorB8ne200100Ev, symObjAddr: 0xE58C, symBinAddr: 0x23684, symSize: 0x14 }
  - { offset: 0x1076E8, size: 0x8, addend: 0x0, symName: __ZNSt3__16vectorINS_4pairIP12ggml_backendPFvS3_iEEENS_9allocatorIS6_EEE20__throw_length_errorB8ne200100Ev, symObjAddr: 0xE564, symBinAddr: 0x23670, symSize: 0x14 }
  - { offset: 0x10776F, size: 0x8, addend: 0x0, symName: __ZNSt3__16vectorINS_10unique_ptrI12ggml_backend20ggml_backend_deleterEENS_9allocatorIS4_EEED1B8ne200100Ev, symObjAddr: 0x2750, symBinAddr: 0x17B68, symSize: 0x70 }
  - { offset: 0x10795D, size: 0x8, addend: 0x0, symName: __ZNSt3__110unique_ptrI18ggml_backend_sched26ggml_backend_sched_deleterED1B8ne200100Ev, symObjAddr: 0x27C0, symBinAddr: 0x17BD8, symSize: 0x34 }
  - { offset: 0x1079F1, size: 0x8, addend: 0x0, symName: __ZNSt3__110unique_ptrI18llama_batch_allocrNS_14default_deleteIS1_EEED1B8ne200100Ev, symObjAddr: 0x27F4, symBinAddr: 0x17C0C, symSize: 0x3C }
  - { offset: 0x107AB3, size: 0x8, addend: 0x0, symName: __ZNSt3__16__treeINS_12__value_typeIiNS_6vectorIfNS_9allocatorIfEEEEEENS_19__map_value_compareIiS6_NS_4lessIiEELb1EEENS3_IS6_EEE7destroyEPNS_11__tree_nodeIS6_PvEE, symObjAddr: 0xE500, symBinAddr: 0x2360C, symSize: 0x50 }
  - { offset: 0x107D69, size: 0x8, addend: 0x0, symName: __ZN13llama_context13sampling_infoD1Ev, symObjAddr: 0x2830, symBinAddr: 0x17C48, symSize: 0x6C }
  - { offset: 0x108303, size: 0x8, addend: 0x0, symName: __ZN11llama_crossD1Ev, symObjAddr: 0x289C, symBinAddr: 0x17CB4, symSize: 0x78 }
  - { offset: 0x10869A, size: 0x8, addend: 0x0, symName: __ZNSt3__113unordered_mapIP18llama_adapter_lorafNS_4hashIS2_EENS_8equal_toIS2_EENS_9allocatorINS_4pairIKS2_fEEEEED1B8ne200100Ev, symObjAddr: 0x2914, symBinAddr: 0x17D2C, symSize: 0x48 }
  - { offset: 0x10892E, size: 0x8, addend: 0x0, symName: __ZN18llama_adapter_cvecD2Ev, symObjAddr: 0xD9C0, symBinAddr: 0x22D28, symSize: 0xC8 }
  - { offset: 0x109543, size: 0x8, addend: 0x0, symName: _llama_set_abort_callback, symObjAddr: 0x1A38, symBinAddr: 0x16E84, symSize: 0xB0 }
  - { offset: 0x1098AD, size: 0x8, addend: 0x0, symName: __ZN13llama_context11synchronizeEv, symObjAddr: 0x2C84, symBinAddr: 0x1808C, symSize: 0xE4 }
  - { offset: 0x109972, size: 0x8, addend: 0x0, symName: __ZNSt3__16vectorIjNS_9allocatorIjEEE8__appendEm, symObjAddr: 0xF5A0, symBinAddr: 0x241E4, symSize: 0x120 }
  - { offset: 0x109D50, size: 0x8, addend: 0x0, symName: __ZNSt3__16vectorIjNS_9allocatorIjEEE20__throw_length_errorB8ne200100Ev, symObjAddr: 0xF6C0, symBinAddr: 0x24304, symSize: 0x14 }
  - { offset: 0x10A21D, size: 0x8, addend: 0x0, symName: __ZN13llama_context13graph_reserveEjjjPK22llama_memory_context_ibPm, symObjAddr: 0x2E08, symBinAddr: 0x18210, symSize: 0x534 }
  - { offset: 0x10AFC8, size: 0x8, addend: 0x0, symName: __ZNSt3__113__tree_removeB8ne200100IPNS_16__tree_node_baseIPvEEEEvT_S5_, symObjAddr: 0xE6FC, symBinAddr: 0x236AC, symSize: 0x3B4 }
  - { offset: 0x10B218, size: 0x8, addend: 0x0, symName: __ZN18llama_batch_allocrD2Ev, symObjAddr: 0xDC5C, symBinAddr: 0x22DF0, symSize: 0x174 }
  - { offset: 0x10C68A, size: 0x8, addend: 0x0, symName: __ZNSt3__16__treeINS_12__value_typeIiP13llama_samplerEENS_19__map_value_compareIiS4_NS_4lessIiEELb1EEENS_9allocatorIS4_EEE7destroyEPNS_11__tree_nodeIS4_PvEE, symObjAddr: 0xE4BC, symBinAddr: 0x235C8, symSize: 0x44 }
  - { offset: 0x10CD78, size: 0x8, addend: 0x0, symName: __ZN13llama_contextC1ERK11llama_model20llama_context_params, symObjAddr: 0x295C, symBinAddr: 0x17D74, symSize: 0x4 }
  - { offset: 0x10CDAA, size: 0x8, addend: 0x0, symName: __ZN13llama_contextC1ERK11llama_model20llama_context_params, symObjAddr: 0x295C, symBinAddr: 0x17D74, symSize: 0x4 }
  - { offset: 0x10CE86, size: 0x8, addend: 0x0, symName: __ZN13llama_contextD2Ev, symObjAddr: 0x2960, symBinAddr: 0x17D78, symSize: 0x310 }
  - { offset: 0x10E8AE, size: 0x8, addend: 0x0, symName: __ZN13llama_contextD1Ev, symObjAddr: 0x2C80, symBinAddr: 0x18088, symSize: 0x4 }
  - { offset: 0x10E8D1, size: 0x8, addend: 0x0, symName: __ZN13llama_contextD1Ev, symObjAddr: 0x2C80, symBinAddr: 0x18088, symSize: 0x4 }
  - { offset: 0x10E908, size: 0x8, addend: 0x0, symName: __ZNK13llama_context15graph_max_nodesEj, symObjAddr: 0x2D68, symBinAddr: 0x18170, symSize: 0xA0 }
  - { offset: 0x10F17B, size: 0x8, addend: 0x0, symName: __ZNSt3__13mapIiP13llama_samplerNS_4lessIiEENS_9allocatorINS_4pairIKiS2_EEEEE6insertB8ne200100INS_20__map_const_iteratorINS_21__tree_const_iteratorINS_12__value_typeIiS2_EEPNS_11__tree_nodeISF_PvEElEEEEEEvT_SM_, symObjAddr: 0xF6D4, symBinAddr: 0x24318, symSize: 0xF8 }
  - { offset: 0x10F1C1, size: 0x8, addend: 0x0, symName: __ZNSt3__13mapIiP13llama_samplerNS_4lessIiEENS_9allocatorINS_4pairIKiS2_EEEEE6insertB8ne200100INS_20__map_const_iteratorINS_21__tree_const_iteratorINS_12__value_typeIiS2_EEPNS_11__tree_nodeISF_PvEElEEEEEEvT_SM_, symObjAddr: 0xF6D4, symBinAddr: 0x24318, symSize: 0xF8 }
  - { offset: 0x10F59D, size: 0x8, addend: 0x0, symName: __ZN16llm_graph_paramsD1Ev, symObjAddr: 0x5458, symBinAddr: 0x1A860, symSize: 0xA0 }
  - { offset: 0x10F74F, size: 0x8, addend: 0x0, symName: __ZNK13llama_context9get_modelEv, symObjAddr: 0x333C, symBinAddr: 0x18744, symSize: 0x8 }
  - { offset: 0x10F771, size: 0x8, addend: 0x0, symName: __ZNK13llama_context11get_cparamsEv, symObjAddr: 0x3344, symBinAddr: 0x1874C, symSize: 0x8 }
  - { offset: 0x10F79B, size: 0x8, addend: 0x0, symName: __ZNK13llama_context9get_schedEv, symObjAddr: 0x334C, symBinAddr: 0x18754, symSize: 0x8 }
  - { offset: 0x10F7C7, size: 0x8, addend: 0x0, symName: __ZNK13llama_context9get_schedEv, symObjAddr: 0x334C, symBinAddr: 0x18754, symSize: 0x8 }
  - { offset: 0x10F7E5, size: 0x8, addend: 0x0, symName: __ZNK13llama_context5n_ctxEv, symObjAddr: 0x3354, symBinAddr: 0x1875C, symSize: 0x8 }
  - { offset: 0x10F807, size: 0x8, addend: 0x0, symName: __ZNK13llama_context9n_ctx_seqEv, symObjAddr: 0x335C, symBinAddr: 0x18764, symSize: 0x8 }
  - { offset: 0x10F829, size: 0x8, addend: 0x0, symName: __ZNK13llama_context7n_batchEv, symObjAddr: 0x3364, symBinAddr: 0x1876C, symSize: 0x8 }
  - { offset: 0x10F84B, size: 0x8, addend: 0x0, symName: __ZNK13llama_context8n_ubatchEv, symObjAddr: 0x336C, symBinAddr: 0x18774, symSize: 0x8 }
  - { offset: 0x10F86D, size: 0x8, addend: 0x0, symName: __ZNK13llama_context9n_seq_maxEv, symObjAddr: 0x3374, symBinAddr: 0x1877C, symSize: 0x8 }
  - { offset: 0x10F88F, size: 0x8, addend: 0x0, symName: __ZNK13llama_context9n_threadsEv, symObjAddr: 0x337C, symBinAddr: 0x18784, symSize: 0x8 }
  - { offset: 0x10F8B1, size: 0x8, addend: 0x0, symName: __ZNK13llama_context15n_threads_batchEv, symObjAddr: 0x3384, symBinAddr: 0x1878C, symSize: 0x8 }
  - { offset: 0x10F8E9, size: 0x8, addend: 0x0, symName: __ZNK13llama_context10get_memoryEv, symObjAddr: 0x338C, symBinAddr: 0x18794, symSize: 0x8 }
  - { offset: 0x10F90D, size: 0x8, addend: 0x0, symName: __ZNK13llama_context10get_memoryEv, symObjAddr: 0x338C, symBinAddr: 0x18794, symSize: 0x8 }
  - { offset: 0x10F95D, size: 0x8, addend: 0x0, symName: __ZN13llama_context13memory_updateEb, symObjAddr: 0x3394, symBinAddr: 0x1879C, symSize: 0x1FC }
  - { offset: 0x10FD4B, size: 0x8, addend: 0x0, symName: __ZNK13llama_context12pooling_typeEv, symObjAddr: 0x3590, symBinAddr: 0x18998, symSize: 0x8 }
  - { offset: 0x10FD6D, size: 0x8, addend: 0x0, symName: __ZN13llama_context10get_logitsEv, symObjAddr: 0x3598, symBinAddr: 0x189A0, symSize: 0x24 }
  - { offset: 0x10FDA4, size: 0x8, addend: 0x0, symName: __ZN13llama_context14output_reorderEv, symObjAddr: 0x35BC, symBinAddr: 0x189C4, symSize: 0x524 }
  - { offset: 0x1100DF, size: 0x8, addend: 0x0, symName: __ZNK13llama_context18output_resolve_rowEi, symObjAddr: 0x3AE0, symBinAddr: 0x18EE8, symSize: 0x1DC }
  - { offset: 0x110352, size: 0x8, addend: 0x0, symName: __ZN13llama_context14get_logits_ithEi, symObjAddr: 0x3CBC, symBinAddr: 0x190C4, symSize: 0x2C0 }
  - { offset: 0x110609, size: 0x8, addend: 0x0, symName: __ZN13llama_context14get_embeddingsEv, symObjAddr: 0x3F7C, symBinAddr: 0x19384, symSize: 0x24 }
  - { offset: 0x110640, size: 0x8, addend: 0x0, symName: __ZNK13llama_context18get_sampled_tokensEv, symObjAddr: 0x3FA0, symBinAddr: 0x193A8, symSize: 0x8 }
  - { offset: 0x11066A, size: 0x8, addend: 0x0, symName: __ZN13llama_context18get_embeddings_ithEi, symObjAddr: 0x3FA8, symBinAddr: 0x193B0, symSize: 0x2C4 }
  - { offset: 0x110A4B, size: 0x8, addend: 0x0, symName: __ZN13llama_context18get_embeddings_seqEi, symObjAddr: 0x426C, symBinAddr: 0x19674, symSize: 0x4C }
  - { offset: 0x110A7F, size: 0x8, addend: 0x0, symName: __ZN13llama_context18get_embeddings_seqEi, symObjAddr: 0x426C, symBinAddr: 0x19674, symSize: 0x4C }
  - { offset: 0x110A9E, size: 0x8, addend: 0x0, symName: __ZN13llama_context18get_embeddings_seqEi, symObjAddr: 0x426C, symBinAddr: 0x19674, symSize: 0x4C }
  - { offset: 0x110AC6, size: 0x8, addend: 0x0, symName: __ZN13llama_context18get_embeddings_seqEi, symObjAddr: 0x426C, symBinAddr: 0x19674, symSize: 0x4C }
  - { offset: 0x110BB1, size: 0x8, addend: 0x0, symName: __ZN13llama_context21get_sampled_token_ithEi, symObjAddr: 0x42B8, symBinAddr: 0x196C0, symSize: 0x104 }
  - { offset: 0x110C94, size: 0x8, addend: 0x0, symName: __ZN13llama_context21get_sampled_probs_ithEi, symObjAddr: 0x43BC, symBinAddr: 0x197C4, symSize: 0xFC }
  - { offset: 0x110D82, size: 0x8, addend: 0x0, symName: __ZN13llama_context22get_sampled_logits_ithEi, symObjAddr: 0x44B8, symBinAddr: 0x198C0, symSize: 0xFC }
  - { offset: 0x110E86, size: 0x8, addend: 0x0, symName: __ZN13llama_context26get_sampled_candidates_ithEi, symObjAddr: 0x45B4, symBinAddr: 0x199BC, symSize: 0xA8 }
  - { offset: 0x110F71, size: 0x8, addend: 0x0, symName: __ZN13llama_context28get_sampled_candidates_countEi, symObjAddr: 0x465C, symBinAddr: 0x19A64, symSize: 0xDC }
  - { offset: 0x11105F, size: 0x8, addend: 0x0, symName: __ZN13llama_context24get_sampled_logits_countEi, symObjAddr: 0x4738, symBinAddr: 0x19B40, symSize: 0x10C }
  - { offset: 0x11114D, size: 0x8, addend: 0x0, symName: __ZN13llama_context23get_sampled_probs_countEi, symObjAddr: 0x4844, symBinAddr: 0x19C4C, symSize: 0xDC }
  - { offset: 0x11123B, size: 0x8, addend: 0x0, symName: __ZN13llama_context17attach_threadpoolEP15ggml_threadpoolS1_, symObjAddr: 0x4920, symBinAddr: 0x19D28, symSize: 0x60 }
  - { offset: 0x111282, size: 0x8, addend: 0x0, symName: __ZN13llama_context17detach_threadpoolEv, symObjAddr: 0x4980, symBinAddr: 0x19D88, symSize: 0x4C }
  - { offset: 0x1112B7, size: 0x8, addend: 0x0, symName: __ZN13llama_context13set_n_threadsEii, symObjAddr: 0x49CC, symBinAddr: 0x19DD4, symSize: 0x58 }
  - { offset: 0x1112FE, size: 0x8, addend: 0x0, symName: __ZN13llama_context18set_abort_callbackEPFbPvES0_, symObjAddr: 0x4A24, symBinAddr: 0x19E2C, symSize: 0xB0 }
  - { offset: 0x111472, size: 0x8, addend: 0x0, symName: __ZN13llama_context14set_embeddingsEb, symObjAddr: 0x4AD4, symBinAddr: 0x19EDC, symSize: 0x48 }
  - { offset: 0x1114AD, size: 0x8, addend: 0x0, symName: __ZN13llama_context15set_causal_attnEb, symObjAddr: 0x4B1C, symBinAddr: 0x19F24, symSize: 0x64 }
  - { offset: 0x1114EB, size: 0x8, addend: 0x0, symName: __ZN13llama_context10set_warmupEb, symObjAddr: 0x4B80, symBinAddr: 0x19F88, symSize: 0x54 }
  - { offset: 0x11156F, size: 0x8, addend: 0x0, symName: __ZN13llama_context16set_adapter_loraEP18llama_adapter_loraf, symObjAddr: 0x4BD4, symBinAddr: 0x19FDC, symSize: 0xC4 }
  - { offset: 0x11163D, size: 0x8, addend: 0x0, symName: __ZNSt3__112__hash_tableINS_17__hash_value_typeIP18llama_adapter_lorafEENS_22__unordered_map_hasherIS3_S4_NS_4hashIS3_EENS_8equal_toIS3_EELb1EEENS_21__unordered_map_equalIS3_S4_S9_S7_Lb1EEENS_9allocatorIS4_EEE4findIS3_EENS_15__hash_iteratorIPNS_11__hash_nodeIS4_PvEEEERKT_, symObjAddr: 0xEAB0, symBinAddr: 0x23A60, symSize: 0x110 }
  - { offset: 0x111694, size: 0x8, addend: 0x0, symName: __ZNSt3__112__hash_tableINS_17__hash_value_typeIP18llama_adapter_lorafEENS_22__unordered_map_hasherIS3_S4_NS_4hashIS3_EENS_8equal_toIS3_EELb1EEENS_21__unordered_map_equalIS3_S4_S9_S7_Lb1EEENS_9allocatorIS4_EEE4findIS3_EENS_15__hash_iteratorIPNS_11__hash_nodeIS4_PvEEEERKT_, symObjAddr: 0xEAB0, symBinAddr: 0x23A60, symSize: 0x110 }
  - { offset: 0x1116B0, size: 0x8, addend: 0x0, symName: __ZNSt3__112__hash_tableINS_17__hash_value_typeIP18llama_adapter_lorafEENS_22__unordered_map_hasherIS3_S4_NS_4hashIS3_EENS_8equal_toIS3_EELb1EEENS_21__unordered_map_equalIS3_S4_S9_S7_Lb1EEENS_9allocatorIS4_EEE4findIS3_EENS_15__hash_iteratorIPNS_11__hash_nodeIS4_PvEEEERKT_, symObjAddr: 0xEAB0, symBinAddr: 0x23A60, symSize: 0x110 }
  - { offset: 0x1117AA, size: 0x8, addend: 0x0, symName: __ZNSt3__112__hash_tableINS_17__hash_value_typeIP18llama_adapter_lorafEENS_22__unordered_map_hasherIS3_S4_NS_4hashIS3_EENS_8equal_toIS3_EELb1EEENS_21__unordered_map_equalIS3_S4_S9_S7_Lb1EEENS_9allocatorIS4_EEE25__emplace_unique_key_argsIS3_JRKNS_21piecewise_construct_tENS_5tupleIJRKS3_EEENSK_IJEEEEEENS_4pairINS_15__hash_iteratorIPNS_11__hash_nodeIS4_PvEEEEbEERKT_DpOT0_, symObjAddr: 0xEBC0, symBinAddr: 0x23B70, symSize: 0x364 }
  - { offset: 0x1120CE, size: 0x8, addend: 0x0, symName: __ZN13llama_context15rm_adapter_loraEP18llama_adapter_lora, symObjAddr: 0x4C98, symBinAddr: 0x1A0A0, symSize: 0x88 }
  - { offset: 0x112310, size: 0x8, addend: 0x0, symName: __ZNSt3__112__hash_tableINS_17__hash_value_typeIP18llama_adapter_lorafEENS_22__unordered_map_hasherIS3_S4_NS_4hashIS3_EENS_8equal_toIS3_EELb1EEENS_21__unordered_map_equalIS3_S4_S9_S7_Lb1EEENS_9allocatorIS4_EEE6removeENS_21__hash_const_iteratorIPNS_11__hash_nodeIS4_PvEEEE, symObjAddr: 0xF0A4, symBinAddr: 0x24054, symSize: 0x138 }
  - { offset: 0x112386, size: 0x8, addend: 0x0, symName: __ZNSt3__112__hash_tableINS_17__hash_value_typeIP18llama_adapter_lorafEENS_22__unordered_map_hasherIS3_S4_NS_4hashIS3_EENS_8equal_toIS3_EELb1EEENS_21__unordered_map_equalIS3_S4_S9_S7_Lb1EEENS_9allocatorIS4_EEE6removeENS_21__hash_const_iteratorIPNS_11__hash_nodeIS4_PvEEEE, symObjAddr: 0xF0A4, symBinAddr: 0x24054, symSize: 0x138 }
  - { offset: 0x1123A2, size: 0x8, addend: 0x0, symName: __ZNSt3__112__hash_tableINS_17__hash_value_typeIP18llama_adapter_lorafEENS_22__unordered_map_hasherIS3_S4_NS_4hashIS3_EENS_8equal_toIS3_EELb1EEENS_21__unordered_map_equalIS3_S4_S9_S7_Lb1EEENS_9allocatorIS4_EEE6removeENS_21__hash_const_iteratorIPNS_11__hash_nodeIS4_PvEEEE, symObjAddr: 0xF0A4, symBinAddr: 0x24054, symSize: 0x138 }
  - { offset: 0x112648, size: 0x8, addend: 0x0, symName: __ZN13llama_context18clear_adapter_loraEv, symObjAddr: 0x4D20, symBinAddr: 0x1A128, symSize: 0x84 }
  - { offset: 0x112876, size: 0x8, addend: 0x0, symName: __ZN13llama_context18apply_adapter_cvecEPKfmiii, symObjAddr: 0x4DA4, symBinAddr: 0x1A1AC, symSize: 0x84 }
  - { offset: 0x1128F4, size: 0x8, addend: 0x0, symName: __ZN13llama_context14process_ubatchERK12llama_ubatch14llm_graph_typeP22llama_memory_context_iR11ggml_status, symObjAddr: 0x4E28, symBinAddr: 0x1A230, symSize: 0x3CC }
  - { offset: 0x11310D, size: 0x8, addend: 0x0, symName: __ZN13llama_context13graph_computeEP11ggml_cgraphb, symObjAddr: 0x5374, symBinAddr: 0x1A77C, symSize: 0xE4 }
  - { offset: 0x1132E6, size: 0x8, addend: 0x0, symName: __ZNK13llama_context12graph_paramsEP16llm_graph_resultRK12llama_ubatchPK22llama_memory_context_i14llm_graph_type, symObjAddr: 0x51F4, symBinAddr: 0x1A5FC, symSize: 0x180 }
  - { offset: 0x113F99, size: 0x8, addend: 0x0, symName: __ZN13llama_context6encodeERK11llama_batch, symObjAddr: 0x54F8, symBinAddr: 0x1A900, symSize: 0xB94 }
  - { offset: 0x1169A2, size: 0x8, addend: 0x0, symName: __ZN13llama_context6decodeERK11llama_batch, symObjAddr: 0x60E8, symBinAddr: 0x1B494, symSize: 0x1788 }
  - { offset: 0x1194C4, size: 0x8, addend: 0x0, symName: __ZL24copy_tensor_async_floatsRKNSt3__13mapIiP11ggml_tensorNS_4lessIiEENS_9allocatorINS_4pairIKiS2_EEEEEERK11buffer_viewIfEmRNS_6vectorIjNS5_IjEEEERKNS0_IijS4_NS5_INS6_IS7_jEEEEEEP18ggml_backend_sched, symObjAddr: 0x7870, symBinAddr: 0x1CC1C, symSize: 0x1B0 }
  - { offset: 0x11987F, size: 0x8, addend: 0x0, symName: __ZNSt3__16vectorIN13llama_context9swap_infoENS_9allocatorIS2_EEE9push_backB8ne200100EOS2_, symObjAddr: 0x7A20, symBinAddr: 0x1CDCC, symSize: 0xEC }
  - { offset: 0x1198A5, size: 0x8, addend: 0x0, symName: __ZNSt3__16__treeINS_12__value_typeIijEENS_19__map_value_compareIiS2_NS_4lessIiEELb1EEENS_9allocatorIS2_EEE7destroyEPNS_11__tree_nodeIS2_PvEE, symObjAddr: 0xF548, symBinAddr: 0x2418C, symSize: 0x44 }
  - { offset: 0x1199BC, size: 0x8, addend: 0x0, symName: __ZNSt3__16vectorIN13llama_context9swap_infoENS_9allocatorIS2_EEE9push_backB8ne200100EOS2_, symObjAddr: 0x7A20, symBinAddr: 0x1CDCC, symSize: 0xEC }
  - { offset: 0x119DCD, size: 0x8, addend: 0x0, symName: __ZNK13llama_context18get_gf_res_reserveEv, symObjAddr: 0x7B0C, symBinAddr: 0x1CEB8, symSize: 0x8 }
  - { offset: 0x11A09F, size: 0x8, addend: 0x0, symName: __ZNSt3__16vectorIN13llama_context9swap_infoENS_9allocatorIS2_EEE20__throw_length_errorB8ne200100Ev, symObjAddr: 0xF58C, symBinAddr: 0x241D0, symSize: 0x14 }
  - { offset: 0x11A0B7, size: 0x8, addend: 0x0, symName: __ZNSt3__16vectorIjNS_9allocatorIjEEE8__appendEm, symObjAddr: 0xF5A0, symBinAddr: 0x241E4, symSize: 0x120 }
  - { offset: 0x11A0C2, size: 0x8, addend: 0x0, symName: __ZNK13llama_context18get_gf_res_reserveEv, symObjAddr: 0x7B0C, symBinAddr: 0x1CEB8, symSize: 0x8 }
  - { offset: 0x11A0EE, size: 0x8, addend: 0x0, symName: __ZNK13llama_context18get_gf_res_reserveEv, symObjAddr: 0x7B0C, symBinAddr: 0x1CEB8, symSize: 0x8 }
  - { offset: 0x11A205, size: 0x8, addend: 0x0, symName: __ZN13llama_context14state_get_sizeEv, symObjAddr: 0x7B28, symBinAddr: 0x1CED4, symSize: 0xA0 }
  - { offset: 0x11A2C7, size: 0x8, addend: 0x0, symName: __ZN13llama_context16state_write_dataER16llama_io_write_i, symObjAddr: 0x7BC8, symBinAddr: 0x1CF74, symSize: 0x35C }
  - { offset: 0x11ADFE, size: 0x8, addend: 0x0, symName: __ZN20llama_io_write_dummyD1Ev, symObjAddr: 0x7F24, symBinAddr: 0x1D2D0, symSize: 0x4 }
  - { offset: 0x11AF77, size: 0x8, addend: 0x0, symName: __ZN13llama_context14state_get_dataEPhm, symObjAddr: 0x7F28, symBinAddr: 0x1D2D4, symSize: 0xA4 }
  - { offset: 0x11B075, size: 0x8, addend: 0x0, symName: __ZN21llama_io_write_bufferD1Ev, symObjAddr: 0x7FCC, symBinAddr: 0x1D378, symSize: 0x4 }
  - { offset: 0x11B1E8, size: 0x8, addend: 0x0, symName: __ZN13llama_context14state_set_dataEPKhm, symObjAddr: 0x7FD0, symBinAddr: 0x1D37C, symSize: 0xA4 }
  - { offset: 0x11B2E6, size: 0x8, addend: 0x0, symName: __ZN13llama_context15state_read_dataER15llama_io_read_i, symObjAddr: 0x8074, symBinAddr: 0x1D420, symSize: 0x554 }
  - { offset: 0x11C389, size: 0x8, addend: 0x0, symName: __ZN20llama_io_read_bufferD1Ev, symObjAddr: 0x85C8, symBinAddr: 0x1D974, symSize: 0x4 }
  - { offset: 0x11C3F2, size: 0x8, addend: 0x0, symName: __ZN13llama_context18state_seq_get_sizeEij, symObjAddr: 0x85CC, symBinAddr: 0x1D978, symSize: 0xC8 }
  - { offset: 0x11C527, size: 0x8, addend: 0x0, symName: __ZN13llama_context20state_seq_write_dataER16llama_io_write_iij, symObjAddr: 0x8694, symBinAddr: 0x1DA40, symSize: 0x40 }
  - { offset: 0x11C5A3, size: 0x8, addend: 0x0, symName: __ZN13llama_context18state_seq_get_dataEiPhmj, symObjAddr: 0x86D4, symBinAddr: 0x1DA80, symSize: 0xD4 }
  - { offset: 0x11C751, size: 0x8, addend: 0x0, symName: __ZN13llama_context18state_seq_set_dataEiPKhmj, symObjAddr: 0x87A8, symBinAddr: 0x1DB54, symSize: 0xD4 }
  - { offset: 0x11C8C2, size: 0x8, addend: 0x0, symName: __ZN13llama_context19state_seq_read_dataER15llama_io_read_iij, symObjAddr: 0x887C, symBinAddr: 0x1DC28, symSize: 0x40 }
  - { offset: 0x11CD91, size: 0x8, addend: 0x0, symName: __ZN13llama_context15state_load_fileEPKcPimPm, symObjAddr: 0x88BC, symBinAddr: 0x1DC68, symSize: 0x1D4 }
  - { offset: 0x11D226, size: 0x8, addend: 0x0, symName: __ZN18llama_io_read_fileD1Ev, symObjAddr: 0x8A90, symBinAddr: 0x1DE3C, symSize: 0x44 }
  - { offset: 0x11D24A, size: 0x8, addend: 0x0, symName: __ZN18llama_io_read_fileD1Ev, symObjAddr: 0x8A90, symBinAddr: 0x1DE3C, symSize: 0x44 }
  - { offset: 0x11D4FB, size: 0x8, addend: 0x0, symName: __ZN13llama_context15state_save_fileEPKcPKim, symObjAddr: 0x8AD4, symBinAddr: 0x1DE80, symSize: 0x108 }
  - { offset: 0x11D8D4, size: 0x8, addend: 0x0, symName: __ZN19llama_io_write_fileD1Ev, symObjAddr: 0x8BDC, symBinAddr: 0x1DF88, symSize: 0x44 }
  - { offset: 0x11D8F8, size: 0x8, addend: 0x0, symName: __ZN19llama_io_write_fileD1Ev, symObjAddr: 0x8BDC, symBinAddr: 0x1DF88, symSize: 0x44 }
  - { offset: 0x11DA3F, size: 0x8, addend: 0x0, symName: __ZN13llama_context19state_seq_load_fileEiPKcPimPm, symObjAddr: 0x8C20, symBinAddr: 0x1DFCC, symSize: 0x27C }
  - { offset: 0x11DF65, size: 0x8, addend: 0x0, symName: __ZN13llama_context19state_seq_save_fileEiPKcPKim, symObjAddr: 0x8E9C, symBinAddr: 0x1E248, symSize: 0x19C }
  - { offset: 0x11E3FD, size: 0x8, addend: 0x0, symName: __ZN19llama_io_write_file7n_bytesEv, symObjAddr: 0x9038, symBinAddr: 0x1E3E4, symSize: 0x8 }
  - { offset: 0x11E41F, size: 0x8, addend: 0x0, symName: __ZNK13llama_context13perf_get_dataEv, symObjAddr: 0x9040, symBinAddr: 0x1E3EC, symSize: 0x54 }
  - { offset: 0x11E503, size: 0x8, addend: 0x0, symName: __ZN13llama_context10perf_resetEv, symObjAddr: 0x9094, symBinAddr: 0x1E440, symSize: 0x38 }
  - { offset: 0x11EC83, size: 0x8, addend: 0x0, symName: __ZNK13llama_context16memory_breakdownEv, symObjAddr: 0x90CC, symBinAddr: 0x1E478, symSize: 0x500 }
  - { offset: 0x120078, size: 0x8, addend: 0x0, symName: __ZNSt3__16__treeINS_12__value_typeIP24ggml_backend_buffer_typemEENS_19__map_value_compareIS3_S4_NS_4lessIS3_EELb1EEENS_9allocatorIS4_EEE7destroyEPNS_11__tree_nodeIS4_PvEE, symObjAddr: 0xFBB0, symBinAddr: 0x247F4, symSize: 0x44 }
  - { offset: 0x1201A7, size: 0x8, addend: 0x0, symName: __ZNSt3__16__treeINS_12__value_typeIP24ggml_backend_buffer_type27llama_memory_breakdown_dataEENS_19__map_value_compareIS3_S5_NS_4lessIS3_EELb1EEENS_9allocatorIS5_EEE7destroyEPNS_11__tree_nodeIS5_PvEE, symObjAddr: 0xFB6C, symBinAddr: 0x247B0, symSize: 0x44 }
  - { offset: 0x120358, size: 0x8, addend: 0x0, symName: __ZN13llama_context8opt_initEP11llama_model16llama_opt_params, symObjAddr: 0x95CC, symBinAddr: 0x1E978, symSize: 0x5F8 }
  - { offset: 0x120C92, size: 0x8, addend: 0x0, symName: __ZN13llama_context14opt_epoch_iterEP16ggml_opt_datasetP15ggml_opt_resultRKNSt3__16vectorIiNS4_9allocatorIiEEEESA_R11llama_batchPFvbP16ggml_opt_contextS1_S3_xxxEbxxx, symObjAddr: 0x9BC4, symBinAddr: 0x1EF70, symSize: 0x7A8 }
  - { offset: 0x120DC3, size: 0x8, addend: 0x0, symName: __ZN13llama_context14opt_epoch_iterEP16ggml_opt_datasetP15ggml_opt_resultRKNSt3__16vectorIiNS4_9allocatorIiEEEESA_R11llama_batchPFvbP16ggml_opt_contextS1_S3_xxxEbxxx, symObjAddr: 0x9BC4, symBinAddr: 0x1EF70, symSize: 0x7A8 }
  - { offset: 0x121D58, size: 0x8, addend: 0x0, symName: __ZN13llama_context9opt_epochEP16ggml_opt_datasetP15ggml_opt_resultS3_xPFvbP16ggml_opt_contextS1_S3_xxxES7_, symObjAddr: 0xA36C, symBinAddr: 0x1F718, symSize: 0x2D4 }
  - { offset: 0x1228A5, size: 0x8, addend: 0x0, symName: _llama_context_default_params, symObjAddr: 0xA640, symBinAddr: 0x1F9EC, symSize: 0x34 }
  - { offset: 0x122903, size: 0x8, addend: 0x0, symName: _llama_init_from_model, symObjAddr: 0xA674, symBinAddr: 0x1FA20, symSize: 0x2D4 }
  - { offset: 0x122AC7, size: 0x8, addend: 0x0, symName: _llama_new_context_with_model, symObjAddr: 0xA948, symBinAddr: 0x1FCF4, symSize: 0x48 }
  - { offset: 0x122B3B, size: 0x8, addend: 0x0, symName: _llama_free, symObjAddr: 0xA990, symBinAddr: 0x1FD3C, symSize: 0x1C }
  - { offset: 0x122B8C, size: 0x8, addend: 0x0, symName: _llama_n_ctx, symObjAddr: 0xA9AC, symBinAddr: 0x1FD58, symSize: 0x8 }
  - { offset: 0x122BBA, size: 0x8, addend: 0x0, symName: _llama_n_ctx, symObjAddr: 0xA9AC, symBinAddr: 0x1FD58, symSize: 0x8 }
  - { offset: 0x122BEE, size: 0x8, addend: 0x0, symName: _llama_n_ctx_seq, symObjAddr: 0xA9B4, symBinAddr: 0x1FD60, symSize: 0x8 }
  - { offset: 0x122C1C, size: 0x8, addend: 0x0, symName: _llama_n_ctx_seq, symObjAddr: 0xA9B4, symBinAddr: 0x1FD60, symSize: 0x8 }
  - { offset: 0x122C37, size: 0x8, addend: 0x0, symName: _llama_n_batch, symObjAddr: 0xA9BC, symBinAddr: 0x1FD68, symSize: 0x8 }
  - { offset: 0x122C65, size: 0x8, addend: 0x0, symName: _llama_n_batch, symObjAddr: 0xA9BC, symBinAddr: 0x1FD68, symSize: 0x8 }
  - { offset: 0x122C99, size: 0x8, addend: 0x0, symName: _llama_n_ubatch, symObjAddr: 0xA9C4, symBinAddr: 0x1FD70, symSize: 0x8 }
  - { offset: 0x122CC7, size: 0x8, addend: 0x0, symName: _llama_n_ubatch, symObjAddr: 0xA9C4, symBinAddr: 0x1FD70, symSize: 0x8 }
  - { offset: 0x122CE2, size: 0x8, addend: 0x0, symName: _llama_n_seq_max, symObjAddr: 0xA9CC, symBinAddr: 0x1FD78, symSize: 0x8 }
  - { offset: 0x122D10, size: 0x8, addend: 0x0, symName: _llama_n_seq_max, symObjAddr: 0xA9CC, symBinAddr: 0x1FD78, symSize: 0x8 }
  - { offset: 0x122D44, size: 0x8, addend: 0x0, symName: _llama_get_model, symObjAddr: 0xA9D4, symBinAddr: 0x1FD80, symSize: 0x8 }
  - { offset: 0x122D72, size: 0x8, addend: 0x0, symName: _llama_get_model, symObjAddr: 0xA9D4, symBinAddr: 0x1FD80, symSize: 0x8 }
  - { offset: 0x122DA6, size: 0x8, addend: 0x0, symName: _llama_pooling_type, symObjAddr: 0xA9DC, symBinAddr: 0x1FD88, symSize: 0x8 }
  - { offset: 0x122DD4, size: 0x8, addend: 0x0, symName: _llama_pooling_type, symObjAddr: 0xA9DC, symBinAddr: 0x1FD88, symSize: 0x8 }
  - { offset: 0x122E20, size: 0x8, addend: 0x0, symName: _llama_attach_threadpool, symObjAddr: 0xA9E4, symBinAddr: 0x1FD90, symSize: 0x60 }
  - { offset: 0x122EBF, size: 0x8, addend: 0x0, symName: _llama_detach_threadpool, symObjAddr: 0xAA44, symBinAddr: 0x1FDF0, symSize: 0x4C }
  - { offset: 0x122F48, size: 0x8, addend: 0x0, symName: _llama_set_n_threads, symObjAddr: 0xAA90, symBinAddr: 0x1FE3C, symSize: 0x58 }
  - { offset: 0x122FE7, size: 0x8, addend: 0x0, symName: _llama_n_threads, symObjAddr: 0xAAE8, symBinAddr: 0x1FE94, symSize: 0x8 }
  - { offset: 0x123015, size: 0x8, addend: 0x0, symName: _llama_n_threads, symObjAddr: 0xAAE8, symBinAddr: 0x1FE94, symSize: 0x8 }
  - { offset: 0x123049, size: 0x8, addend: 0x0, symName: _llama_n_threads_batch, symObjAddr: 0xAAF0, symBinAddr: 0x1FE9C, symSize: 0x8 }
  - { offset: 0x123077, size: 0x8, addend: 0x0, symName: _llama_n_threads_batch, symObjAddr: 0xAAF0, symBinAddr: 0x1FE9C, symSize: 0x8 }
  - { offset: 0x1230B7, size: 0x8, addend: 0x0, symName: _llama_set_embeddings, symObjAddr: 0xAAF8, symBinAddr: 0x1FEA4, symSize: 0x48 }
  - { offset: 0x123144, size: 0x8, addend: 0x0, symName: _llama_set_causal_attn, symObjAddr: 0xAB40, symBinAddr: 0x1FEEC, symSize: 0x64 }
  - { offset: 0x1231DA, size: 0x8, addend: 0x0, symName: _llama_set_warmup, symObjAddr: 0xABA4, symBinAddr: 0x1FF50, symSize: 0x54 }
  - { offset: 0x12324B, size: 0x8, addend: 0x0, symName: _llama_synchronize, symObjAddr: 0xABF8, symBinAddr: 0x1FFA4, symSize: 0x4 }
  - { offset: 0x123274, size: 0x8, addend: 0x0, symName: _llama_synchronize, symObjAddr: 0xABF8, symBinAddr: 0x1FFA4, symSize: 0x4 }
  - { offset: 0x1232A0, size: 0x8, addend: 0x0, symName: _llama_get_logits, symObjAddr: 0xABFC, symBinAddr: 0x1FFA8, symSize: 0x2C }
  - { offset: 0x123312, size: 0x8, addend: 0x0, symName: _llama_get_logits_ith, symObjAddr: 0xAC28, symBinAddr: 0x1FFD4, symSize: 0x48 }
  - { offset: 0x1233B4, size: 0x8, addend: 0x0, symName: _llama_get_embeddings, symObjAddr: 0xAC70, symBinAddr: 0x2001C, symSize: 0x2C }
  - { offset: 0x123426, size: 0x8, addend: 0x0, symName: _llama_get_embeddings_ith, symObjAddr: 0xAC9C, symBinAddr: 0x20048, symSize: 0x2C }
  - { offset: 0x1234B6, size: 0x8, addend: 0x0, symName: _llama_get_embeddings_seq, symObjAddr: 0xACC8, symBinAddr: 0x20074, symSize: 0x74 }
  - { offset: 0x12365B, size: 0x8, addend: 0x0, symName: _llama_set_sampler, symObjAddr: 0xAD3C, symBinAddr: 0x200E8, symSize: 0x4 }
  - { offset: 0x1236A4, size: 0x8, addend: 0x0, symName: _llama_set_sampler, symObjAddr: 0xAD3C, symBinAddr: 0x200E8, symSize: 0x4 }
  - { offset: 0x1236C5, size: 0x8, addend: 0x0, symName: _llama_get_sampled_token_ith, symObjAddr: 0xAD40, symBinAddr: 0x200EC, symSize: 0x2C }
  - { offset: 0x123724, size: 0x8, addend: 0x0, symName: _llama_get_sampled_probs_ith, symObjAddr: 0xAD6C, symBinAddr: 0x20118, symSize: 0x2C }
  - { offset: 0x123783, size: 0x8, addend: 0x0, symName: _llama_get_sampled_logits_ith, symObjAddr: 0xAD98, symBinAddr: 0x20144, symSize: 0x2C }
  - { offset: 0x1237E2, size: 0x8, addend: 0x0, symName: _llama_get_sampled_candidates_ith, symObjAddr: 0xADC4, symBinAddr: 0x20170, symSize: 0x2C }
  - { offset: 0x123841, size: 0x8, addend: 0x0, symName: _llama_get_sampled_candidates_count_ith, symObjAddr: 0xADF0, symBinAddr: 0x2019C, symSize: 0x30 }
  - { offset: 0x1238AC, size: 0x8, addend: 0x0, symName: _llama_get_sampled_logits_count_ith, symObjAddr: 0xAE20, symBinAddr: 0x201CC, symSize: 0x30 }
  - { offset: 0x123917, size: 0x8, addend: 0x0, symName: _llama_get_sampled_probs_count_ith, symObjAddr: 0xAE50, symBinAddr: 0x201FC, symSize: 0x30 }
  - { offset: 0x1239C1, size: 0x8, addend: 0x0, symName: _llama_set_adapter_lora, symObjAddr: 0xAE80, symBinAddr: 0x2022C, symSize: 0xB0 }
  - { offset: 0x123B06, size: 0x8, addend: 0x0, symName: _llama_rm_adapter_lora, symObjAddr: 0xAF30, symBinAddr: 0x202DC, symSize: 0x88 }
  - { offset: 0x123D67, size: 0x8, addend: 0x0, symName: _llama_clear_adapter_lora, symObjAddr: 0xAFB8, symBinAddr: 0x20364, symSize: 0x84 }
  - { offset: 0x12400D, size: 0x8, addend: 0x0, symName: _llama_apply_adapter_cvec, symObjAddr: 0xB03C, symBinAddr: 0x203E8, symSize: 0x8C }
  - { offset: 0x12410D, size: 0x8, addend: 0x0, symName: _llama_get_memory, symObjAddr: 0xB0C8, symBinAddr: 0x20474, symSize: 0x8 }
  - { offset: 0x12413B, size: 0x8, addend: 0x0, symName: _llama_get_memory, symObjAddr: 0xB0C8, symBinAddr: 0x20474, symSize: 0x8 }
  - { offset: 0x124157, size: 0x8, addend: 0x0, symName: _llama_get_memory, symObjAddr: 0xB0C8, symBinAddr: 0x20474, symSize: 0x8 }
  - { offset: 0x124176, size: 0x8, addend: 0x0, symName: _llama_memory_clear, symObjAddr: 0xB0D0, symBinAddr: 0x2047C, symSize: 0x14 }
  - { offset: 0x1241BB, size: 0x8, addend: 0x0, symName: _llama_memory_seq_rm, symObjAddr: 0xB0E4, symBinAddr: 0x20490, symSize: 0x18 }
  - { offset: 0x12421D, size: 0x8, addend: 0x0, symName: _llama_memory_seq_cp, symObjAddr: 0xB0FC, symBinAddr: 0x204A8, symSize: 0x14 }
  - { offset: 0x124287, size: 0x8, addend: 0x0, symName: _llama_memory_seq_keep, symObjAddr: 0xB110, symBinAddr: 0x204BC, symSize: 0x14 }
  - { offset: 0x1242C7, size: 0x8, addend: 0x0, symName: _llama_memory_seq_add, symObjAddr: 0xB124, symBinAddr: 0x204D0, symSize: 0x14 }
  - { offset: 0x124331, size: 0x8, addend: 0x0, symName: _llama_memory_seq_div, symObjAddr: 0xB138, symBinAddr: 0x204E4, symSize: 0x14 }
  - { offset: 0x12439B, size: 0x8, addend: 0x0, symName: _llama_memory_seq_pos_min, symObjAddr: 0xB14C, symBinAddr: 0x204F8, symSize: 0x18 }
  - { offset: 0x1243E1, size: 0x8, addend: 0x0, symName: _llama_memory_seq_pos_max, symObjAddr: 0xB164, symBinAddr: 0x20510, symSize: 0x18 }
  - { offset: 0x124427, size: 0x8, addend: 0x0, symName: _llama_memory_can_shift, symObjAddr: 0xB17C, symBinAddr: 0x20528, symSize: 0x14 }
  - { offset: 0x124478, size: 0x8, addend: 0x0, symName: _llama_get_state_size, symObjAddr: 0xB190, symBinAddr: 0x2053C, symSize: 0x4 }
  - { offset: 0x1244A4, size: 0x8, addend: 0x0, symName: _llama_get_state_size, symObjAddr: 0xB190, symBinAddr: 0x2053C, symSize: 0x4 }
  - { offset: 0x1244C2, size: 0x8, addend: 0x0, symName: _llama_get_state_size, symObjAddr: 0xB190, symBinAddr: 0x2053C, symSize: 0x4 }
  - { offset: 0x1244D5, size: 0x8, addend: 0x0, symName: _llama_state_get_size, symObjAddr: 0xB194, symBinAddr: 0x20540, symSize: 0x4 }
  - { offset: 0x1244F4, size: 0x8, addend: 0x0, symName: _llama_state_get_size, symObjAddr: 0xB194, symBinAddr: 0x20540, symSize: 0x4 }
  - { offset: 0x12453A, size: 0x8, addend: 0x0, symName: _llama_copy_state_data, symObjAddr: 0xB198, symBinAddr: 0x20544, symSize: 0x30 }
  - { offset: 0x1245D1, size: 0x8, addend: 0x0, symName: _llama_state_get_data, symObjAddr: 0xB1C8, symBinAddr: 0x20574, symSize: 0x3C }
  - { offset: 0x124657, size: 0x8, addend: 0x0, symName: _llama_set_state_data, symObjAddr: 0xB204, symBinAddr: 0x205B0, symSize: 0x30 }
  - { offset: 0x1246EE, size: 0x8, addend: 0x0, symName: _llama_state_set_data, symObjAddr: 0xB234, symBinAddr: 0x205E0, symSize: 0x3C }
  - { offset: 0x124741, size: 0x8, addend: 0x0, symName: _llama_load_session_file, symObjAddr: 0xB270, symBinAddr: 0x2061C, symSize: 0x4 }
  - { offset: 0x1247A6, size: 0x8, addend: 0x0, symName: _llama_load_session_file, symObjAddr: 0xB270, symBinAddr: 0x2061C, symSize: 0x4 }
  - { offset: 0x1247D5, size: 0x8, addend: 0x0, symName: _llama_state_load_file, symObjAddr: 0xB274, symBinAddr: 0x20620, symSize: 0xD0 }
  - { offset: 0x1248B1, size: 0x8, addend: 0x0, symName: _llama_save_session_file, symObjAddr: 0xB344, symBinAddr: 0x206F0, symSize: 0x4 }
  - { offset: 0x124908, size: 0x8, addend: 0x0, symName: _llama_save_session_file, symObjAddr: 0xB344, symBinAddr: 0x206F0, symSize: 0x4 }
  - { offset: 0x124930, size: 0x8, addend: 0x0, symName: _llama_state_save_file, symObjAddr: 0xB348, symBinAddr: 0x206F4, symSize: 0xC0 }
  - { offset: 0x124A29, size: 0x8, addend: 0x0, symName: _llama_state_seq_get_size, symObjAddr: 0xB408, symBinAddr: 0x207B4, symSize: 0x8 }
  - { offset: 0x124A63, size: 0x8, addend: 0x0, symName: _llama_state_seq_get_size, symObjAddr: 0xB408, symBinAddr: 0x207B4, symSize: 0x8 }
  - { offset: 0x124AAE, size: 0x8, addend: 0x0, symName: _llama_state_seq_get_size_ext, symObjAddr: 0xB410, symBinAddr: 0x207BC, symSize: 0x4 }
  - { offset: 0x124ADB, size: 0x8, addend: 0x0, symName: _llama_state_seq_get_size_ext, symObjAddr: 0xB410, symBinAddr: 0x207BC, symSize: 0x4 }
  - { offset: 0x124B47, size: 0x8, addend: 0x0, symName: _llama_state_seq_get_data, symObjAddr: 0xB414, symBinAddr: 0x207C0, symSize: 0x48 }
  - { offset: 0x124C0D, size: 0x8, addend: 0x0, symName: _llama_state_seq_get_data_ext, symObjAddr: 0xB45C, symBinAddr: 0x20808, symSize: 0x54 }
  - { offset: 0x124CBD, size: 0x8, addend: 0x0, symName: _llama_state_seq_set_data, symObjAddr: 0xB4B0, symBinAddr: 0x2085C, symSize: 0x48 }
  - { offset: 0x124D83, size: 0x8, addend: 0x0, symName: _llama_state_seq_set_data_ext, symObjAddr: 0xB4F8, symBinAddr: 0x208A4, symSize: 0x54 }
  - { offset: 0x124DE8, size: 0x8, addend: 0x0, symName: _llama_state_seq_save_file, symObjAddr: 0xB54C, symBinAddr: 0x208F8, symSize: 0xD0 }
  - { offset: 0x124EC4, size: 0x8, addend: 0x0, symName: _llama_state_seq_load_file, symObjAddr: 0xB61C, symBinAddr: 0x209C8, symSize: 0xD8 }
  - { offset: 0x124FB6, size: 0x8, addend: 0x0, symName: _llama_encode, symObjAddr: 0xB6F4, symBinAddr: 0x20AA0, symSize: 0x4C }
  - { offset: 0x125031, size: 0x8, addend: 0x0, symName: _llama_decode, symObjAddr: 0xB740, symBinAddr: 0x20AEC, symSize: 0x50 }
  - { offset: 0x1250D1, size: 0x8, addend: 0x0, symName: _llama_perf_context, symObjAddr: 0xB790, symBinAddr: 0x20B3C, symSize: 0x60 }
  - { offset: 0x1251F6, size: 0x8, addend: 0x0, symName: _llama_perf_context_print, symObjAddr: 0xB7F0, symBinAddr: 0x20B9C, symSize: 0x1A8 }
  - { offset: 0x1253CC, size: 0x8, addend: 0x0, symName: _llama_perf_context_reset, symObjAddr: 0xB998, symBinAddr: 0x20D44, symSize: 0x38 }
  - { offset: 0x126745, size: 0x8, addend: 0x0, symName: _llama_memory_breakdown_print, symObjAddr: 0xB9D0, symBinAddr: 0x20D7C, symSize: 0x1EA8 }
  - { offset: 0x12D9D7, size: 0x8, addend: 0x0, symName: __ZNSt3__128__exception_guard_exceptionsINS_6vectorINS_12basic_stringIcNS_11char_traitsIcEENS_9allocatorIcEEEENS5_IS7_EEE16__destroy_vectorEED1B8ne200100Ev, symObjAddr: 0xFC90, symBinAddr: 0x2484C, symSize: 0x80 }
  - { offset: 0x12D9E2, size: 0x8, addend: 0x0, symName: __ZNSt3__15arrayINS_12basic_stringIcNS_11char_traitsIcEENS_9allocatorIcEEEELm9EED2Ev, symObjAddr: 0xE3BC, symBinAddr: 0x234C8, symSize: 0x100 }
  - { offset: 0x12DB2C, size: 0x8, addend: 0x0, symName: __ZNSt3__16__treeIP24ggml_backend_buffer_typeNS_4lessIS2_EENS_9allocatorIS2_EEE7destroyEPNS_11__tree_nodeIS2_PvEE, symObjAddr: 0xFD10, symBinAddr: 0x248CC, symSize: 0x44 }
  - { offset: 0x12DC58, size: 0x8, addend: 0x0, symName: __ZNSt3__16vectorINS_5arrayINS_12basic_stringIcNS_11char_traitsIcEENS_9allocatorIcEEEELm9EEENS5_IS8_EEE20__throw_length_errorB8ne200100Ev, symObjAddr: 0xFBF4, symBinAddr: 0x24838, symSize: 0x14 }
  - { offset: 0x12DC7B, size: 0x8, addend: 0x0, symName: __ZNSt3__16vectorI27llama_memory_breakdown_dataNS_9allocatorIS1_EEE20__throw_length_errorB8ne200100Ev, symObjAddr: 0xFD54, symBinAddr: 0x24910, symSize: 0x14 }
  - { offset: 0x12DC9E, size: 0x8, addend: 0x0, symName: __ZNSt3__128__exception_guard_exceptionsINS_6vectorINS_12basic_stringIcNS_11char_traitsIcEENS_9allocatorIcEEEENS5_IS7_EEE16__destroy_vectorEED1B8ne200100Ev, symObjAddr: 0xFC90, symBinAddr: 0x2484C, symSize: 0x80 }
  - { offset: 0x12DF0C, size: 0x8, addend: 0x0, symName: __ZNSt3__16vectorINS_12basic_stringIcNS_11char_traitsIcEENS_9allocatorIcEEEENS4_IS6_EEED1B8ne200100Ev, symObjAddr: 0xD878, symBinAddr: 0x22C24, symSize: 0x70 }
  - { offset: 0x12E16C, size: 0x8, addend: 0x0, symName: __ZNSt3__16vectorINS_5arrayINS_12basic_stringIcNS_11char_traitsIcEENS_9allocatorIcEEEELm9EEENS5_IS8_EEED1B8ne200100Ev, symObjAddr: 0xD8E8, symBinAddr: 0x22C94, symSize: 0x58 }
  - { offset: 0x12E314, size: 0x8, addend: 0x0, symName: _llama_opt_param_filter_all, symObjAddr: 0xD940, symBinAddr: 0x22CEC, symSize: 0x8 }
  - { offset: 0x12E34E, size: 0x8, addend: 0x0, symName: _llama_opt_init, symObjAddr: 0xD948, symBinAddr: 0x22CF4, symSize: 0x30 }
  - { offset: 0x12E3B8, size: 0x8, addend: 0x0, symName: _llama_opt_epoch, symObjAddr: 0xD978, symBinAddr: 0x22D24, symSize: 0x4 }
  - { offset: 0x12E435, size: 0x8, addend: 0x0, symName: _llama_opt_epoch, symObjAddr: 0xD978, symBinAddr: 0x22D24, symSize: 0x4 }
  - { offset: 0x12F0F3, size: 0x8, addend: 0x0, symName: __ZN20llama_io_write_dummyD0Ev, symObjAddr: 0xDDD0, symBinAddr: 0x22F64, symSize: 0x4 }
  - { offset: 0x12F11F, size: 0x8, addend: 0x0, symName: __ZN20llama_io_write_dummy5writeEPKvm, symObjAddr: 0xDDD4, symBinAddr: 0x22F68, symSize: 0x10 }
  - { offset: 0x12F15D, size: 0x8, addend: 0x0, symName: __ZN20llama_io_write_dummy12write_tensorEPK11ggml_tensormm, symObjAddr: 0xDDE4, symBinAddr: 0x22F78, symSize: 0x10 }
  - { offset: 0x12F1A6, size: 0x8, addend: 0x0, symName: __ZN20llama_io_write_dummy7n_bytesEv, symObjAddr: 0xDDF4, symBinAddr: 0x22F88, symSize: 0x8 }
  - { offset: 0x12F1CD, size: 0x8, addend: 0x0, symName: __ZN21llama_io_write_bufferD0Ev, symObjAddr: 0xDDFC, symBinAddr: 0x22F90, symSize: 0x4 }
  - { offset: 0x12F1F9, size: 0x8, addend: 0x0, symName: __ZN21llama_io_write_buffer5writeEPKvm, symObjAddr: 0xDE00, symBinAddr: 0x22F94, symSize: 0x94 }
  - { offset: 0x12F240, size: 0x8, addend: 0x0, symName: __ZN21llama_io_write_buffer12write_tensorEPK11ggml_tensormm, symObjAddr: 0xDE94, symBinAddr: 0x23028, symSize: 0x9C }
  - { offset: 0x12F2C1, size: 0x8, addend: 0x0, symName: __ZN21llama_io_write_buffer7n_bytesEv, symObjAddr: 0xDF30, symBinAddr: 0x230C4, symSize: 0x8 }
  - { offset: 0x12F2E8, size: 0x8, addend: 0x0, symName: __ZN20llama_io_read_bufferD0Ev, symObjAddr: 0xDF38, symBinAddr: 0x230CC, symSize: 0x4 }
  - { offset: 0x12F314, size: 0x8, addend: 0x0, symName: __ZN20llama_io_read_buffer4readEm, symObjAddr: 0xDF3C, symBinAddr: 0x230D0, symSize: 0x84 }
  - { offset: 0x12F35B, size: 0x8, addend: 0x0, symName: __ZN20llama_io_read_buffer7read_toEPvm, symObjAddr: 0xDFC0, symBinAddr: 0x23154, symSize: 0x3C }
  - { offset: 0x12F3BD, size: 0x8, addend: 0x0, symName: __ZN20llama_io_read_buffer7n_bytesEv, symObjAddr: 0xDFFC, symBinAddr: 0x23190, symSize: 0x8 }
  - { offset: 0x12F3E4, size: 0x8, addend: 0x0, symName: __ZN18llama_io_read_fileD0Ev, symObjAddr: 0xE004, symBinAddr: 0x23198, symSize: 0x44 }
  - { offset: 0x12F414, size: 0x8, addend: 0x0, symName: __ZN18llama_io_read_fileD0Ev, symObjAddr: 0xE004, symBinAddr: 0x23198, symSize: 0x44 }
  - { offset: 0x12F432, size: 0x8, addend: 0x0, symName: __ZN18llama_io_read_fileD0Ev, symObjAddr: 0xE004, symBinAddr: 0x23198, symSize: 0x44 }
  - { offset: 0x12F9B0, size: 0x8, addend: 0x0, symName: __ZN18llama_io_read_file4readEm, symObjAddr: 0xE048, symBinAddr: 0x231DC, symSize: 0x108 }
  - { offset: 0x12FEF9, size: 0x8, addend: 0x0, symName: __ZN18llama_io_read_file7read_toEPvm, symObjAddr: 0xE150, symBinAddr: 0x232E4, symSize: 0x34 }
  - { offset: 0x12FF19, size: 0x8, addend: 0x0, symName: __ZN18llama_io_read_file7read_toEPvm, symObjAddr: 0xE150, symBinAddr: 0x232E4, symSize: 0x34 }
  - { offset: 0x12FF60, size: 0x8, addend: 0x0, symName: __ZN18llama_io_read_file7n_bytesEv, symObjAddr: 0xE184, symBinAddr: 0x23318, symSize: 0x8 }
  - { offset: 0x12FFEC, size: 0x8, addend: 0x0, symName: __ZN19llama_io_write_fileD0Ev, symObjAddr: 0xE214, symBinAddr: 0x23320, symSize: 0x44 }
  - { offset: 0x13001C, size: 0x8, addend: 0x0, symName: __ZN19llama_io_write_fileD0Ev, symObjAddr: 0xE214, symBinAddr: 0x23320, symSize: 0x44 }
  - { offset: 0x13003A, size: 0x8, addend: 0x0, symName: __ZN19llama_io_write_fileD0Ev, symObjAddr: 0xE214, symBinAddr: 0x23320, symSize: 0x44 }
  - { offset: 0x130182, size: 0x8, addend: 0x0, symName: __ZN19llama_io_write_file5writeEPKvm, symObjAddr: 0xE258, symBinAddr: 0x23364, symSize: 0x34 }
  - { offset: 0x1301C9, size: 0x8, addend: 0x0, symName: __ZN19llama_io_write_file12write_tensorEPK11ggml_tensormm, symObjAddr: 0xE28C, symBinAddr: 0x23398, symSize: 0x130 }
  - { offset: 0x130760, size: 0x8, addend: 0x0, symName: __ZNSt3__15arrayINS_12basic_stringIcNS_11char_traitsIcEENS_9allocatorIcEEEELm9EED2Ev, symObjAddr: 0xE3BC, symBinAddr: 0x234C8, symSize: 0x100 }
  - { offset: 0x130EF2, size: 0x8, addend: 0x0, symName: __ZNSt3__112__hash_tableINS_17__hash_value_typeIP18llama_adapter_lorafEENS_22__unordered_map_hasherIS3_S4_NS_4hashIS3_EENS_8equal_toIS3_EELb1EEENS_21__unordered_map_equalIS3_S4_S9_S7_Lb1EEENS_9allocatorIS4_EEE11__do_rehashILb1EEEvm, symObjAddr: 0xEF24, symBinAddr: 0x23ED4, symSize: 0x180 }
  - { offset: 0x13127F, size: 0x8, addend: 0x0, symName: __ZNSt3__112__hash_tableINS_17__hash_value_typeIP18llama_adapter_lorafEENS_22__unordered_map_hasherIS3_S4_NS_4hashIS3_EENS_8equal_toIS3_EELb1EEENS_21__unordered_map_equalIS3_S4_S9_S7_Lb1EEENS_9allocatorIS4_EEE6removeENS_21__hash_const_iteratorIPNS_11__hash_nodeIS4_PvEEEE, symObjAddr: 0xF0A4, symBinAddr: 0x24054, symSize: 0x138 }
  - { offset: 0x131B50, size: 0x8, addend: 0x0, symName: __ZNSt3__16__treeINS_12__value_typeIijEENS_19__map_value_compareIiS2_NS_4lessIiEELb1EEENS_9allocatorIS2_EEE7destroyEPNS_11__tree_nodeIS2_PvEE, symObjAddr: 0xF548, symBinAddr: 0x2418C, symSize: 0x44 }
  - { offset: 0x131E6E, size: 0x8, addend: 0x0, symName: __ZNSt3__16vectorIjNS_9allocatorIjEEE20__throw_length_errorB8ne200100Ev, symObjAddr: 0xF6C0, symBinAddr: 0x24304, symSize: 0x14 }
  - { offset: 0x131E86, size: 0x8, addend: 0x0, symName: __ZNSt3__13mapIiP13llama_samplerNS_4lessIiEENS_9allocatorINS_4pairIKiS2_EEEEE6insertB8ne200100INS_20__map_const_iteratorINS_21__tree_const_iteratorINS_12__value_typeIiS2_EEPNS_11__tree_nodeISF_PvEElEEEEEEvT_SM_, symObjAddr: 0xF6D4, symBinAddr: 0x24318, symSize: 0xF8 }
  - { offset: 0x1320D6, size: 0x8, addend: 0x0, symName: __ZNSt3__16__treeINS_12__value_typeIiP13llama_samplerEENS_19__map_value_compareIiS4_NS_4lessIiEELb1EEENS_9allocatorIS4_EEE12__find_equalIiEERPNS_16__tree_node_baseIPvEENS_21__tree_const_iteratorIS4_PNS_11__tree_nodeIS4_SE_EElEERPNS_15__tree_end_nodeISG_EESH_RKT_, symObjAddr: 0xF7CC, symBinAddr: 0x24410, symSize: 0x1B0 }
  - { offset: 0x132139, size: 0x8, addend: 0x0, symName: __ZNSt3__16__treeINS_12__value_typeIiP13llama_samplerEENS_19__map_value_compareIiS4_NS_4lessIiEELb1EEENS_9allocatorIS4_EEE12__find_equalIiEERPNS_16__tree_node_baseIPvEENS_21__tree_const_iteratorIS4_PNS_11__tree_nodeIS4_SE_EElEERPNS_15__tree_end_nodeISG_EESH_RKT_, symObjAddr: 0xF7CC, symBinAddr: 0x24410, symSize: 0x1B0 }
  - { offset: 0x132155, size: 0x8, addend: 0x0, symName: __ZNSt3__16__treeINS_12__value_typeIiP13llama_samplerEENS_19__map_value_compareIiS4_NS_4lessIiEELb1EEENS_9allocatorIS4_EEE12__find_equalIiEERPNS_16__tree_node_baseIPvEENS_21__tree_const_iteratorIS4_PNS_11__tree_nodeIS4_SE_EElEERPNS_15__tree_end_nodeISG_EESH_RKT_, symObjAddr: 0xF7CC, symBinAddr: 0x24410, symSize: 0x1B0 }
  - { offset: 0x1324EA, size: 0x8, addend: 0x0, symName: '__ZNSt3__110__function6__funcIZNK13llama_context12graph_get_cbEvE3$_0NS_9allocatorIS3_EEFvRK12llama_ubatchP11ggml_tensorPKciEED1Ev', symObjAddr: 0xF97C, symBinAddr: 0x245C0, symSize: 0x4 }
  - { offset: 0x132516, size: 0x8, addend: 0x0, symName: '__ZNSt3__110__function6__funcIZNK13llama_context12graph_get_cbEvE3$_0NS_9allocatorIS3_EEFvRK12llama_ubatchP11ggml_tensorPKciEED0Ev', symObjAddr: 0xF980, symBinAddr: 0x245C4, symSize: 0x4 }
  - { offset: 0x1325CD, size: 0x8, addend: 0x0, symName: '__ZNKSt3__110__function6__funcIZNK13llama_context12graph_get_cbEvE3$_0NS_9allocatorIS3_EEFvRK12llama_ubatchP11ggml_tensorPKciEE7__cloneEv', symObjAddr: 0xF984, symBinAddr: 0x245C8, symSize: 0x34 }
  - { offset: 0x13271F, size: 0x8, addend: 0x0, symName: '__ZNKSt3__110__function6__funcIZNK13llama_context12graph_get_cbEvE3$_0NS_9allocatorIS3_EEFvRK12llama_ubatchP11ggml_tensorPKciEE7__cloneEPNS0_6__baseISD_EE', symObjAddr: 0xF9B8, symBinAddr: 0x245FC, symSize: 0x14 }
  - { offset: 0x13278C, size: 0x8, addend: 0x0, symName: '__ZNSt3__110__function6__funcIZNK13llama_context12graph_get_cbEvE3$_0NS_9allocatorIS3_EEFvRK12llama_ubatchP11ggml_tensorPKciEE7destroyEv', symObjAddr: 0xF9CC, symBinAddr: 0x24610, symSize: 0x4 }
  - { offset: 0x1327E1, size: 0x8, addend: 0x0, symName: '__ZNSt3__110__function6__funcIZNK13llama_context12graph_get_cbEvE3$_0NS_9allocatorIS3_EEFvRK12llama_ubatchP11ggml_tensorPKciEE18destroy_deallocateEv', symObjAddr: 0xF9D0, symBinAddr: 0x24614, symSize: 0x4 }
  - { offset: 0x132816, size: 0x8, addend: 0x0, symName: '__ZNSt3__110__function6__funcIZNK13llama_context12graph_get_cbEvE3$_0NS_9allocatorIS3_EEFvRK12llama_ubatchP11ggml_tensorPKciEE18destroy_deallocateEv', symObjAddr: 0xF9D0, symBinAddr: 0x24614, symSize: 0x4 }
  - { offset: 0x132839, size: 0x8, addend: 0x0, symName: '__ZNSt3__110__function6__funcIZNK13llama_context12graph_get_cbEvE3$_0NS_9allocatorIS3_EEFvRK12llama_ubatchP11ggml_tensorPKciEE18destroy_deallocateEv', symObjAddr: 0xF9D0, symBinAddr: 0x24614, symSize: 0x4 }
  - { offset: 0x13286C, size: 0x8, addend: 0x0, symName: '__ZNSt3__110__function6__funcIZNK13llama_context12graph_get_cbEvE3$_0NS_9allocatorIS3_EEFvRK12llama_ubatchP11ggml_tensorPKciEE18destroy_deallocateEv', symObjAddr: 0xF9D0, symBinAddr: 0x24614, symSize: 0x4 }
  - { offset: 0x1329D7, size: 0x8, addend: 0x0, symName: '__ZNSt3__110__function6__funcIZNK13llama_context12graph_get_cbEvE3$_0NS_9allocatorIS3_EEFvRK12llama_ubatchP11ggml_tensorPKciEEclES8_OSA_OSC_Oi', symObjAddr: 0xF9D4, symBinAddr: 0x24618, symSize: 0x128 }
  - { offset: 0x132CE9, size: 0x8, addend: 0x0, symName: '__ZNKSt3__110__function6__funcIZNK13llama_context12graph_get_cbEvE3$_0NS_9allocatorIS3_EEFvRK12llama_ubatchP11ggml_tensorPKciEE6targetERKSt9type_info', symObjAddr: 0xFAFC, symBinAddr: 0x24740, symSize: 0x64 }
  - { offset: 0x132D9D, size: 0x8, addend: 0x0, symName: '__ZNKSt3__110__function6__funcIZNK13llama_context12graph_get_cbEvE3$_0NS_9allocatorIS3_EEFvRK12llama_ubatchP11ggml_tensorPKciEE11target_typeEv', symObjAddr: 0xFB60, symBinAddr: 0x247A4, symSize: 0xC }
  - { offset: 0x134F62, size: 0x8, addend: 0x0, symName: _llama_max_parallel_sequences, symObjAddr: 0x0, symBinAddr: 0x24924, symSize: 0x8 }
  - { offset: 0x134F70, size: 0x8, addend: 0x0, symName: _llama_max_parallel_sequences, symObjAddr: 0x0, symBinAddr: 0x24924, symSize: 0x8 }
  - { offset: 0x1350C6, size: 0x8, addend: 0x0, symName: __ZNK29llama_grammar_trigger_pattern4findERKNSt3__112basic_stringIcNS0_11char_traitsIcEENS0_9allocatorIcEEEE, symObjAddr: 0x0, symBinAddr: 0x2492C, symSize: 0x348 }
  - { offset: 0x15ABC0, size: 0x8, addend: 0x0, symName: __ZNSt3__135__uninitialized_allocator_copy_implB8ne200100INS_9allocatorINS_6vectorI21llama_grammar_elementNS1_IS3_EEEEEEPS5_S7_S7_EET2_RT_T0_T1_S8_, symObjAddr: 0x167E4, symBinAddr: 0x3AC68, symSize: 0xF8 }
  - { offset: 0x15B103, size: 0x8, addend: 0x0, symName: __ZNSt3__135__uninitialized_allocator_copy_implB8ne200100INS_9allocatorINS_6vectorIPK21llama_grammar_elementNS1_IS5_EEEEEEPS7_S9_S9_EET2_RT_T0_T1_SA_, symObjAddr: 0x169CC, symBinAddr: 0x3AE50, symSize: 0xF8 }
  - { offset: 0x15C5F4, size: 0x8, addend: 0x0, symName: __ZNSt3__119__throw_regex_errorB8ne200100ILNS_15regex_constants10error_typeE12EEEvv, symObjAddr: 0xC1C4, symBinAddr: 0x30914, symSize: 0x4C }
  - { offset: 0x15C61A, size: 0x8, addend: 0x0, symName: __ZNSt3__119__throw_regex_errorB8ne200100ILNS_15regex_constants10error_typeE16EEEvv, symObjAddr: 0xC210, symBinAddr: 0x30960, symSize: 0x4C }
  - { offset: 0x15E02D, size: 0x8, addend: 0x0, symName: __ZNSt3__134__uninitialized_allocator_relocateB8ne200100INS_9allocatorI29llama_grammar_trigger_patternEEPS2_EEvRT_T0_S7_S7_, symObjAddr: 0xEB20, symBinAddr: 0x330B0, symSize: 0xFC }
  - { offset: 0x15E088, size: 0x8, addend: 0x0, symName: __ZNSt3__134__uninitialized_allocator_relocateB8ne200100INS_9allocatorI29llama_grammar_trigger_patternEEPS2_EEvRT_T0_S7_S7_, symObjAddr: 0xEB20, symBinAddr: 0x330B0, symSize: 0xFC }
  - { offset: 0x15E524, size: 0x8, addend: 0x0, symName: __ZNSt3__119__throw_regex_errorB8ne200100ILNS_15regex_constants10error_typeE17EEEvv, symObjAddr: 0xEFA8, symBinAddr: 0x33538, symSize: 0x4C }
  - { offset: 0x15EC5F, size: 0x8, addend: 0x0, symName: __ZNSt3__119__throw_regex_errorB8ne200100ILNS_15regex_constants10error_typeE14EEEvv, symObjAddr: 0xF860, symBinAddr: 0x33DF0, symSize: 0x4C }
  - { offset: 0x15EF48, size: 0x8, addend: 0x0, symName: __ZNSt3__119__throw_regex_errorB8ne200100ILNS_15regex_constants10error_typeE15EEEvv, symObjAddr: 0x15BC4, symBinAddr: 0x3A0D0, symSize: 0x4C }
  - { offset: 0x15F344, size: 0x8, addend: 0x0, symName: __ZNSt3__119__throw_regex_errorB8ne200100ILNS_15regex_constants10error_typeE6EEEvv, symObjAddr: 0x104BC, symBinAddr: 0x34A4C, symSize: 0x4C }
  - { offset: 0x15F4F3, size: 0x8, addend: 0x0, symName: __ZNSt3__119__throw_regex_errorB8ne200100ILNS_15regex_constants10error_typeE11EEEvv, symObjAddr: 0x10E18, symBinAddr: 0x353A8, symSize: 0x4C }
  - { offset: 0x15F537, size: 0x8, addend: 0x0, symName: __ZNSt3__119__throw_regex_errorB8ne200100ILNS_15regex_constants10error_typeE8EEEvv, symObjAddr: 0x15584, symBinAddr: 0x39A90, symSize: 0x4C }
  - { offset: 0x15F55D, size: 0x8, addend: 0x0, symName: __ZNSt3__119__throw_regex_errorB8ne200100ILNS_15regex_constants10error_typeE7EEEvv, symObjAddr: 0x155D0, symBinAddr: 0x39ADC, symSize: 0x4C }
  - { offset: 0x15F68E, size: 0x8, addend: 0x0, symName: __ZNSt3__119__throw_regex_errorB8ne200100ILNS_15regex_constants10error_typeE4EEEvv, symObjAddr: 0x116E8, symBinAddr: 0x35C78, symSize: 0x4C }
  - { offset: 0x15F6B4, size: 0x8, addend: 0x0, symName: __ZNSt3__119__throw_regex_errorB8ne200100ILNS_15regex_constants10error_typeE3EEEvv, symObjAddr: 0x10F70, symBinAddr: 0x35500, symSize: 0x4C }
  - { offset: 0x15F6DA, size: 0x8, addend: 0x0, symName: __ZNSt3__119__throw_regex_errorB8ne200100ILNS_15regex_constants10error_typeE5EEEvv, symObjAddr: 0x132F4, symBinAddr: 0x37800, symSize: 0x4C }
  - { offset: 0x1602EE, size: 0x8, addend: 0x0, symName: __ZNSt3__119__throw_regex_errorB8ne200100ILNS_15regex_constants10error_typeE1EEEvv, symObjAddr: 0x14684, symBinAddr: 0x38B90, symSize: 0x4C }
  - { offset: 0x160314, size: 0x8, addend: 0x0, symName: __ZNSt3__119__throw_regex_errorB8ne200100ILNS_15regex_constants10error_typeE2EEEvv, symObjAddr: 0x14C78, symBinAddr: 0x39184, symSize: 0x4C }
  - { offset: 0x160376, size: 0x8, addend: 0x0, symName: __ZNSt3__119__throw_regex_errorB8ne200100ILNS_15regex_constants10error_typeE9EEEvv, symObjAddr: 0x1524C, symBinAddr: 0x39758, symSize: 0x4C }
  - { offset: 0x162196, size: 0x8, addend: 0x0, symName: __ZL11decode_utf8RKNSt3__112basic_stringIcNS_11char_traitsIcEENS_9allocatorIcEEEE18llama_partial_utf8, symObjAddr: 0x86F4, symBinAddr: 0x2CF7C, symSize: 0x498 }
  - { offset: 0x1621C0, size: 0x8, addend: 0x0, symName: __ZZL11decode_utf8RKNSt3__112basic_stringIcNS_11char_traitsIcEENS_9allocatorIcEEEE18llama_partial_utf8E6lookup, symObjAddr: 0x18490, symBinAddr: 0x2ADBA8, symSize: 0x0 }
  - { offset: 0x165989, size: 0x8, addend: 0x0, symName: __ZNK29llama_grammar_trigger_pattern4findERKNSt3__112basic_stringIcNS0_11char_traitsIcEENS0_9allocatorIcEEEE, symObjAddr: 0x0, symBinAddr: 0x2492C, symSize: 0x348 }
  - { offset: 0x166BA5, size: 0x8, addend: 0x0, symName: __ZNKSt3__111basic_regexIcNS_12regex_traitsIcEEE8__searchINS_9allocatorINS_9sub_matchIPKcEEEEEEbS8_S8_RNS_13match_resultsIS8_T_EENS_15regex_constants15match_flag_typeE, symObjAddr: 0xA854, symBinAddr: 0x2EFA4, symSize: 0x308 }
  - { offset: 0x167100, size: 0x8, addend: 0x0, symName: __ZNSt3__113match_resultsINS_11__wrap_iterIPKcEENS_9allocatorINS_9sub_matchIS4_EEEEE8__assignB8ne200100IS3_NS5_INS6_IS3_EEEEEEvS4_S4_RKNS0_IT_T0_EEb, symObjAddr: 0xAB5C, symBinAddr: 0x2F2AC, symSize: 0x168 }
  - { offset: 0x168059, size: 0x8, addend: 0x0, symName: __ZN20llama_grammar_parser13get_symbol_idEPKcm, symObjAddr: 0x348, symBinAddr: 0x24C74, symSize: 0x104 }
  - { offset: 0x16854A, size: 0x8, addend: 0x0, symName: __ZNSt3__16__treeINS_12__value_typeINS_12basic_stringIcNS_11char_traitsIcEENS_9allocatorIcEEEEjEENS_19__map_value_compareIS7_S8_NS_4lessIS7_EELb1EEENS5_IS8_EEE25__emplace_unique_key_argsIS7_JS7_RjEEENS_4pairINS_15__tree_iteratorIS8_PNS_11__tree_nodeIS8_PvEElEEbEERKT_DpOT0_, symObjAddr: 0xDF9C, symBinAddr: 0x326EC, symSize: 0x180 }
  - { offset: 0x168B16, size: 0x8, addend: 0x0, symName: __ZNKSt3__111basic_regexIcNS_12regex_traitsIcEEE8__searchINS_9allocatorINS_9sub_matchIPKcEEEEEEbS8_S8_RNS_13match_resultsIS8_T_EENS_15regex_constants15match_flag_typeE, symObjAddr: 0xA854, symBinAddr: 0x2EFA4, symSize: 0x308 }
  - { offset: 0x168B21, size: 0x8, addend: 0x0, symName: __ZNSt3__112basic_stringIcNS_11char_traitsIcEENS_9allocatorIcEEEC1B8ne200100EPKcm, symObjAddr: 0x44C, symBinAddr: 0x24D78, symSize: 0xA8 }
  - { offset: 0x168D4B, size: 0x8, addend: 0x0, symName: __ZN20llama_grammar_parser18generate_symbol_idERKNSt3__112basic_stringIcNS0_11char_traitsIcEENS0_9allocatorIcEEEE, symObjAddr: 0x4F4, symBinAddr: 0x24E20, symSize: 0x200 }
  - { offset: 0x168EC4, size: 0x8, addend: 0x0, symName: __ZN20llama_grammar_parser18generate_symbol_idERKNSt3__112basic_stringIcNS0_11char_traitsIcEENS0_9allocatorIcEEEE, symObjAddr: 0x4F4, symBinAddr: 0x24E20, symSize: 0x200 }
  - { offset: 0x169930, size: 0x8, addend: 0x0, symName: __ZNSt3__16__treeINS_12__value_typeINS_12basic_stringIcNS_11char_traitsIcEENS_9allocatorIcEEEEjEENS_19__map_value_compareIS7_S8_NS_4lessIS7_EELb1EEENS5_IS8_EEE25__emplace_unique_key_argsIS7_JRKNS_21piecewise_construct_tENS_5tupleIJOS7_EEENSJ_IJEEEEEENS_4pairINS_15__tree_iteratorIS8_PNS_11__tree_nodeIS8_PvEElEEbEERKT_DpOT0_, symObjAddr: 0xE2C8, symBinAddr: 0x3286C, symSize: 0x174 }
  - { offset: 0x16A188, size: 0x8, addend: 0x0, symName: __ZN20llama_grammar_parser8add_ruleEjRKNSt3__16vectorI21llama_grammar_elementNS0_9allocatorIS2_EEEE, symObjAddr: 0x6F4, symBinAddr: 0x25020, symSize: 0xE4 }
  - { offset: 0x16A486, size: 0x8, addend: 0x0, symName: __ZNSt3__16vectorINS0_I21llama_grammar_elementNS_9allocatorIS1_EEEENS2_IS4_EEE8__appendEm, symObjAddr: 0xE43C, symBinAddr: 0x329E0, symSize: 0x180 }
  - { offset: 0x16A8C9, size: 0x8, addend: 0x0, symName: __ZNSt3__16vectorINS0_I21llama_grammar_elementNS_9allocatorIS1_EEEENS2_IS4_EEE20__throw_length_errorB8ne200100Ev, symObjAddr: 0xE5BC, symBinAddr: 0x32B60, symSize: 0x14 }
  - { offset: 0x16A8D4, size: 0x8, addend: 0x0, symName: __ZNSt3__16vectorI21llama_grammar_elementNS_9allocatorIS1_EEE18__assign_with_sizeB8ne200100IPS1_S6_EEvT_T0_l, symObjAddr: 0xE5D0, symBinAddr: 0x32B74, symSize: 0x148 }
  - { offset: 0x16B2E2, size: 0x8, addend: 0x0, symName: __ZNSt3__16__treeINS_12__value_typeIjNS_12basic_stringIcNS_11char_traitsIcEENS_9allocatorIcEEEEEENS_19__map_value_compareIjS8_NS_4lessIjEELb1EEENS5_IS8_EEE7destroyEPNS_11__tree_nodeIS8_PvEE, symObjAddr: 0xE718, symBinAddr: 0x32CBC, symSize: 0x60 }
  - { offset: 0x16B69C, size: 0x8, addend: 0x0, symName: __ZN20llama_grammar_parser16parse_alternatesEPKcRKNSt3__112basic_stringIcNS2_11char_traitsIcEENS2_9allocatorIcEEEEjb, symObjAddr: 0x7D8, symBinAddr: 0x25104, symSize: 0x34C }
  - { offset: 0x16C4EF, size: 0x8, addend: 0x0, symName: __ZN20llama_grammar_parser14parse_sequenceEPKcRKNSt3__112basic_stringIcNS2_11char_traitsIcEENS2_9allocatorIcEEEERNS2_6vectorI21llama_grammar_elementNS6_ISC_EEEEb, symObjAddr: 0xB24, symBinAddr: 0x25450, symSize: 0x1E84 }
  - { offset: 0x16FDE6, size: 0x8, addend: 0x0, symName: __ZNSt3__16vectorI21llama_grammar_elementNS_9allocatorIS1_EEE20__throw_length_errorB8ne200100Ev, symObjAddr: 0x9E24, symBinAddr: 0x2E6AC, symSize: 0x14 }
  - { offset: 0x16FF88, size: 0x8, addend: 0x0, symName: __ZL10parse_charPKc, symObjAddr: 0x29A8, symBinAddr: 0x272D4, symSize: 0x288 }
  - { offset: 0x17028A, size: 0x8, addend: 0x0, symName: __ZL9parse_intPKc, symObjAddr: 0x3588, symBinAddr: 0x27E10, symSize: 0x124 }
  - { offset: 0x170538, size: 0x8, addend: 0x0, symName: __ZL10parse_namePKc, symObjAddr: 0x2C30, symBinAddr: 0x2755C, symSize: 0x13C }
  - { offset: 0x170804, size: 0x8, addend: 0x0, symName: '__ZZN20llama_grammar_parser14parse_sequenceEPKcRKNSt3__112basic_stringIcNS2_11char_traitsIcEENS2_9allocatorIcEEEERNS2_6vectorI21llama_grammar_elementNS6_ISC_EEEEbENK3$_0clEyy', symObjAddr: 0x2E10, symBinAddr: 0x27698, symSize: 0x778 }
  - { offset: 0x172932, size: 0x8, addend: 0x0, symName: '__ZZN20llama_grammar_parser14parse_sequenceEPKcRKNSt3__112basic_stringIcNS2_11char_traitsIcEENS2_9allocatorIcEEEERNS2_6vectorI21llama_grammar_elementNS6_ISC_EEEEbENK3$_0clEyy', symObjAddr: 0x2E10, symBinAddr: 0x27698, symSize: 0x778 }
  - { offset: 0x1729A7, size: 0x8, addend: 0x0, symName: __ZL9parse_hexPKci, symObjAddr: 0x9BE4, symBinAddr: 0x2E46C, symSize: 0x240 }
  - { offset: 0x1734D2, size: 0x8, addend: 0x0, symName: __ZNSt3__16vectorI21llama_grammar_elementNS_9allocatorIS1_EEE18__insert_with_sizeB8ne200100INS_11__wrap_iterIPS1_EES8_EES8_NS6_IPKS1_EET_T0_l, symObjAddr: 0x9FF4, symBinAddr: 0x2E7E0, symSize: 0x38C }
  - { offset: 0x173FC3, size: 0x8, addend: 0x0, symName: __ZNSt3__16vectorI21llama_grammar_elementNS_9allocatorIS1_EEE8__appendEm, symObjAddr: 0x9ED4, symBinAddr: 0x2E6C0, symSize: 0x120 }
  - { offset: 0x17438C, size: 0x8, addend: 0x0, symName: __ZNSt3__16vectorI21llama_grammar_elementNS_9allocatorIS1_EEE18__insert_with_sizeB8ne200100INS_11__wrap_iterIPS1_EES8_EES8_NS6_IPKS1_EET_T0_l, symObjAddr: 0x9FF4, symBinAddr: 0x2E7E0, symSize: 0x38C }
  - { offset: 0x174397, size: 0x8, addend: 0x0, symName: __ZN20llama_grammar_parser10parse_ruleEPKc, symObjAddr: 0x36AC, symBinAddr: 0x27F34, symSize: 0x448 }
  - { offset: 0x174F1A, size: 0x8, addend: 0x0, symName: __ZN20llama_grammar_parser5parseEPKc, symObjAddr: 0x3AF4, symBinAddr: 0x2837C, symSize: 0x350 }
  - { offset: 0x175DB5, size: 0x8, addend: 0x0, symName: __ZN20llama_grammar_parser5printEP7__sFILE, symObjAddr: 0x3E44, symBinAddr: 0x286CC, symSize: 0xA40 }
  - { offset: 0x1777BA, size: 0x8, addend: 0x0, symName: __ZNSt3__16__treeINS_12__value_typeIjNS_12basic_stringIcNS_11char_traitsIcEENS_9allocatorIcEEEEEENS_19__map_value_compareIjS8_NS_4lessIjEELb1EEENS5_IS8_EEE7destroyEPNS_11__tree_nodeIS8_PvEE, symObjAddr: 0xE718, symBinAddr: 0x32CBC, symSize: 0x60 }
  - { offset: 0x177E93, size: 0x8, addend: 0x0, symName: __ZNK20llama_grammar_parser7c_rulesEv, symObjAddr: 0x4884, symBinAddr: 0x2910C, symSize: 0x1B8 }
  - { offset: 0x1785F9, size: 0x8, addend: 0x0, symName: __ZNSt3__16vectorIPK21llama_grammar_elementNS_9allocatorIS3_EEE20__throw_length_errorB8ne200100Ev, symObjAddr: 0xE778, symBinAddr: 0x32D1C, symSize: 0x14 }
  - { offset: 0x178611, size: 0x8, addend: 0x0, symName: __ZNSt3__16vectorI23llama_grammar_candidateNS_9allocatorIS1_EEE20__throw_length_errorB8ne200100Ev, symObjAddr: 0xE78C, symBinAddr: 0x32D30, symSize: 0x14 }
  - { offset: 0x17861C, size: 0x8, addend: 0x0, symName: __Z23llama_grammar_get_rulesPK13llama_grammar, symObjAddr: 0x4A3C, symBinAddr: 0x292C4, symSize: 0x8 }
  - { offset: 0x17864C, size: 0x8, addend: 0x0, symName: __Z24llama_grammar_get_stacksP13llama_grammar, symObjAddr: 0x4A44, symBinAddr: 0x292CC, symSize: 0x8 }
  - { offset: 0x17896A, size: 0x8, addend: 0x0, symName: __Z20llama_grammar_acceptP13llama_grammarj, symObjAddr: 0x4A4C, symBinAddr: 0x292D4, symSize: 0x144 }
  - { offset: 0x178F16, size: 0x8, addend: 0x0, symName: __ZL24llama_grammar_accept_chrR13llama_grammarRKNSt3__16vectorIPK21llama_grammar_elementNS1_9allocatorIS5_EEEEjRNS2_IS8_NS6_IS8_EEEE, symObjAddr: 0x4B90, symBinAddr: 0x29418, symSize: 0x300 }
  - { offset: 0x179945, size: 0x8, addend: 0x0, symName: __ZNSt3__16vectorINS0_IPK21llama_grammar_elementNS_9allocatorIS3_EEEENS4_IS6_EEE20__throw_length_errorB8ne200100Ev, symObjAddr: 0xA5D4, symBinAddr: 0x2ED4C, symSize: 0x14 }
  - { offset: 0x17995D, size: 0x8, addend: 0x0, symName: __ZNSt3__110shared_ptrINS_13__empty_stateIcEEED1B8ne200100Ev, symObjAddr: 0xA5E8, symBinAddr: 0x2ED60, symSize: 0x5C }
  - { offset: 0x179968, size: 0x8, addend: 0x0, symName: __ZNSt3__16vectorINS0_IPK21llama_grammar_elementNS_9allocatorIS3_EEEENS4_IS6_EEED1B8ne200100Ev, symObjAddr: 0x4E90, symBinAddr: 0x29718, symSize: 0x74 }
  - { offset: 0x179FBE, size: 0x8, addend: 0x0, symName: __ZL27llama_grammar_advance_stackRKNSt3__16vectorINS0_I21llama_grammar_elementNS_9allocatorIS1_EEEENS2_IS4_EEEERKNS0_IPKS1_NS2_ISA_EEEERNS0_ISC_NS2_ISC_EEEE, symObjAddr: 0x5EC0, symBinAddr: 0x2A748, symSize: 0x52C }
  - { offset: 0x17C169, size: 0x8, addend: 0x0, symName: __Z41llama_grammar_reject_candidates_for_stackRKNSt3__16vectorINS0_I21llama_grammar_elementNS_9allocatorIS1_EEEENS2_IS4_EEEERKNS0_IPKS1_NS2_ISA_EEEERKNS0_I23llama_grammar_candidateNS2_ISF_EEEE, symObjAddr: 0x4F04, symBinAddr: 0x2978C, symSize: 0xFBC }
  - { offset: 0x17F269, size: 0x8, addend: 0x0, symName: __ZL31llama_grammar_reject_candidatesRKNSt3__16vectorINS0_I21llama_grammar_elementNS_9allocatorIS1_EEEENS2_IS4_EEEERKNS0_INS0_IPKS1_NS2_ISA_EEEENS2_ISC_EEEERKNS0_I23llama_grammar_candidateNS2_ISH_EEEE, symObjAddr: 0x63EC, symBinAddr: 0x2AC74, symSize: 0x120 }
  - { offset: 0x17F5F0, size: 0x8, addend: 0x0, symName: __ZNSt3__16vectorI23llama_grammar_candidateNS_9allocatorIS1_EEE20__throw_length_errorB8ne200100Ev, symObjAddr: 0xE78C, symBinAddr: 0x32D30, symSize: 0x14 }
  - { offset: 0x17F608, size: 0x8, addend: 0x0, symName: __ZNSt3__128__exception_guard_exceptionsINS_6vectorINS1_I21llama_grammar_elementNS_9allocatorIS2_EEEENS3_IS5_EEE16__destroy_vectorEED1B8ne200100Ev, symObjAddr: 0xE7A0, symBinAddr: 0x32D44, symSize: 0x84 }
  - { offset: 0x17F929, size: 0x8, addend: 0x0, symName: __ZNSt3__16vectorINS0_IPK21llama_grammar_elementNS_9allocatorIS3_EEEENS4_IS6_EEE24__emplace_back_slow_pathIJRKS6_EEEPS6_DpOT_, symObjAddr: 0xA3F4, symBinAddr: 0x2EB6C, symSize: 0x174 }
  - { offset: 0x180894, size: 0x8, addend: 0x0, symName: __Z23llama_grammar_init_implPK11llama_vocabPPK21llama_grammar_elementmm, symObjAddr: 0x650C, symBinAddr: 0x2AD94, symSize: 0x688 }
  - { offset: 0x1829D6, size: 0x8, addend: 0x0, symName: __ZL35llama_grammar_detect_left_recursionRKNSt3__16vectorINS0_I21llama_grammar_elementNS_9allocatorIS1_EEEENS2_IS4_EEEEmPNS0_IbNS2_IbEEEESB_SB_, symObjAddr: 0x6B94, symBinAddr: 0x2B41C, symSize: 0x190 }
  - { offset: 0x182D46, size: 0x8, addend: 0x0, symName: __ZNSt3__16vectorINS0_I21llama_grammar_elementNS_9allocatorIS1_EEEENS2_IS4_EEE20__throw_length_errorB8ne200100Ev, symObjAddr: 0xE5BC, symBinAddr: 0x32B60, symSize: 0x14 }
  - { offset: 0x182D5E, size: 0x8, addend: 0x0, symName: __ZNSt3__16vectorI21llama_grammar_elementNS_9allocatorIS1_EEE18__assign_with_sizeB8ne200100IPS1_S6_EEvT_T0_l, symObjAddr: 0xE5D0, symBinAddr: 0x32B74, symSize: 0x148 }
  - { offset: 0x182D69, size: 0x8, addend: 0x0, symName: __ZNSt3__16vectorINS0_I21llama_grammar_elementNS_9allocatorIS1_EEEENS2_IS4_EEED1B8ne200100Ev, symObjAddr: 0x6D24, symBinAddr: 0x2B5AC, symSize: 0x74 }
  - { offset: 0x182FE8, size: 0x8, addend: 0x0, symName: __ZNSt3__128__exception_guard_exceptionsINS_6vectorINS1_I21llama_grammar_elementNS_9allocatorIS2_EEEENS3_IS5_EEE16__destroy_vectorEED1B8ne200100Ev, symObjAddr: 0xE7A0, symBinAddr: 0x32D44, symSize: 0x84 }
  - { offset: 0x18401A, size: 0x8, addend: 0x0, symName: __Z23llama_grammar_init_implPK11llama_vocabPKcS3_bPS3_mPKim, symObjAddr: 0x6D98, symBinAddr: 0x2B620, symSize: 0xD40 }
  - { offset: 0x187E1C, size: 0x8, addend: 0x0, symName: __ZNSt3__16__treeINS_12__value_typeINS_12basic_stringIcNS_11char_traitsIcEENS_9allocatorIcEEEEjEENS_19__map_value_compareIS7_S8_NS_4lessIS7_EELb1EEENS5_IS8_EEE7destroyEPNS_11__tree_nodeIS8_PvEE, symObjAddr: 0xA644, symBinAddr: 0x2EDBC, symSize: 0x60 }
  - { offset: 0x188060, size: 0x8, addend: 0x0, symName: __ZNSt3__16vectorI29llama_grammar_trigger_patternNS_9allocatorIS1_EEE24__emplace_back_slow_pathIJEEEPS1_DpOT_, symObjAddr: 0xE838, symBinAddr: 0x32DC8, symSize: 0x1B0 }
  - { offset: 0x18858A, size: 0x8, addend: 0x0, symName: __ZNSt3__111basic_regexIcNS_12regex_traitsIcEEEC2B8ne200100INS_11char_traitsIcEENS_9allocatorIcEEEERKNS_12basic_stringIcT_T0_EENS_15regex_constants18syntax_option_typeE, symObjAddr: 0xECD4, symBinAddr: 0x33264, symSize: 0xD4 }
  - { offset: 0x18875C, size: 0x8, addend: 0x0, symName: __ZNSt3__16vectorI29llama_grammar_trigger_patternNS_9allocatorIS1_EEE24__emplace_back_slow_pathIJEEEPS1_DpOT_, symObjAddr: 0xE838, symBinAddr: 0x32DC8, symSize: 0x1B0 }
  - { offset: 0x188767, size: 0x8, addend: 0x0, symName: __ZN20llama_grammar_parserD1Ev, symObjAddr: 0x7BF4, symBinAddr: 0x2C47C, symSize: 0x80 }
  - { offset: 0x188A84, size: 0x8, addend: 0x0, symName: __ZNSt3__16vectorI29llama_grammar_trigger_patternNS_9allocatorIS1_EEED1B8ne200100Ev, symObjAddr: 0x7B34, symBinAddr: 0x2C3BC, symSize: 0xC0 }
  - { offset: 0x188E13, size: 0x8, addend: 0x0, symName: __ZNSt3__111basic_regexIcNS_12regex_traitsIcEEED1Ev, symObjAddr: 0x7AD8, symBinAddr: 0x2C360, symSize: 0x5C }
  - { offset: 0x189159, size: 0x8, addend: 0x0, symName: __Z23llama_grammar_free_implP13llama_grammar, symObjAddr: 0x7C74, symBinAddr: 0x2C4FC, symSize: 0x1C }
  - { offset: 0x1891AE, size: 0x8, addend: 0x0, symName: __ZN13llama_grammarD2Ev, symObjAddr: 0xA6A4, symBinAddr: 0x2EE1C, symSize: 0x188 }
  - { offset: 0x18A67D, size: 0x8, addend: 0x0, symName: __Z24llama_grammar_clone_implRK13llama_grammar, symObjAddr: 0x7C90, symBinAddr: 0x2C518, symSize: 0x4D8 }
  - { offset: 0x18B74A, size: 0x8, addend: 0x0, symName: __ZNSt3__135__uninitialized_allocator_copy_implB8ne200100INS_9allocatorINS_6vectorI21llama_grammar_elementNS1_IS3_EEEEEEPS5_S7_S7_EET2_RT_T0_T1_S8_, symObjAddr: 0x167E4, symBinAddr: 0x3AC68, symSize: 0xF8 }
  - { offset: 0x18B755, size: 0x8, addend: 0x0, symName: __ZNSt3__16vectorI29llama_grammar_trigger_patternNS_9allocatorIS1_EEE18__construct_at_endIPS1_S6_EEvT_T0_m, symObjAddr: 0x16B44, symBinAddr: 0x3AFC8, symSize: 0x10C }
  - { offset: 0x18BB29, size: 0x8, addend: 0x0, symName: __ZNSt3__16vectorINS_4pairIiNS1_ImmEEEENS_9allocatorIS3_EEE20__throw_length_errorB8ne200100Ev, symObjAddr: 0x16B30, symBinAddr: 0x3AFB4, symSize: 0x14 }
  - { offset: 0x18BB41, size: 0x8, addend: 0x0, symName: __ZNSt3__16vectorI29llama_grammar_trigger_patternNS_9allocatorIS1_EEE18__construct_at_endIPS1_S6_EEvT_T0_m, symObjAddr: 0x16B44, symBinAddr: 0x3AFC8, symSize: 0x10C }
  - { offset: 0x18BB4C, size: 0x8, addend: 0x0, symName: __ZNSt3__16vectorI29llama_grammar_trigger_patternNS_9allocatorIS1_EEE20__throw_length_errorB8ne200100Ev, symObjAddr: 0xEB0C, symBinAddr: 0x3309C, symSize: 0x14 }
  - { offset: 0x18BB64, size: 0x8, addend: 0x0, symName: __ZNSt3__134__uninitialized_allocator_relocateB8ne200100INS_9allocatorI29llama_grammar_trigger_patternEEPS2_EEvRT_T0_S7_S7_, symObjAddr: 0xEB20, symBinAddr: 0x330B0, symSize: 0xFC }
  - { offset: 0x18BB6F, size: 0x8, addend: 0x0, symName: __ZNSt3__128__exception_guard_exceptionsINS_6vectorINS1_IPK21llama_grammar_elementNS_9allocatorIS4_EEEENS5_IS7_EEE16__destroy_vectorEED1B8ne200100Ev, symObjAddr: 0x16948, symBinAddr: 0x3ADCC, symSize: 0x84 }
  - { offset: 0x18BDFC, size: 0x8, addend: 0x0, symName: __ZNSt3__128__exception_guard_exceptionsINS_6vectorI29llama_grammar_trigger_patternNS_9allocatorIS2_EEE16__destroy_vectorEED1B8ne200100Ev, symObjAddr: 0x16C50, symBinAddr: 0x3B0D4, symSize: 0xD0 }
  - { offset: 0x18BE29, size: 0x8, addend: 0x0, symName: __ZNSt3__128__exception_guard_exceptionsINS_6vectorI29llama_grammar_trigger_patternNS_9allocatorIS2_EEE16__destroy_vectorEED1B8ne200100Ev, symObjAddr: 0x16C50, symBinAddr: 0x3B0D4, symSize: 0xD0 }
  - { offset: 0x18C89C, size: 0x8, addend: 0x0, symName: __Z24llama_grammar_apply_implRK13llama_grammarP22llama_token_data_array, symObjAddr: 0x8168, symBinAddr: 0x2C9F0, symSize: 0x58C }
  - { offset: 0x18DE85, size: 0x8, addend: 0x0, symName: __ZNSt3__16vectorINS_4pairINS0_IjNS_9allocatorIjEEEE18llama_partial_utf8EENS2_IS6_EEE20__throw_length_errorB8ne200100Ev, symObjAddr: 0x16D20, symBinAddr: 0x3B1A4, symSize: 0x14 }
  - { offset: 0x18DE9D, size: 0x8, addend: 0x0, symName: __ZNSt3__16vectorINS0_IPK21llama_grammar_elementNS_9allocatorIS3_EEEENS4_IS6_EEE24__emplace_back_slow_pathIJRS6_EEEPS6_DpOT_, symObjAddr: 0x16D34, symBinAddr: 0x3B1B8, symSize: 0x174 }
  - { offset: 0x18DEA8, size: 0x8, addend: 0x0, symName: __ZNSt3__16vectorINS_4pairINS0_IjNS_9allocatorIjEEEE18llama_partial_utf8EENS2_IS6_EEED1B8ne200100Ev, symObjAddr: 0x8B8C, symBinAddr: 0x2D414, symSize: 0x74 }
  - { offset: 0x18E94D, size: 0x8, addend: 0x0, symName: __Z25llama_grammar_accept_implR13llama_grammari, symObjAddr: 0x8C00, symBinAddr: 0x2D488, symSize: 0x4F0 }
  - { offset: 0x18FB71, size: 0x8, addend: 0x0, symName: __Z26llama_grammar_accept_tokenR13llama_grammariRKNSt3__112basic_stringIcNS1_11char_traitsIcEENS1_9allocatorIcEEEE, symObjAddr: 0x90F0, symBinAddr: 0x2D978, symSize: 0x878 }
  - { offset: 0x192A3A, size: 0x8, addend: 0x0, symName: __ZNSt3__16vectorINS_4pairIiNS1_ImmEEEENS_9allocatorIS3_EEE9push_backB8ne200100EOS3_, symObjAddr: 0x9968, symBinAddr: 0x2E1F0, symSize: 0x134 }
  - { offset: 0x192E1C, size: 0x8, addend: 0x0, symName: __Z24llama_grammar_accept_strR13llama_grammarRKNSt3__112basic_stringIcNS1_11char_traitsIcEENS1_9allocatorIcEEEE, symObjAddr: 0x9A9C, symBinAddr: 0x2E324, symSize: 0x148 }
  - { offset: 0x192E31, size: 0x8, addend: 0x0, symName: __ZNSt3__14pairINS_12basic_stringIcNS_11char_traitsIcEENS_9allocatorIcEEEES6_ED1Ev, symObjAddr: 0x12C30, symBinAddr: 0x3713C, symSize: 0x58 }
  - { offset: 0x1930E8, size: 0x8, addend: 0x0, symName: __ZNSt3__16vectorINS0_IPK21llama_grammar_elementNS_9allocatorIS3_EEEENS4_IS6_EEE24__emplace_back_slow_pathIJRS6_EEEPS6_DpOT_, symObjAddr: 0x16D34, symBinAddr: 0x3B1B8, symSize: 0x174 }
  - { offset: 0x1938B6, size: 0x8, addend: 0x0, symName: __ZNSt3__128__exception_guard_exceptionsINS_29_AllocatorDestroyRangeReverseINS_9allocatorINS_6vectorIPK21llama_grammar_elementNS2_IS6_EEEEEEPS8_EEED1B8ne200100Ev, symObjAddr: 0x16AC4, symBinAddr: 0x3AF48, symSize: 0x6C }
  - { offset: 0x193D58, size: 0x8, addend: 0x0, symName: __Z24llama_grammar_accept_strR13llama_grammarRKNSt3__112basic_stringIcNS1_11char_traitsIcEENS1_9allocatorIcEEEE, symObjAddr: 0x9A9C, symBinAddr: 0x2E324, symSize: 0x148 }
  - { offset: 0x19460C, size: 0x8, addend: 0x0, symName: __ZNSt3__114__split_bufferINS_6vectorIPK21llama_grammar_elementNS_9allocatorIS4_EEEERNS5_IS7_EEED1Ev, symObjAddr: 0xA568, symBinAddr: 0x2ECE0, symSize: 0x6C }
  - { offset: 0x19489B, size: 0x8, addend: 0x0, symName: __ZNSt3__110shared_ptrINS_13__empty_stateIcEEED1B8ne200100Ev, symObjAddr: 0xA5E8, symBinAddr: 0x2ED60, symSize: 0x5C }
  - { offset: 0x194C1B, size: 0x8, addend: 0x0, symName: __ZNSt3__16vectorINS_9sub_matchIPKcEENS_9allocatorIS4_EEE6assignEmRKS4_, symObjAddr: 0xACC4, symBinAddr: 0x2F414, symSize: 0x1E0 }
  - { offset: 0x19517A, size: 0x8, addend: 0x0, symName: __ZNKSt3__111basic_regexIcNS_12regex_traitsIcEEE21__match_at_start_ecmaINS_9allocatorINS_9sub_matchIPKcEEEEEEbS8_S8_RNS_13match_resultsIS8_T_EENS_15regex_constants15match_flag_typeEb, symObjAddr: 0xAEA4, symBinAddr: 0x2F5F4, symSize: 0x484 }
  - { offset: 0x195185, size: 0x8, addend: 0x0, symName: __ZNKSt3__111basic_regexIcNS_12regex_traitsIcEEE27__match_at_start_posix_subsINS_9allocatorINS_9sub_matchIPKcEEEEEEbS8_S8_RNS_13match_resultsIS8_T_EENS_15regex_constants15match_flag_typeEb, symObjAddr: 0xBBD8, symBinAddr: 0x30328, symSize: 0x5AC }
  - { offset: 0x196E5F, size: 0x8, addend: 0x0, symName: __ZNKSt3__111basic_regexIcNS_12regex_traitsIcEEE21__match_at_start_ecmaINS_9allocatorINS_9sub_matchIPKcEEEEEEbS8_S8_RNS_13match_resultsIS8_T_EENS_15regex_constants15match_flag_typeEb, symObjAddr: 0xAEA4, symBinAddr: 0x2F5F4, symSize: 0x484 }
  - { offset: 0x198012, size: 0x8, addend: 0x0, symName: __ZNKSt3__111basic_regexIcNS_12regex_traitsIcEEE29__match_at_start_posix_nosubsINS_9allocatorINS_9sub_matchIPKcEEEEEEbS8_S8_RNS_13match_resultsIS8_T_EENS_15regex_constants15match_flag_typeEb, symObjAddr: 0xB328, symBinAddr: 0x2FA78, symSize: 0x8B0 }
  - { offset: 0x199DF1, size: 0x8, addend: 0x0, symName: __ZNSt3__16vectorINS_9sub_matchINS_11__wrap_iterIPKcEEEENS_9allocatorIS6_EEE8__appendEm, symObjAddr: 0xDDE8, symBinAddr: 0x32538, symSize: 0x1A0 }
  - { offset: 0x19A330, size: 0x8, addend: 0x0, symName: __ZNSt3__16vectorINS_9sub_matchINS_11__wrap_iterIPKcEEEENS_9allocatorIS6_EEE20__throw_length_errorB8ne200100Ev, symObjAddr: 0xDF88, symBinAddr: 0x326D8, symSize: 0x14 }
  - { offset: 0x19A58F, size: 0x8, addend: 0x0, symName: __ZNSt3__16vectorINS_9sub_matchIPKcEENS_9allocatorIS4_EEE20__throw_length_errorB8ne200100Ev, symObjAddr: 0xC7B4, symBinAddr: 0x30F04, symSize: 0x14 }
  - { offset: 0x19A5A7, size: 0x8, addend: 0x0, symName: __ZNSt3__16vectorINS_4pairImPKcEENS_9allocatorIS4_EEE8__appendEm, symObjAddr: 0xC7C8, symBinAddr: 0x30F18, symSize: 0x120 }
  - { offset: 0x19ACBE, size: 0x8, addend: 0x0, symName: __ZNSt3__16vectorINS_7__stateIcEENS_9allocatorIS2_EEE24__emplace_back_slow_pathIJS2_EEEPS2_DpOT_, symObjAddr: 0xC2DC, symBinAddr: 0x30A2C, symSize: 0x17C }
  - { offset: 0x19B34A, size: 0x8, addend: 0x0, symName: __ZNSt3__16vectorINS_9sub_matchIPKcEENS_9allocatorIS4_EEE8__appendEmRKS4_, symObjAddr: 0xC604, symBinAddr: 0x30D54, symSize: 0x1B0 }
  - { offset: 0x19B851, size: 0x8, addend: 0x0, symName: __ZNSt3__16vectorINS_9sub_matchIPKcEENS_9allocatorIS4_EEE20__throw_length_errorB8ne200100Ev, symObjAddr: 0xC7B4, symBinAddr: 0x30F04, symSize: 0x14 }
  - { offset: 0x19B85C, size: 0x8, addend: 0x0, symName: __ZNSt3__16vectorINS_4pairImPKcEENS_9allocatorIS4_EEE8__appendEm, symObjAddr: 0xC7C8, symBinAddr: 0x30F18, symSize: 0x120 }
  - { offset: 0x19BC90, size: 0x8, addend: 0x0, symName: __ZNSt3__16vectorINS_4pairImPKcEENS_9allocatorIS4_EEE20__throw_length_errorB8ne200100Ev, symObjAddr: 0xC8E8, symBinAddr: 0x31038, symSize: 0x14 }
  - { offset: 0x19BC9B, size: 0x8, addend: 0x0, symName: __ZNSt3__17__stateIcEC2ERKS1_, symObjAddr: 0xC8FC, symBinAddr: 0x3104C, symSize: 0x16C }
  - { offset: 0x19C2DD, size: 0x8, addend: 0x0, symName: __ZNSt3__16vectorINS_7__stateIcEENS_9allocatorIS2_EEED1B8ne200100Ev, symObjAddr: 0xC25C, symBinAddr: 0x309AC, symSize: 0x80 }
  - { offset: 0x19C6CC, size: 0x8, addend: 0x0, symName: __ZNSt3__17__stateIcED1Ev, symObjAddr: 0xC184, symBinAddr: 0x308D4, symSize: 0x40 }
  - { offset: 0x19CDB1, size: 0x8, addend: 0x0, symName: __ZNSt3__15dequeINS_7__stateIcEENS_9allocatorIS2_EEE19__add_back_capacityEv, symObjAddr: 0xCC38, symBinAddr: 0x31388, symSize: 0x338 }
  - { offset: 0x19DA14, size: 0x8, addend: 0x0, symName: __ZNSt3__15dequeINS_7__stateIcEENS_9allocatorIS2_EEE20__add_front_capacityEv, symObjAddr: 0xD3F0, symBinAddr: 0x31B40, symSize: 0x374 }
  - { offset: 0x19E77A, size: 0x8, addend: 0x0, symName: __ZNSt3__15dequeINS_7__stateIcEENS_9allocatorIS2_EEED1B8ne200100Ev, symObjAddr: 0xCBC4, symBinAddr: 0x31314, symSize: 0x74 }
  - { offset: 0x19EAC6, size: 0x8, addend: 0x0, symName: __ZNSt3__16vectorINS_9sub_matchIPKcEENS_9allocatorIS4_EEE18__assign_with_sizeB8ne200100IPS4_S9_EEvT_T0_l, symObjAddr: 0xD8EC, symBinAddr: 0x3203C, symSize: 0x200 }
  - { offset: 0x19F25B, size: 0x8, addend: 0x0, symName: __ZNSt3__16vectorINS_4pairImPKcEENS_9allocatorIS4_EEE18__assign_with_sizeB8ne200100IPS4_S9_EEvT_T0_l, symObjAddr: 0xDAEC, symBinAddr: 0x3223C, symSize: 0x2FC }
  - { offset: 0x19F278, size: 0x8, addend: 0x0, symName: __ZNSt3__16vectorINS_4pairImPKcEENS_9allocatorIS4_EEE18__assign_with_sizeB8ne200100IPS4_S9_EEvT_T0_l, symObjAddr: 0xDAEC, symBinAddr: 0x3223C, symSize: 0x2FC }
  - { offset: 0x19F9D3, size: 0x8, addend: 0x0, symName: __ZNSt3__16vectorINS_9sub_matchINS_11__wrap_iterIPKcEEEENS_9allocatorIS6_EEE8__appendEm, symObjAddr: 0xDDE8, symBinAddr: 0x32538, symSize: 0x1A0 }
  - { offset: 0x19FB83, size: 0x8, addend: 0x0, symName: __ZNSt3__16vectorINS_7__stateIcEENS_9allocatorIS2_EEE26__swap_out_circular_bufferERNS_14__split_bufferIS2_RS4_EE, symObjAddr: 0xC458, symBinAddr: 0x30BA8, symSize: 0x124 }
  - { offset: 0x1A00F0, size: 0x8, addend: 0x0, symName: __ZNSt3__16vectorINS_7__stateIcEENS_9allocatorIS2_EEE20__throw_length_errorB8ne200100Ev, symObjAddr: 0xC5F0, symBinAddr: 0x30D40, symSize: 0x14 }
  - { offset: 0x1A0108, size: 0x8, addend: 0x0, symName: __ZNSt3__16vectorINS_9sub_matchIPKcEENS_9allocatorIS4_EEE8__appendEmRKS4_, symObjAddr: 0xC604, symBinAddr: 0x30D54, symSize: 0x1B0 }
  - { offset: 0x1A0113, size: 0x8, addend: 0x0, symName: __ZNSt3__114__split_bufferINS_7__stateIcEERNS_9allocatorIS2_EEED1Ev, symObjAddr: 0xC57C, symBinAddr: 0x30CCC, symSize: 0x74 }
  - { offset: 0x1A09F7, size: 0x8, addend: 0x0, symName: __ZNSt3__16vectorINS_4pairImPKcEENS_9allocatorIS4_EEE20__throw_length_errorB8ne200100Ev, symObjAddr: 0xC8E8, symBinAddr: 0x31038, symSize: 0x14 }
  - { offset: 0x1A0A0F, size: 0x8, addend: 0x0, symName: __ZNSt3__17__stateIcEC2ERKS1_, symObjAddr: 0xC8FC, symBinAddr: 0x3104C, symSize: 0x16C }
  - { offset: 0x1A0E12, size: 0x8, addend: 0x0, symName: __ZNSt3__15dequeINS_7__stateIcEENS_9allocatorIS2_EEE5clearEv, symObjAddr: 0xCA68, symBinAddr: 0x311B8, symSize: 0x15C }
  - { offset: 0x1A17AD, size: 0x8, addend: 0x0, symName: __ZNSt3__114__split_bufferIPNS_7__stateIcEENS_9allocatorIS3_EEE12emplace_backIJRS3_EEEvDpOT_, symObjAddr: 0xCF70, symBinAddr: 0x316C0, symSize: 0x17C }
  - { offset: 0x1A1C20, size: 0x8, addend: 0x0, symName: __ZNSt3__114__split_bufferIPNS_7__stateIcEENS_9allocatorIS3_EEE12emplace_backIJS3_EEEvDpOT_, symObjAddr: 0xD0EC, symBinAddr: 0x3183C, symSize: 0x17C }
  - { offset: 0x1A1C36, size: 0x8, addend: 0x0, symName: __ZNSt3__114__split_bufferIPNS_7__stateIcEENS_9allocatorIS3_EEE12emplace_backIJS3_EEEvDpOT_, symObjAddr: 0xD0EC, symBinAddr: 0x3183C, symSize: 0x17C }
  - { offset: 0x1A20A9, size: 0x8, addend: 0x0, symName: __ZNSt3__114__split_bufferIPNS_7__stateIcEENS_9allocatorIS3_EEE13emplace_frontIJS3_EEEvDpOT_, symObjAddr: 0xD268, symBinAddr: 0x319B8, symSize: 0x188 }
  - { offset: 0x1A20BF, size: 0x8, addend: 0x0, symName: __ZNSt3__114__split_bufferIPNS_7__stateIcEENS_9allocatorIS3_EEE13emplace_frontIJS3_EEEvDpOT_, symObjAddr: 0xD268, symBinAddr: 0x319B8, symSize: 0x188 }
  - { offset: 0x1A2554, size: 0x8, addend: 0x0, symName: __ZNSt3__15dequeINS_7__stateIcEENS_9allocatorIS2_EEE20__add_front_capacityEv, symObjAddr: 0xD3F0, symBinAddr: 0x31B40, symSize: 0x374 }
  - { offset: 0x1A2634, size: 0x8, addend: 0x0, symName: __ZNSt3__114__split_bufferIPNS_7__stateIcEENS_9allocatorIS3_EEE13emplace_frontIJRS3_EEEvDpOT_, symObjAddr: 0xD764, symBinAddr: 0x31EB4, symSize: 0x188 }
  - { offset: 0x1A2AC9, size: 0x8, addend: 0x0, symName: __ZNSt3__16vectorINS_9sub_matchIPKcEENS_9allocatorIS4_EEE18__assign_with_sizeB8ne200100IPS4_S9_EEvT_T0_l, symObjAddr: 0xD8EC, symBinAddr: 0x3203C, symSize: 0x200 }
  - { offset: 0x1A2F5D, size: 0x8, addend: 0x0, symName: __ZNSt3__16vectorINS_9sub_matchINS_11__wrap_iterIPKcEEEENS_9allocatorIS6_EEE20__throw_length_errorB8ne200100Ev, symObjAddr: 0xDF88, symBinAddr: 0x326D8, symSize: 0x14 }
  - { offset: 0x1A2F75, size: 0x8, addend: 0x0, symName: __ZNSt3__16__treeINS_12__value_typeINS_12basic_stringIcNS_11char_traitsIcEENS_9allocatorIcEEEEjEENS_19__map_value_compareIS7_S8_NS_4lessIS7_EELb1EEENS5_IS8_EEE25__emplace_unique_key_argsIS7_JS7_RjEEENS_4pairINS_15__tree_iteratorIS8_PNS_11__tree_nodeIS8_PvEElEEbEERKT_DpOT0_, symObjAddr: 0xDF9C, symBinAddr: 0x326EC, symSize: 0x180 }
  - { offset: 0x1A37EB, size: 0x8, addend: 0x0, symName: __ZNSt3__114__split_bufferI29llama_grammar_trigger_patternRNS_9allocatorIS1_EEED1Ev, symObjAddr: 0xEA54, symBinAddr: 0x32FE4, symSize: 0xB8 }
  - { offset: 0x1A3B3B, size: 0x8, addend: 0x0, symName: __ZNSt3__111basic_regexIcNS_12regex_traitsIcEEEC1B8ne200100Ev, symObjAddr: 0xE9E8, symBinAddr: 0x32F78, symSize: 0x6C }
  - { offset: 0x1A3DEC, size: 0x8, addend: 0x0, symName: __ZNSt3__128__exception_guard_exceptionsINS_29_AllocatorDestroyRangeReverseINS_9allocatorI29llama_grammar_trigger_patternEEPS3_EEED1B8ne200100Ev, symObjAddr: 0xEC1C, symBinAddr: 0x331AC, symSize: 0xB8 }
  - { offset: 0x1A4105, size: 0x8, addend: 0x0, symName: __ZNSt3__111basic_regexIcNS_12regex_traitsIcEEE7__parseINS_11__wrap_iterIPKcEEEET_S9_S9_, symObjAddr: 0xEDA8, symBinAddr: 0x33338, symSize: 0x200 }
  - { offset: 0x1A4A88, size: 0x8, addend: 0x0, symName: __ZNSt3__111basic_regexIcNS_12regex_traitsIcEEE13__parse_egrepINS_11__wrap_iterIPKcEEEET_S9_S9_, symObjAddr: 0xF6C0, symBinAddr: 0x33C50, symSize: 0x1A0 }
  - { offset: 0x1A501B, size: 0x8, addend: 0x0, symName: __ZNSt3__111basic_regexIcNS_12regex_traitsIcEEE24__parse_extended_reg_expINS_11__wrap_iterIPKcEEEET_S9_S9_, symObjAddr: 0xF3BC, symBinAddr: 0x3394C, symSize: 0x164 }
  - { offset: 0x1A5350, size: 0x8, addend: 0x0, symName: __ZNSt3__111basic_regexIcNS_12regex_traitsIcEEE12__parse_grepINS_11__wrap_iterIPKcEEEET_S9_S9_, symObjAddr: 0xF520, symBinAddr: 0x33AB0, symSize: 0x1A0 }
  - { offset: 0x1A5364, size: 0x8, addend: 0x0, symName: __ZNSt3__111basic_regexIcNS_12regex_traitsIcEEE21__parse_basic_reg_expINS_11__wrap_iterIPKcEEEET_S9_S9_, symObjAddr: 0xF23C, symBinAddr: 0x337CC, symSize: 0x180 }
  - { offset: 0x1A5685, size: 0x8, addend: 0x0, symName: __ZNSt3__111basic_regexIcNS_12regex_traitsIcEEE24__parse_extended_reg_expINS_11__wrap_iterIPKcEEEET_S9_S9_, symObjAddr: 0xF3BC, symBinAddr: 0x3394C, symSize: 0x164 }
  - { offset: 0x1A5699, size: 0x8, addend: 0x0, symName: __ZNSt3__111basic_regexIcNS_12regex_traitsIcEEE12__parse_grepINS_11__wrap_iterIPKcEEEET_S9_S9_, symObjAddr: 0xF520, symBinAddr: 0x33AB0, symSize: 0x1A0 }
  - { offset: 0x1A5C2C, size: 0x8, addend: 0x0, symName: __ZNSt3__111basic_regexIcNS_12regex_traitsIcEEE16__parse_ecma_expINS_11__wrap_iterIPKcEEEET_S9_S9_, symObjAddr: 0xEFF4, symBinAddr: 0x33584, symSize: 0x248 }
  - { offset: 0x1A63EB, size: 0x8, addend: 0x0, symName: __ZNSt3__111basic_regexIcNS_12regex_traitsIcEEE17__parse_assertionINS_11__wrap_iterIPKcEEEET_S9_S9_, symObjAddr: 0xFAA4, symBinAddr: 0x34034, symSize: 0x324 }
  - { offset: 0x1A6903, size: 0x8, addend: 0x0, symName: __ZNSt3__111basic_regexIcNS_12regex_traitsIcEEE12__parse_atomINS_11__wrap_iterIPKcEEEET_S9_S9_, symObjAddr: 0xFDC8, symBinAddr: 0x34358, symSize: 0x268 }
  - { offset: 0x1A6C70, size: 0x8, addend: 0x0, symName: __ZNSt3__111basic_regexIcNS_12regex_traitsIcEEE23__parse_ERE_dupl_symbolINS_11__wrap_iterIPKcEEEET_S9_S9_PNS_16__owns_one_stateIcEEjj, symObjAddr: 0x10030, symBinAddr: 0x345C0, symSize: 0x378 }
  - { offset: 0x1A6C84, size: 0x8, addend: 0x0, symName: __ZNSt3__111basic_regexIcNS_12regex_traitsIcEEE23__parse_ERE_dupl_symbolINS_11__wrap_iterIPKcEEEET_S9_S9_PNS_16__owns_one_stateIcEEjj, symObjAddr: 0x10030, symBinAddr: 0x345C0, symSize: 0x378 }
  - { offset: 0x1A72A0, size: 0x8, addend: 0x0, symName: __ZNSt3__111basic_regexIcNS_12regex_traitsIcEEE20__push_word_boundaryEb, symObjAddr: 0x103A8, symBinAddr: 0x34938, symSize: 0x6C }
  - { offset: 0x1A749E, size: 0x8, addend: 0x0, symName: __ZNSt3__111basic_regexIcNS_12regex_traitsIcEEE18__parse_nondupl_REINS_11__wrap_iterIPKcEEEET_S9_S9_, symObjAddr: 0x15C10, symBinAddr: 0x3A11C, symSize: 0x20C }
  - { offset: 0x1A795A, size: 0x8, addend: 0x0, symName: __ZNSt3__111basic_regexIcNS_12regex_traitsIcEEE22__parse_RE_dupl_symbolINS_11__wrap_iterIPKcEEEET_S9_S9_PNS_16__owns_one_stateIcEEjj, symObjAddr: 0x15E1C, symBinAddr: 0x3A328, symSize: 0x274 }
  - { offset: 0x1A796E, size: 0x8, addend: 0x0, symName: __ZNSt3__111basic_regexIcNS_12regex_traitsIcEEE22__parse_RE_dupl_symbolINS_11__wrap_iterIPKcEEEET_S9_S9_PNS_16__owns_one_stateIcEEjj, symObjAddr: 0x15E1C, symBinAddr: 0x3A328, symSize: 0x274 }
  - { offset: 0x1A7E62, size: 0x8, addend: 0x0, symName: __ZNSt3__111basic_regexIcNS_12regex_traitsIcEEE32__parse_one_char_or_coll_elem_REINS_11__wrap_iterIPKcEEEET_S9_S9_, symObjAddr: 0x16090, symBinAddr: 0x3A59C, symSize: 0x18C }
  - { offset: 0x1A7EB9, size: 0x8, addend: 0x0, symName: __ZNSt3__111basic_regexIcNS_12regex_traitsIcEEE22__parse_ERE_expressionINS_11__wrap_iterIPKcEEEET_S9_S9_, symObjAddr: 0x1634C, symBinAddr: 0x3A858, symSize: 0x1F0 }
  - { offset: 0x1A8262, size: 0x8, addend: 0x0, symName: __ZNSt3__111basic_regexIcNS_12regex_traitsIcEEE33__parse_one_char_or_coll_elem_EREINS_11__wrap_iterIPKcEEEET_S9_S9_, symObjAddr: 0x1653C, symBinAddr: 0x3AA48, symSize: 0x158 }
  - { offset: 0x1A8292, size: 0x8, addend: 0x0, symName: __ZNSt3__111__end_stateIcED1Ev, symObjAddr: 0xF8AC, symBinAddr: 0x33E3C, symSize: 0x4 }
  - { offset: 0x1A82BE, size: 0x8, addend: 0x0, symName: __ZNSt3__111__end_stateIcED0Ev, symObjAddr: 0xF8B0, symBinAddr: 0x33E40, symSize: 0x4 }
  - { offset: 0x1A82DE, size: 0x8, addend: 0x0, symName: __ZNKSt3__111__end_stateIcE6__execERNS_7__stateIcEE, symObjAddr: 0xF8B4, symBinAddr: 0x33E44, symSize: 0xC }
  - { offset: 0x1A8311, size: 0x8, addend: 0x0, symName: __ZNKSt3__16__nodeIcE12__exec_splitEbRNS_7__stateIcEE, symObjAddr: 0xF8C0, symBinAddr: 0x33E50, symSize: 0x4 }
  - { offset: 0x1A8351, size: 0x8, addend: 0x0, symName: __ZNKSt3__16__nodeIcE6__execERNS_7__stateIcEE, symObjAddr: 0xF8C4, symBinAddr: 0x33E54, symSize: 0x4 }
  - { offset: 0x1A839D, size: 0x8, addend: 0x0, symName: __ZNSt3__120__shared_ptr_pointerIPNS_13__empty_stateIcEENS_10shared_ptrIS2_E27__shared_ptr_default_deleteIS2_S2_EENS_9allocatorIS2_EEED1Ev, symObjAddr: 0xF8C8, symBinAddr: 0x33E58, symSize: 0x4 }
  - { offset: 0x1A83BF, size: 0x8, addend: 0x0, symName: __ZNSt3__120__shared_ptr_pointerIPNS_13__empty_stateIcEENS_10shared_ptrIS2_E27__shared_ptr_default_deleteIS2_S2_EENS_9allocatorIS2_EEED1Ev, symObjAddr: 0xF8C8, symBinAddr: 0x33E58, symSize: 0x4 }
  - { offset: 0x1A83F5, size: 0x8, addend: 0x0, symName: __ZNSt3__120__shared_ptr_pointerIPNS_13__empty_stateIcEENS_10shared_ptrIS2_E27__shared_ptr_default_deleteIS2_S2_EENS_9allocatorIS2_EEED0Ev, symObjAddr: 0xF8CC, symBinAddr: 0x33E5C, symSize: 0x14 }
  - { offset: 0x1A8458, size: 0x8, addend: 0x0, symName: __ZNSt3__120__shared_ptr_pointerIPNS_13__empty_stateIcEENS_10shared_ptrIS2_E27__shared_ptr_default_deleteIS2_S2_EENS_9allocatorIS2_EEE16__on_zero_sharedEv, symObjAddr: 0xF8E0, symBinAddr: 0x33E70, symSize: 0x18 }
  - { offset: 0x1A8500, size: 0x8, addend: 0x0, symName: __ZNKSt3__120__shared_ptr_pointerIPNS_13__empty_stateIcEENS_10shared_ptrIS2_E27__shared_ptr_default_deleteIS2_S2_EENS_9allocatorIS2_EEE13__get_deleterERKSt9type_info, symObjAddr: 0xF8F8, symBinAddr: 0x33E88, symSize: 0x74 }
  - { offset: 0x1A8624, size: 0x8, addend: 0x0, symName: __ZNSt3__120__shared_ptr_pointerIPNS_13__empty_stateIcEENS_10shared_ptrIS2_E27__shared_ptr_default_deleteIS2_S2_EENS_9allocatorIS2_EEE21__on_zero_shared_weakEv, symObjAddr: 0xF96C, symBinAddr: 0x33EFC, symSize: 0x4 }
  - { offset: 0x1A8658, size: 0x8, addend: 0x0, symName: __ZNSt3__120__shared_ptr_pointerIPNS_13__empty_stateIcEENS_10shared_ptrIS2_E27__shared_ptr_default_deleteIS2_S2_EENS_9allocatorIS2_EEE21__on_zero_shared_weakEv, symObjAddr: 0xF96C, symBinAddr: 0x33EFC, symSize: 0x4 }
  - { offset: 0x1A867A, size: 0x8, addend: 0x0, symName: __ZNSt3__120__shared_ptr_pointerIPNS_13__empty_stateIcEENS_10shared_ptrIS2_E27__shared_ptr_default_deleteIS2_S2_EENS_9allocatorIS2_EEE21__on_zero_shared_weakEv, symObjAddr: 0xF96C, symBinAddr: 0x33EFC, symSize: 0x4 }
  - { offset: 0x1A86AE, size: 0x8, addend: 0x0, symName: __ZNSt3__120__shared_ptr_pointerIPNS_13__empty_stateIcEENS_10shared_ptrIS2_E27__shared_ptr_default_deleteIS2_S2_EENS_9allocatorIS2_EEE21__on_zero_shared_weakEv, symObjAddr: 0xF96C, symBinAddr: 0x33EFC, symSize: 0x4 }
  - { offset: 0x1A86D5, size: 0x8, addend: 0x0, symName: __ZNSt3__113__empty_stateIcED1Ev, symObjAddr: 0xF970, symBinAddr: 0x33F00, symSize: 0x48 }
  - { offset: 0x1A86F9, size: 0x8, addend: 0x0, symName: __ZNSt3__113__empty_stateIcED1Ev, symObjAddr: 0xF970, symBinAddr: 0x33F00, symSize: 0x48 }
  - { offset: 0x1A8717, size: 0x8, addend: 0x0, symName: __ZNSt3__113__empty_stateIcED1Ev, symObjAddr: 0xF970, symBinAddr: 0x33F00, symSize: 0x48 }
  - { offset: 0x1A8741, size: 0x8, addend: 0x0, symName: __ZNSt3__113__empty_stateIcED0Ev, symObjAddr: 0xF9B8, symBinAddr: 0x33F48, symSize: 0x48 }
  - { offset: 0x1A8765, size: 0x8, addend: 0x0, symName: __ZNSt3__113__empty_stateIcED0Ev, symObjAddr: 0xF9B8, symBinAddr: 0x33F48, symSize: 0x48 }
  - { offset: 0x1A8783, size: 0x8, addend: 0x0, symName: __ZNSt3__113__empty_stateIcED0Ev, symObjAddr: 0xF9B8, symBinAddr: 0x33F48, symSize: 0x48 }
  - { offset: 0x1A87A1, size: 0x8, addend: 0x0, symName: __ZNSt3__113__empty_stateIcED0Ev, symObjAddr: 0xF9B8, symBinAddr: 0x33F48, symSize: 0x48 }
  - { offset: 0x1A87E8, size: 0x8, addend: 0x0, symName: __ZNKSt3__113__empty_stateIcE6__execERNS_7__stateIcEE, symObjAddr: 0xFA00, symBinAddr: 0x33F90, symSize: 0x14 }
  - { offset: 0x1A883A, size: 0x8, addend: 0x0, symName: __ZNSt3__116__owns_one_stateIcED1Ev, symObjAddr: 0xFA14, symBinAddr: 0x33FA4, symSize: 0x48 }
  - { offset: 0x1A885E, size: 0x8, addend: 0x0, symName: __ZNSt3__116__owns_one_stateIcED1Ev, symObjAddr: 0xFA14, symBinAddr: 0x33FA4, symSize: 0x48 }
  - { offset: 0x1A88A3, size: 0x8, addend: 0x0, symName: __ZNSt3__116__owns_one_stateIcED0Ev, symObjAddr: 0xFA5C, symBinAddr: 0x33FEC, symSize: 0x48 }
  - { offset: 0x1A88D2, size: 0x8, addend: 0x0, symName: __ZNSt3__116__owns_one_stateIcED0Ev, symObjAddr: 0xFA5C, symBinAddr: 0x33FEC, symSize: 0x48 }
  - { offset: 0x1A88F0, size: 0x8, addend: 0x0, symName: __ZNSt3__116__owns_one_stateIcED0Ev, symObjAddr: 0xFA5C, symBinAddr: 0x33FEC, symSize: 0x48 }
  - { offset: 0x1A8A1B, size: 0x8, addend: 0x0, symName: __ZNSt3__111basic_regexIcNS_12regex_traitsIcEEE16__push_lookaheadERKS3_bj, symObjAddr: 0x10414, symBinAddr: 0x349A4, symSize: 0xA8 }
  - { offset: 0x1A8C33, size: 0x8, addend: 0x0, symName: __ZNSt3__111basic_regexIcNS_12regex_traitsIcEEE20__push_word_boundaryEb, symObjAddr: 0x103A8, symBinAddr: 0x34938, symSize: 0x6C }
  - { offset: 0x1A8F05, size: 0x8, addend: 0x0, symName: __ZNSt3__111basic_regexIcNS_12regex_traitsIcEEE26__parse_bracket_expressionINS_11__wrap_iterIPKcEEEET_S9_S9_, symObjAddr: 0x10CC0, symBinAddr: 0x35250, symSize: 0x158 }
  - { offset: 0x1A912D, size: 0x8, addend: 0x0, symName: __ZNSt3__111basic_regexIcNS_12regex_traitsIcEEE19__parse_atom_escapeINS_11__wrap_iterIPKcEEEET_S9_S9_, symObjAddr: 0x10B74, symBinAddr: 0x35104, symSize: 0x14C }
  - { offset: 0x1A9299, size: 0x8, addend: 0x0, symName: __ZNSt3__111basic_regexIcNS_12regex_traitsIcEEE26__parse_bracket_expressionINS_11__wrap_iterIPKcEEEET_S9_S9_, symObjAddr: 0x10CC0, symBinAddr: 0x35250, symSize: 0x158 }
  - { offset: 0x1A92AD, size: 0x8, addend: 0x0, symName: __ZNSt3__111basic_regexIcNS_12regex_traitsIcEEE25__parse_pattern_characterINS_11__wrap_iterIPKcEEEET_S9_S9_, symObjAddr: 0x10E64, symBinAddr: 0x353F4, symSize: 0x7C }
  - { offset: 0x1A9481, size: 0x8, addend: 0x0, symName: __ZNSt3__111basic_regexIcNS_12regex_traitsIcEEE11__push_loopEmmPNS_16__owns_one_stateIcEEmmb, symObjAddr: 0x15448, symBinAddr: 0x39954, symSize: 0x13C }
  - { offset: 0x1A9A34, size: 0x8, addend: 0x0, symName: __ZNSt3__120__l_anchor_multilineIcED1Ev, symObjAddr: 0x10508, symBinAddr: 0x34A98, symSize: 0x48 }
  - { offset: 0x1A9A58, size: 0x8, addend: 0x0, symName: __ZNSt3__120__l_anchor_multilineIcED1Ev, symObjAddr: 0x10508, symBinAddr: 0x34A98, symSize: 0x48 }
  - { offset: 0x1A9A76, size: 0x8, addend: 0x0, symName: __ZNSt3__120__l_anchor_multilineIcED1Ev, symObjAddr: 0x10508, symBinAddr: 0x34A98, symSize: 0x48 }
  - { offset: 0x1A9ABD, size: 0x8, addend: 0x0, symName: __ZNSt3__120__l_anchor_multilineIcED0Ev, symObjAddr: 0x10550, symBinAddr: 0x34AE0, symSize: 0x48 }
  - { offset: 0x1A9AED, size: 0x8, addend: 0x0, symName: __ZNSt3__120__l_anchor_multilineIcED0Ev, symObjAddr: 0x10550, symBinAddr: 0x34AE0, symSize: 0x48 }
  - { offset: 0x1A9B0B, size: 0x8, addend: 0x0, symName: __ZNSt3__120__l_anchor_multilineIcED0Ev, symObjAddr: 0x10550, symBinAddr: 0x34AE0, symSize: 0x48 }
  - { offset: 0x1A9B29, size: 0x8, addend: 0x0, symName: __ZNSt3__120__l_anchor_multilineIcED0Ev, symObjAddr: 0x10550, symBinAddr: 0x34AE0, symSize: 0x48 }
  - { offset: 0x1A9B54, size: 0x8, addend: 0x0, symName: __ZNKSt3__120__l_anchor_multilineIcE6__execERNS_7__stateIcEE, symObjAddr: 0x10598, symBinAddr: 0x34B28, symSize: 0x68 }
  - { offset: 0x1A9BB8, size: 0x8, addend: 0x0, symName: __ZNSt3__120__r_anchor_multilineIcED1Ev, symObjAddr: 0x10600, symBinAddr: 0x34B90, symSize: 0x48 }
  - { offset: 0x1A9BDC, size: 0x8, addend: 0x0, symName: __ZNSt3__120__r_anchor_multilineIcED1Ev, symObjAddr: 0x10600, symBinAddr: 0x34B90, symSize: 0x48 }
  - { offset: 0x1A9BFA, size: 0x8, addend: 0x0, symName: __ZNSt3__120__r_anchor_multilineIcED1Ev, symObjAddr: 0x10600, symBinAddr: 0x34B90, symSize: 0x48 }
  - { offset: 0x1A9C41, size: 0x8, addend: 0x0, symName: __ZNSt3__120__r_anchor_multilineIcED0Ev, symObjAddr: 0x10648, symBinAddr: 0x34BD8, symSize: 0x48 }
  - { offset: 0x1A9C71, size: 0x8, addend: 0x0, symName: __ZNSt3__120__r_anchor_multilineIcED0Ev, symObjAddr: 0x10648, symBinAddr: 0x34BD8, symSize: 0x48 }
  - { offset: 0x1A9C8F, size: 0x8, addend: 0x0, symName: __ZNSt3__120__r_anchor_multilineIcED0Ev, symObjAddr: 0x10648, symBinAddr: 0x34BD8, symSize: 0x48 }
  - { offset: 0x1A9CAD, size: 0x8, addend: 0x0, symName: __ZNSt3__120__r_anchor_multilineIcED0Ev, symObjAddr: 0x10648, symBinAddr: 0x34BD8, symSize: 0x48 }
  - { offset: 0x1A9CD8, size: 0x8, addend: 0x0, symName: __ZNKSt3__120__r_anchor_multilineIcE6__execERNS_7__stateIcEE, symObjAddr: 0x10690, symBinAddr: 0x34C20, symSize: 0x54 }
  - { offset: 0x1A9D3C, size: 0x8, addend: 0x0, symName: __ZNSt3__115__word_boundaryIcNS_12regex_traitsIcEEED1Ev, symObjAddr: 0x106E4, symBinAddr: 0x34C74, symSize: 0x58 }
  - { offset: 0x1A9DEC, size: 0x8, addend: 0x0, symName: __ZNSt3__115__word_boundaryIcNS_12regex_traitsIcEEED0Ev, symObjAddr: 0x1073C, symBinAddr: 0x34CCC, symSize: 0x58 }
  - { offset: 0x1A9F06, size: 0x8, addend: 0x0, symName: __ZNKSt3__115__word_boundaryIcNS_12regex_traitsIcEEE6__execERNS_7__stateIcEE, symObjAddr: 0x10794, symBinAddr: 0x34D24, symSize: 0x154 }
  - { offset: 0x1AA0C4, size: 0x8, addend: 0x0, symName: __ZNSt3__111__lookaheadIcNS_12regex_traitsIcEEED1Ev, symObjAddr: 0x108E8, symBinAddr: 0x34E78, symSize: 0x8C }
  - { offset: 0x1AA224, size: 0x8, addend: 0x0, symName: __ZNSt3__111__lookaheadIcNS_12regex_traitsIcEEED0Ev, symObjAddr: 0x10974, symBinAddr: 0x34F04, symSize: 0x8C }
  - { offset: 0x1AA390, size: 0x8, addend: 0x0, symName: __ZNKSt3__111__lookaheadIcNS_12regex_traitsIcEEE6__execERNS_7__stateIcEE, symObjAddr: 0x10A00, symBinAddr: 0x34F90, symSize: 0x174 }
  - { offset: 0x1AA8F6, size: 0x8, addend: 0x0, symName: __ZNSt3__111basic_regexIcNS_12regex_traitsIcEEE11__push_charEc, symObjAddr: 0x115A4, symBinAddr: 0x35B34, symSize: 0x144 }
  - { offset: 0x1AAC61, size: 0x8, addend: 0x0, symName: __ZNSt3__111basic_regexIcNS_12regex_traitsIcEEE15__push_back_refEi, symObjAddr: 0x11734, symBinAddr: 0x35CC4, symSize: 0xD4 }
  - { offset: 0x1AAE15, size: 0x8, addend: 0x0, symName: __ZNSt3__111basic_regexIcNS_12regex_traitsIcEEE30__parse_character_class_escapeINS_11__wrap_iterIPKcEEEET_S9_S9_, symObjAddr: 0x10FBC, symBinAddr: 0x3554C, symSize: 0x25C }
  - { offset: 0x1AB284, size: 0x8, addend: 0x0, symName: __ZNSt3__111basic_regexIcNS_12regex_traitsIcEEE24__parse_character_escapeINS_11__wrap_iterIPKcEEEET_S9_S9_PNS_12basic_stringIcNS_11char_traitsIcEENS_9allocatorIcEEEE, symObjAddr: 0x11218, symBinAddr: 0x357A8, symSize: 0x38C }
  - { offset: 0x1AB64E, size: 0x8, addend: 0x0, symName: __ZNSt3__111basic_regexIcNS_12regex_traitsIcEEE11__push_charEc, symObjAddr: 0x115A4, symBinAddr: 0x35B34, symSize: 0x144 }
  - { offset: 0x1AB739, size: 0x8, addend: 0x0, symName: __ZNSt3__120__bracket_expressionIcNS_12regex_traitsIcEEEC2B8ne200100ERKS2_PNS_6__nodeIcEEbbb, symObjAddr: 0x120E0, symBinAddr: 0x36670, symSize: 0x19C }
  - { offset: 0x1ABD6B, size: 0x8, addend: 0x0, symName: __ZNSt3__120__bracket_expressionIcNS_12regex_traitsIcEEE10__add_charB8ne200100Ec, symObjAddr: 0x11F54, symBinAddr: 0x364E4, symSize: 0x18C }
  - { offset: 0x1AC093, size: 0x8, addend: 0x0, symName: __ZNSt3__120__bracket_expressionIcNS_12regex_traitsIcEEEC2B8ne200100ERKS2_PNS_6__nodeIcEEbbb, symObjAddr: 0x120E0, symBinAddr: 0x36670, symSize: 0x19C }
  - { offset: 0x1AC09E, size: 0x8, addend: 0x0, symName: __ZNSt3__111basic_regexIcNS_12regex_traitsIcEEE23__parse_expression_termINS_11__wrap_iterIPKcEEEET_S9_S9_PNS_20__bracket_expressionIcS2_EE, symObjAddr: 0x13340, symBinAddr: 0x3784C, symSize: 0x454 }
  - { offset: 0x1ACD1C, size: 0x8, addend: 0x0, symName: __ZNSt3__123__match_any_but_newlineIcED1Ev, symObjAddr: 0x10EE0, symBinAddr: 0x35470, symSize: 0x48 }
  - { offset: 0x1ACD40, size: 0x8, addend: 0x0, symName: __ZNSt3__123__match_any_but_newlineIcED1Ev, symObjAddr: 0x10EE0, symBinAddr: 0x35470, symSize: 0x48 }
  - { offset: 0x1ACD5E, size: 0x8, addend: 0x0, symName: __ZNSt3__123__match_any_but_newlineIcED1Ev, symObjAddr: 0x10EE0, symBinAddr: 0x35470, symSize: 0x48 }
  - { offset: 0x1ACDA5, size: 0x8, addend: 0x0, symName: __ZNSt3__123__match_any_but_newlineIcED0Ev, symObjAddr: 0x10F28, symBinAddr: 0x354B8, symSize: 0x48 }
  - { offset: 0x1ACDD5, size: 0x8, addend: 0x0, symName: __ZNSt3__123__match_any_but_newlineIcED0Ev, symObjAddr: 0x10F28, symBinAddr: 0x354B8, symSize: 0x48 }
  - { offset: 0x1ACDF3, size: 0x8, addend: 0x0, symName: __ZNSt3__123__match_any_but_newlineIcED0Ev, symObjAddr: 0x10F28, symBinAddr: 0x354B8, symSize: 0x48 }
  - { offset: 0x1ACE11, size: 0x8, addend: 0x0, symName: __ZNSt3__123__match_any_but_newlineIcED0Ev, symObjAddr: 0x10F28, symBinAddr: 0x354B8, symSize: 0x48 }
  - { offset: 0x1AD261, size: 0x8, addend: 0x0, symName: __ZNSt3__118__match_char_icaseIcNS_12regex_traitsIcEEED1Ev, symObjAddr: 0x11808, symBinAddr: 0x35D98, symSize: 0x58 }
  - { offset: 0x1AD311, size: 0x8, addend: 0x0, symName: __ZNSt3__118__match_char_icaseIcNS_12regex_traitsIcEEED0Ev, symObjAddr: 0x11860, symBinAddr: 0x35DF0, symSize: 0x58 }
  - { offset: 0x1AD3CD, size: 0x8, addend: 0x0, symName: __ZNKSt3__118__match_char_icaseIcNS_12regex_traitsIcEEE6__execERNS_7__stateIcEE, symObjAddr: 0x118B8, symBinAddr: 0x35E48, symSize: 0x84 }
  - { offset: 0x1AD486, size: 0x8, addend: 0x0, symName: __ZNSt3__120__match_char_collateIcNS_12regex_traitsIcEEED1Ev, symObjAddr: 0x1193C, symBinAddr: 0x35ECC, symSize: 0x58 }
  - { offset: 0x1AD536, size: 0x8, addend: 0x0, symName: __ZNSt3__120__match_char_collateIcNS_12regex_traitsIcEEED0Ev, symObjAddr: 0x11994, symBinAddr: 0x35F24, symSize: 0x58 }
  - { offset: 0x1AD5F2, size: 0x8, addend: 0x0, symName: __ZNKSt3__120__match_char_collateIcNS_12regex_traitsIcEEE6__execERNS_7__stateIcEE, symObjAddr: 0x119EC, symBinAddr: 0x35F7C, symSize: 0x48 }
  - { offset: 0x1AD65F, size: 0x8, addend: 0x0, symName: __ZNSt3__112__match_charIcED1Ev, symObjAddr: 0x11A34, symBinAddr: 0x35FC4, symSize: 0x48 }
  - { offset: 0x1AD683, size: 0x8, addend: 0x0, symName: __ZNSt3__112__match_charIcED1Ev, symObjAddr: 0x11A34, symBinAddr: 0x35FC4, symSize: 0x48 }
  - { offset: 0x1AD6A1, size: 0x8, addend: 0x0, symName: __ZNSt3__112__match_charIcED1Ev, symObjAddr: 0x11A34, symBinAddr: 0x35FC4, symSize: 0x48 }
  - { offset: 0x1AD6E8, size: 0x8, addend: 0x0, symName: __ZNSt3__112__match_charIcED0Ev, symObjAddr: 0x11A7C, symBinAddr: 0x3600C, symSize: 0x48 }
  - { offset: 0x1AD718, size: 0x8, addend: 0x0, symName: __ZNSt3__112__match_charIcED0Ev, symObjAddr: 0x11A7C, symBinAddr: 0x3600C, symSize: 0x48 }
  - { offset: 0x1AD736, size: 0x8, addend: 0x0, symName: __ZNSt3__112__match_charIcED0Ev, symObjAddr: 0x11A7C, symBinAddr: 0x3600C, symSize: 0x48 }
  - { offset: 0x1AD754, size: 0x8, addend: 0x0, symName: __ZNSt3__112__match_charIcED0Ev, symObjAddr: 0x11A7C, symBinAddr: 0x3600C, symSize: 0x48 }
  - { offset: 0x1AD77F, size: 0x8, addend: 0x0, symName: __ZNKSt3__112__match_charIcE6__execERNS_7__stateIcEE, symObjAddr: 0x11AC4, symBinAddr: 0x36054, symSize: 0x48 }
  - { offset: 0x1AD7EC, size: 0x8, addend: 0x0, symName: __ZNSt3__116__back_ref_icaseIcNS_12regex_traitsIcEEED1Ev, symObjAddr: 0x11B0C, symBinAddr: 0x3609C, symSize: 0x58 }
  - { offset: 0x1AD89C, size: 0x8, addend: 0x0, symName: __ZNSt3__116__back_ref_icaseIcNS_12regex_traitsIcEEED0Ev, symObjAddr: 0x11B64, symBinAddr: 0x360F4, symSize: 0x58 }
  - { offset: 0x1AD958, size: 0x8, addend: 0x0, symName: __ZNKSt3__116__back_ref_icaseIcNS_12regex_traitsIcEEE6__execERNS_7__stateIcEE, symObjAddr: 0x11BBC, symBinAddr: 0x3614C, symSize: 0xFC }
  - { offset: 0x1ADABF, size: 0x8, addend: 0x0, symName: __ZNSt3__118__back_ref_collateIcNS_12regex_traitsIcEEED1Ev, symObjAddr: 0x11CB8, symBinAddr: 0x36248, symSize: 0x58 }
  - { offset: 0x1ADB6F, size: 0x8, addend: 0x0, symName: __ZNSt3__118__back_ref_collateIcNS_12regex_traitsIcEEED0Ev, symObjAddr: 0x11D10, symBinAddr: 0x362A0, symSize: 0x58 }
  - { offset: 0x1ADC2B, size: 0x8, addend: 0x0, symName: __ZNKSt3__118__back_ref_collateIcNS_12regex_traitsIcEEE6__execERNS_7__stateIcEE, symObjAddr: 0x11D68, symBinAddr: 0x362F8, symSize: 0x8C }
  - { offset: 0x1ADCFC, size: 0x8, addend: 0x0, symName: __ZNSt3__110__back_refIcED1Ev, symObjAddr: 0x11DF4, symBinAddr: 0x36384, symSize: 0x48 }
  - { offset: 0x1ADD20, size: 0x8, addend: 0x0, symName: __ZNSt3__110__back_refIcED1Ev, symObjAddr: 0x11DF4, symBinAddr: 0x36384, symSize: 0x48 }
  - { offset: 0x1ADD3E, size: 0x8, addend: 0x0, symName: __ZNSt3__110__back_refIcED1Ev, symObjAddr: 0x11DF4, symBinAddr: 0x36384, symSize: 0x48 }
  - { offset: 0x1ADD85, size: 0x8, addend: 0x0, symName: __ZNSt3__110__back_refIcED0Ev, symObjAddr: 0x11E3C, symBinAddr: 0x363CC, symSize: 0x48 }
  - { offset: 0x1ADDB5, size: 0x8, addend: 0x0, symName: __ZNSt3__110__back_refIcED0Ev, symObjAddr: 0x11E3C, symBinAddr: 0x363CC, symSize: 0x48 }
  - { offset: 0x1ADDD3, size: 0x8, addend: 0x0, symName: __ZNSt3__110__back_refIcED0Ev, symObjAddr: 0x11E3C, symBinAddr: 0x363CC, symSize: 0x48 }
  - { offset: 0x1ADDF1, size: 0x8, addend: 0x0, symName: __ZNSt3__110__back_refIcED0Ev, symObjAddr: 0x11E3C, symBinAddr: 0x363CC, symSize: 0x48 }
  - { offset: 0x1ADE1C, size: 0x8, addend: 0x0, symName: __ZNKSt3__110__back_refIcE6__execERNS_7__stateIcEE, symObjAddr: 0x11E84, symBinAddr: 0x36414, symSize: 0xD0 }
  - { offset: 0x1ADF94, size: 0x8, addend: 0x0, symName: __ZNSt3__120__bracket_expressionIcNS_12regex_traitsIcEEE10__add_charB8ne200100Ec, symObjAddr: 0x11F54, symBinAddr: 0x364E4, symSize: 0x18C }
  - { offset: 0x1AE21B, size: 0x8, addend: 0x0, symName: __ZNSt3__16vectorIcNS_9allocatorIcEEE20__throw_length_errorB8ne200100Ev, symObjAddr: 0x132E0, symBinAddr: 0x377EC, symSize: 0x14 }
  - { offset: 0x1AE233, size: 0x8, addend: 0x0, symName: __ZNSt3__119__throw_regex_errorB8ne200100ILNS_15regex_constants10error_typeE5EEEvv, symObjAddr: 0x132F4, symBinAddr: 0x37800, symSize: 0x4C }
  - { offset: 0x1AE616, size: 0x8, addend: 0x0, symName: __ZNSt3__16vectorINS_4pairINS_12basic_stringIcNS_11char_traitsIcEENS_9allocatorIcEEEES7_EENS5_IS8_EEED1B8ne200100Ev, symObjAddr: 0x122EC, symBinAddr: 0x3680C, symSize: 0x94 }
  - { offset: 0x1AEC80, size: 0x8, addend: 0x0, symName: __ZNSt3__120__bracket_expressionIcNS_12regex_traitsIcEEED1Ev, symObjAddr: 0x12380, symBinAddr: 0x368A0, symSize: 0x4 }
  - { offset: 0x1AECA3, size: 0x8, addend: 0x0, symName: __ZNSt3__120__bracket_expressionIcNS_12regex_traitsIcEEED1Ev, symObjAddr: 0x12380, symBinAddr: 0x368A0, symSize: 0x4 }
  - { offset: 0x1AECB6, size: 0x8, addend: 0x0, symName: __ZNSt3__120__bracket_expressionIcNS_12regex_traitsIcEEED2Ev, symObjAddr: 0x12C88, symBinAddr: 0x37194, symSize: 0x148 }
  - { offset: 0x1AF6BB, size: 0x8, addend: 0x0, symName: __ZNSt3__120__bracket_expressionIcNS_12regex_traitsIcEEED0Ev, symObjAddr: 0x12384, symBinAddr: 0x368A4, symSize: 0x14 }
  - { offset: 0x1AFAF9, size: 0x8, addend: 0x0, symName: __ZNKSt3__120__bracket_expressionIcNS_12regex_traitsIcEEE6__execERNS_7__stateIcEE, symObjAddr: 0x12398, symBinAddr: 0x368B8, symSize: 0x884 }
  - { offset: 0x1B1323, size: 0x8, addend: 0x0, symName: __ZNKSt3__112regex_traitsIcE20__lookup_collatenameIPcEENS_12basic_stringIcNS_11char_traitsIcEENS_9allocatorIcEEEET_SA_c, symObjAddr: 0x12F04, symBinAddr: 0x37410, symSize: 0x23C }
  - { offset: 0x1B1E1E, size: 0x8, addend: 0x0, symName: __ZNKSt3__112regex_traitsIcE9transformIPcEENS_12basic_stringIcNS_11char_traitsIcEENS_9allocatorIcEEEET_SA_, symObjAddr: 0x12DD0, symBinAddr: 0x372DC, symSize: 0x134 }
  - { offset: 0x1B23DB, size: 0x8, addend: 0x0, symName: __ZNKSt3__112regex_traitsIcE19__transform_primaryIPcEENS_12basic_stringIcNS_11char_traitsIcEENS_9allocatorIcEEEET_SA_c, symObjAddr: 0x13140, symBinAddr: 0x3764C, symSize: 0x1A0 }
  - { offset: 0x1B2B1B, size: 0x8, addend: 0x0, symName: __ZNSt3__14pairINS_12basic_stringIcNS_11char_traitsIcEENS_9allocatorIcEEEES6_ED1Ev, symObjAddr: 0x12C30, symBinAddr: 0x3713C, symSize: 0x58 }
  - { offset: 0x1B2E1A, size: 0x8, addend: 0x0, symName: __ZNSt3__111basic_regexIcNS_12regex_traitsIcEEE25__parse_equivalence_classINS_11__wrap_iterIPKcEEEET_S9_S9_PNS_20__bracket_expressionIcS2_EE, symObjAddr: 0x13794, symBinAddr: 0x37CA0, symSize: 0x28C }
  - { offset: 0x1B3853, size: 0x8, addend: 0x0, symName: __ZNSt3__111basic_regexIcNS_12regex_traitsIcEEE18__parse_awk_escapeINS_11__wrap_iterIPKcEEEET_S9_S9_PNS_12basic_stringIcNS_11char_traitsIcEENS_9allocatorIcEEEE, symObjAddr: 0x13D34, symBinAddr: 0x38240, symSize: 0x2F8 }
  - { offset: 0x1B3A30, size: 0x8, addend: 0x0, symName: __ZNSt3__120__bracket_expressionIcNS_12regex_traitsIcEEE11__add_rangeB8ne200100ENS_12basic_stringIcNS_11char_traitsIcEENS_9allocatorIcEEEES9_, symObjAddr: 0x1402C, symBinAddr: 0x38538, symSize: 0x438 }
  - { offset: 0x1B3A44, size: 0x8, addend: 0x0, symName: __ZNSt3__111basic_regexIcNS_12regex_traitsIcEEE24__parse_collating_symbolINS_11__wrap_iterIPKcEEEET_S9_S9_RNS_12basic_stringIcNS_11char_traitsIcEENS_9allocatorIcEEEE, symObjAddr: 0x13ACC, symBinAddr: 0x37FD8, symSize: 0xE0 }
  - { offset: 0x1B3D8F, size: 0x8, addend: 0x0, symName: __ZNSt3__111basic_regexIcNS_12regex_traitsIcEEE20__parse_class_escapeINS_11__wrap_iterIPKcEEEET_S9_S9_RNS_12basic_stringIcNS_11char_traitsIcEENS_9allocatorIcEEEEPNS_20__bracket_expressionIcS2_EE, symObjAddr: 0x13BAC, symBinAddr: 0x380B8, symSize: 0x188 }
  - { offset: 0x1B3DA3, size: 0x8, addend: 0x0, symName: __ZNSt3__111basic_regexIcNS_12regex_traitsIcEEE23__parse_character_classINS_11__wrap_iterIPKcEEEET_S9_S9_PNS_20__bracket_expressionIcS2_EE, symObjAddr: 0x13A20, symBinAddr: 0x37F2C, symSize: 0xAC }
  - { offset: 0x1B3FF9, size: 0x8, addend: 0x0, symName: __ZNSt3__111basic_regexIcNS_12regex_traitsIcEEE24__parse_collating_symbolINS_11__wrap_iterIPKcEEEET_S9_S9_RNS_12basic_stringIcNS_11char_traitsIcEENS_9allocatorIcEEEE, symObjAddr: 0x13ACC, symBinAddr: 0x37FD8, symSize: 0xE0 }
  - { offset: 0x1B4019, size: 0x8, addend: 0x0, symName: __ZNSt3__120__bracket_expressionIcNS_12regex_traitsIcEEE13__add_digraphB8ne200100Ecc, symObjAddr: 0x14464, symBinAddr: 0x38970, symSize: 0x220 }
  - { offset: 0x1B4AE6, size: 0x8, addend: 0x0, symName: __ZNSt3__119__throw_regex_errorB8ne200100ILNS_15regex_constants10error_typeE1EEEvv, symObjAddr: 0x14684, symBinAddr: 0x38B90, symSize: 0x4C }
  - { offset: 0x1B4AF1, size: 0x8, addend: 0x0, symName: __ZNSt3__111basic_regexIcNS_12regex_traitsIcEEE20__parse_class_escapeINS_11__wrap_iterIPKcEEEET_S9_S9_RNS_12basic_stringIcNS_11char_traitsIcEENS_9allocatorIcEEEEPNS_20__bracket_expressionIcS2_EE, symObjAddr: 0x13BAC, symBinAddr: 0x380B8, symSize: 0x188 }
  - { offset: 0x1B4CC5, size: 0x8, addend: 0x0, symName: __ZNSt3__111basic_regexIcNS_12regex_traitsIcEEE18__parse_awk_escapeINS_11__wrap_iterIPKcEEEET_S9_S9_PNS_12basic_stringIcNS_11char_traitsIcEENS_9allocatorIcEEEE, symObjAddr: 0x13D34, symBinAddr: 0x38240, symSize: 0x2F8 }
  - { offset: 0x1B4CD9, size: 0x8, addend: 0x0, symName: __ZNSt3__120__bracket_expressionIcNS_12regex_traitsIcEEE11__add_rangeB8ne200100ENS_12basic_stringIcNS_11char_traitsIcEENS_9allocatorIcEEEES9_, symObjAddr: 0x1402C, symBinAddr: 0x38538, symSize: 0x438 }
  - { offset: 0x1B60D7, size: 0x8, addend: 0x0, symName: __ZNKSt3__112regex_traitsIcE20__lookup_collatenameINS_11__wrap_iterIPKcEEEENS_12basic_stringIcNS_11char_traitsIcEENS_9allocatorIcEEEET_SD_c, symObjAddr: 0x146D0, symBinAddr: 0x38BDC, symSize: 0x23C }
  - { offset: 0x1B6BE7, size: 0x8, addend: 0x0, symName: __ZNKSt3__112regex_traitsIcE19__transform_primaryINS_11__wrap_iterIPcEEEENS_12basic_stringIcNS_11char_traitsIcEENS_9allocatorIcEEEET_SC_c, symObjAddr: 0x1490C, symBinAddr: 0x38E18, symSize: 0x1A0 }
  - { offset: 0x1B733C, size: 0x8, addend: 0x0, symName: __ZNSt3__16vectorINS_12basic_stringIcNS_11char_traitsIcEENS_9allocatorIcEEEENS4_IS6_EEE24__emplace_back_slow_pathIJRKS6_EEEPS6_DpOT_, symObjAddr: 0x14AAC, symBinAddr: 0x38FB8, symSize: 0x154 }
  - { offset: 0x1B77AE, size: 0x8, addend: 0x0, symName: __ZNKSt3__112regex_traitsIcE18__lookup_classnameINS_11__wrap_iterIPKcEEEEjT_S7_bc, symObjAddr: 0x14CC4, symBinAddr: 0x391D0, symSize: 0x154 }
  - { offset: 0x1B7E7B, size: 0x8, addend: 0x0, symName: __ZNSt3__120__bracket_expressionIcNS_12regex_traitsIcEEE14__add_neg_charB8ne200100Ec, symObjAddr: 0x14E18, symBinAddr: 0x39324, symSize: 0x18C }
  - { offset: 0x1B81AD, size: 0x8, addend: 0x0, symName: __ZNSt3__16vectorINS_4pairINS_12basic_stringIcNS_11char_traitsIcEENS_9allocatorIcEEEES7_EENS5_IS8_EEE9push_backB8ne200100EOS8_, symObjAddr: 0x14FA4, symBinAddr: 0x394B0, symSize: 0x174 }
  - { offset: 0x1B8270, size: 0x8, addend: 0x0, symName: __ZNKSt3__112regex_traitsIcE9transformINS_11__wrap_iterIPcEEEENS_12basic_stringIcNS_11char_traitsIcEENS_9allocatorIcEEEET_SC_, symObjAddr: 0x15118, symBinAddr: 0x39624, symSize: 0x134 }
  - { offset: 0x1B8866, size: 0x8, addend: 0x0, symName: __ZNSt3__16vectorINS_4pairINS_12basic_stringIcNS_11char_traitsIcEENS_9allocatorIcEEEES7_EENS5_IS8_EEE9push_backB8ne200100EOS8_, symObjAddr: 0x14FA4, symBinAddr: 0x394B0, symSize: 0x174 }
  - { offset: 0x1B8DF9, size: 0x8, addend: 0x0, symName: __ZNKSt3__112regex_traitsIcE9transformINS_11__wrap_iterIPcEEEENS_12basic_stringIcNS_11char_traitsIcEENS_9allocatorIcEEEET_SC_, symObjAddr: 0x15118, symBinAddr: 0x39624, symSize: 0x134 }
  - { offset: 0x1B9103, size: 0x8, addend: 0x0, symName: __ZNSt3__16vectorINS_4pairIccEENS_9allocatorIS2_EEE20__throw_length_errorB8ne200100Ev, symObjAddr: 0x152AC, symBinAddr: 0x397B8, symSize: 0x14 }
  - { offset: 0x1B911B, size: 0x8, addend: 0x0, symName: __ZNSt3__128__begin_marked_subexpressionIcED1Ev, symObjAddr: 0x152C0, symBinAddr: 0x397CC, symSize: 0x48 }
  - { offset: 0x1B959A, size: 0x8, addend: 0x0, symName: __ZNSt3__16vectorINS_12basic_stringIcNS_11char_traitsIcEENS_9allocatorIcEEEENS4_IS6_EEE20__throw_length_errorB8ne200100Ev, symObjAddr: 0x14C64, symBinAddr: 0x39170, symSize: 0x14 }
  - { offset: 0x1B95B2, size: 0x8, addend: 0x0, symName: __ZNSt3__119__throw_regex_errorB8ne200100ILNS_15regex_constants10error_typeE2EEEvv, symObjAddr: 0x14C78, symBinAddr: 0x39184, symSize: 0x4C }
  - { offset: 0x1B95BD, size: 0x8, addend: 0x0, symName: __ZNSt3__114__split_bufferINS_12basic_stringIcNS_11char_traitsIcEENS_9allocatorIcEEEERNS4_IS6_EEED1Ev, symObjAddr: 0x14C00, symBinAddr: 0x3910C, symSize: 0x64 }
  - { offset: 0x1B9B58, size: 0x8, addend: 0x0, symName: __ZNSt3__16vectorINS_4pairINS_12basic_stringIcNS_11char_traitsIcEENS_9allocatorIcEEEES7_EENS5_IS8_EEE20__throw_length_errorB8ne200100Ev, symObjAddr: 0x15298, symBinAddr: 0x397A4, symSize: 0x14 }
  - { offset: 0x1B9B70, size: 0x8, addend: 0x0, symName: __ZNSt3__16vectorINS_4pairIccEENS_9allocatorIS2_EEE20__throw_length_errorB8ne200100Ev, symObjAddr: 0x152AC, symBinAddr: 0x397B8, symSize: 0x14 }
  - { offset: 0x1B9B98, size: 0x8, addend: 0x0, symName: __ZNSt3__128__begin_marked_subexpressionIcED1Ev, symObjAddr: 0x152C0, symBinAddr: 0x397CC, symSize: 0x48 }
  - { offset: 0x1B9BBC, size: 0x8, addend: 0x0, symName: __ZNSt3__128__begin_marked_subexpressionIcED1Ev, symObjAddr: 0x152C0, symBinAddr: 0x397CC, symSize: 0x48 }
  - { offset: 0x1B9BDA, size: 0x8, addend: 0x0, symName: __ZNSt3__128__begin_marked_subexpressionIcED1Ev, symObjAddr: 0x152C0, symBinAddr: 0x397CC, symSize: 0x48 }
  - { offset: 0x1B9C21, size: 0x8, addend: 0x0, symName: __ZNSt3__128__begin_marked_subexpressionIcED0Ev, symObjAddr: 0x15308, symBinAddr: 0x39814, symSize: 0x48 }
  - { offset: 0x1B9C51, size: 0x8, addend: 0x0, symName: __ZNSt3__128__begin_marked_subexpressionIcED0Ev, symObjAddr: 0x15308, symBinAddr: 0x39814, symSize: 0x48 }
  - { offset: 0x1B9C6F, size: 0x8, addend: 0x0, symName: __ZNSt3__128__begin_marked_subexpressionIcED0Ev, symObjAddr: 0x15308, symBinAddr: 0x39814, symSize: 0x48 }
  - { offset: 0x1B9C8D, size: 0x8, addend: 0x0, symName: __ZNSt3__128__begin_marked_subexpressionIcED0Ev, symObjAddr: 0x15308, symBinAddr: 0x39814, symSize: 0x48 }
  - { offset: 0x1B9CB8, size: 0x8, addend: 0x0, symName: __ZNKSt3__128__begin_marked_subexpressionIcE6__execERNS_7__stateIcEE, symObjAddr: 0x15350, symBinAddr: 0x3985C, symSize: 0x30 }
  - { offset: 0x1B9D44, size: 0x8, addend: 0x0, symName: __ZNSt3__126__end_marked_subexpressionIcED1Ev, symObjAddr: 0x15380, symBinAddr: 0x3988C, symSize: 0x48 }
  - { offset: 0x1B9D68, size: 0x8, addend: 0x0, symName: __ZNSt3__126__end_marked_subexpressionIcED1Ev, symObjAddr: 0x15380, symBinAddr: 0x3988C, symSize: 0x48 }
  - { offset: 0x1B9D86, size: 0x8, addend: 0x0, symName: __ZNSt3__126__end_marked_subexpressionIcED1Ev, symObjAddr: 0x15380, symBinAddr: 0x3988C, symSize: 0x48 }
  - { offset: 0x1B9DCD, size: 0x8, addend: 0x0, symName: __ZNSt3__126__end_marked_subexpressionIcED0Ev, symObjAddr: 0x153C8, symBinAddr: 0x398D4, symSize: 0x48 }
  - { offset: 0x1B9DFD, size: 0x8, addend: 0x0, symName: __ZNSt3__126__end_marked_subexpressionIcED0Ev, symObjAddr: 0x153C8, symBinAddr: 0x398D4, symSize: 0x48 }
  - { offset: 0x1B9E1B, size: 0x8, addend: 0x0, symName: __ZNSt3__126__end_marked_subexpressionIcED0Ev, symObjAddr: 0x153C8, symBinAddr: 0x398D4, symSize: 0x48 }
  - { offset: 0x1B9E39, size: 0x8, addend: 0x0, symName: __ZNSt3__126__end_marked_subexpressionIcED0Ev, symObjAddr: 0x153C8, symBinAddr: 0x398D4, symSize: 0x48 }
  - { offset: 0x1B9E64, size: 0x8, addend: 0x0, symName: __ZNKSt3__126__end_marked_subexpressionIcE6__execERNS_7__stateIcEE, symObjAddr: 0x15410, symBinAddr: 0x3991C, symSize: 0x38 }
  - { offset: 0x1BA121, size: 0x8, addend: 0x0, symName: __ZNSt3__16__loopIcED0Ev, symObjAddr: 0x15684, symBinAddr: 0x39B90, symSize: 0x68 }
  - { offset: 0x1BA212, size: 0x8, addend: 0x0, symName: __ZNSt3__16__loopIcED1Ev, symObjAddr: 0x1561C, symBinAddr: 0x39B28, symSize: 0x68 }
  - { offset: 0x1BA334, size: 0x8, addend: 0x0, symName: __ZNKSt3__16__loopIcE6__execERNS_7__stateIcEE, symObjAddr: 0x156EC, symBinAddr: 0x39BF8, symSize: 0x1F8 }
  - { offset: 0x1BA467, size: 0x8, addend: 0x0, symName: __ZNKSt3__16__loopIcE12__exec_splitEbRNS_7__stateIcEE, symObjAddr: 0x158E4, symBinAddr: 0x39DF0, symSize: 0xD8 }
  - { offset: 0x1BA538, size: 0x8, addend: 0x0, symName: __ZNSt3__117__owns_two_statesIcED1Ev, symObjAddr: 0x159BC, symBinAddr: 0x39EC8, symSize: 0x68 }
  - { offset: 0x1BA5C6, size: 0x8, addend: 0x0, symName: __ZNSt3__117__owns_two_statesIcED0Ev, symObjAddr: 0x15A24, symBinAddr: 0x39F30, symSize: 0x68 }
  - { offset: 0x1BA660, size: 0x8, addend: 0x0, symName: __ZNSt3__117__repeat_one_loopIcED1Ev, symObjAddr: 0x15A8C, symBinAddr: 0x39F98, symSize: 0x4 }
  - { offset: 0x1BA68C, size: 0x8, addend: 0x0, symName: __ZNSt3__117__repeat_one_loopIcED0Ev, symObjAddr: 0x15A90, symBinAddr: 0x39F9C, symSize: 0x4 }
  - { offset: 0x1BA6B8, size: 0x8, addend: 0x0, symName: __ZNKSt3__117__repeat_one_loopIcE6__execERNS_7__stateIcEE, symObjAddr: 0x15A94, symBinAddr: 0x39FA0, symSize: 0x14 }
  - { offset: 0x1BA725, size: 0x8, addend: 0x0, symName: __ZNSt3__111__alternateIcED1Ev, symObjAddr: 0x15AA8, symBinAddr: 0x39FB4, symSize: 0x68 }
  - { offset: 0x1BA7D3, size: 0x8, addend: 0x0, symName: __ZNSt3__111__alternateIcED0Ev, symObjAddr: 0x15B10, symBinAddr: 0x3A01C, symSize: 0x68 }
  - { offset: 0x1BA88D, size: 0x8, addend: 0x0, symName: __ZNKSt3__111__alternateIcE6__execERNS_7__stateIcEE, symObjAddr: 0x15B78, symBinAddr: 0x3A084, symSize: 0xC }
  - { offset: 0x1BA8C0, size: 0x8, addend: 0x0, symName: __ZNKSt3__111__alternateIcE12__exec_splitEbRNS_7__stateIcEE, symObjAddr: 0x15B84, symBinAddr: 0x3A090, symSize: 0x24 }
  - { offset: 0x1BA906, size: 0x8, addend: 0x0, symName: __ZNSt3__121__empty_non_own_stateIcED1Ev, symObjAddr: 0x15BA8, symBinAddr: 0x3A0B4, symSize: 0x4 }
  - { offset: 0x1BA932, size: 0x8, addend: 0x0, symName: __ZNSt3__121__empty_non_own_stateIcED0Ev, symObjAddr: 0x15BAC, symBinAddr: 0x3A0B8, symSize: 0x4 }
  - { offset: 0x1BA95E, size: 0x8, addend: 0x0, symName: __ZNKSt3__121__empty_non_own_stateIcE6__execERNS_7__stateIcEE, symObjAddr: 0x15BB0, symBinAddr: 0x3A0BC, symSize: 0x14 }
  - { offset: 0x1BAAAD, size: 0x8, addend: 0x0, symName: __ZNSt3__111basic_regexIcNS_12regex_traitsIcEEE32__parse_one_char_or_coll_elem_REINS_11__wrap_iterIPKcEEEET_S9_S9_, symObjAddr: 0x16090, symBinAddr: 0x3A59C, symSize: 0x18C }
  - { offset: 0x1BAE3C, size: 0x8, addend: 0x0, symName: __ZNSt3__111__match_anyIcED1Ev, symObjAddr: 0x1621C, symBinAddr: 0x3A728, symSize: 0x48 }
  - { offset: 0x1BAE60, size: 0x8, addend: 0x0, symName: __ZNSt3__111__match_anyIcED1Ev, symObjAddr: 0x1621C, symBinAddr: 0x3A728, symSize: 0x48 }
  - { offset: 0x1BAE7E, size: 0x8, addend: 0x0, symName: __ZNSt3__111__match_anyIcED1Ev, symObjAddr: 0x1621C, symBinAddr: 0x3A728, symSize: 0x48 }
  - { offset: 0x1BAEC5, size: 0x8, addend: 0x0, symName: __ZNSt3__111__match_anyIcED0Ev, symObjAddr: 0x16264, symBinAddr: 0x3A770, symSize: 0x48 }
  - { offset: 0x1BAEF5, size: 0x8, addend: 0x0, symName: __ZNSt3__111__match_anyIcED0Ev, symObjAddr: 0x16264, symBinAddr: 0x3A770, symSize: 0x48 }
  - { offset: 0x1BAF13, size: 0x8, addend: 0x0, symName: __ZNSt3__111__match_anyIcED0Ev, symObjAddr: 0x16264, symBinAddr: 0x3A770, symSize: 0x48 }
  - { offset: 0x1BAF31, size: 0x8, addend: 0x0, symName: __ZNSt3__111__match_anyIcED0Ev, symObjAddr: 0x16264, symBinAddr: 0x3A770, symSize: 0x48 }
  - { offset: 0x1BAF5C, size: 0x8, addend: 0x0, symName: __ZNKSt3__111__match_anyIcE6__execERNS_7__stateIcEE, symObjAddr: 0x162AC, symBinAddr: 0x3A7B8, symSize: 0x40 }
  - { offset: 0x1BAFAC, size: 0x8, addend: 0x0, symName: __ZNSt3__111basic_regexIcNS_12regex_traitsIcEEE15__test_back_refEc, symObjAddr: 0x162EC, symBinAddr: 0x3A7F8, symSize: 0x60 }
  - { offset: 0x1BB0A5, size: 0x8, addend: 0x0, symName: __ZNSt3__111basic_regexIcNS_12regex_traitsIcEEE22__parse_ERE_expressionINS_11__wrap_iterIPKcEEEET_S9_S9_, symObjAddr: 0x1634C, symBinAddr: 0x3A858, symSize: 0x1F0 }
  - { offset: 0x1BB0B0, size: 0x8, addend: 0x0, symName: __ZNSt3__111basic_regexIcNS_12regex_traitsIcEEE33__parse_one_char_or_coll_elem_EREINS_11__wrap_iterIPKcEEEET_S9_S9_, symObjAddr: 0x1653C, symBinAddr: 0x3AA48, symSize: 0x158 }
  - { offset: 0x1BB2CC, size: 0x8, addend: 0x0, symName: __ZNSt3__111basic_regexIcNS_12regex_traitsIcEEE23__parse_QUOTED_CHAR_EREINS_11__wrap_iterIPKcEEEET_S9_S9_, symObjAddr: 0x16694, symBinAddr: 0x3ABA0, symSize: 0xC8 }
  - { offset: 0x1BB45C, size: 0x8, addend: 0x0, symName: __ZNSt3__128__exception_guard_exceptionsINS_29_AllocatorDestroyRangeReverseINS_9allocatorINS_6vectorI21llama_grammar_elementNS2_IS4_EEEEEEPS6_EEED1B8ne200100Ev, symObjAddr: 0x168DC, symBinAddr: 0x3AD60, symSize: 0x6C }
  - { offset: 0x1E9569, size: 0x8, addend: 0x0, symName: __ZNSt3__125__throw_bad_function_callB8ne200100Ev, symObjAddr: 0xBC20, symBinAddr: 0x46918, symSize: 0x34 }
  - { offset: 0x1E99CC, size: 0x8, addend: 0x0, symName: __ZNSt3__111make_uniqueB8ne200100I24llm_graph_input_samplingJRKNS_3mapIiP13llama_samplerNS_4lessIiEENS_9allocatorINS_4pairIKiS4_EEEEEEELi0EEENS_10unique_ptrIT_NS_14default_deleteISG_EEEEDpOT0_, symObjAddr: 0xA81C, symBinAddr: 0x45A74, symSize: 0xF4 }
  - { offset: 0x1F3A7E, size: 0x8, addend: 0x0, symName: __ZN20llm_graph_input_embd9set_inputEPK12llama_ubatch, symObjAddr: 0x0, symBinAddr: 0x3B32C, symSize: 0xD8 }
  - { offset: 0x1F3B48, size: 0x8, addend: 0x0, symName: __ZN20llm_graph_input_embd9can_reuseERK16llm_graph_params, symObjAddr: 0xD8, symBinAddr: 0x3B404, symSize: 0x68 }
  - { offset: 0x1F3BAD, size: 0x8, addend: 0x0, symName: __ZN20llm_graph_input_embd9can_reuseERK16llm_graph_params, symObjAddr: 0xD8, symBinAddr: 0x3B404, symSize: 0x68 }
  - { offset: 0x1F3E3E, size: 0x8, addend: 0x0, symName: __ZN19llm_graph_input_pos9set_inputEPK12llama_ubatch, symObjAddr: 0x140, symBinAddr: 0x3B46C, symSize: 0x270 }
  - { offset: 0x1F41F5, size: 0x8, addend: 0x0, symName: __ZN19llm_graph_input_pos9can_reuseERK16llm_graph_params, symObjAddr: 0x3B0, symBinAddr: 0x3B6DC, symSize: 0x24 }
  - { offset: 0x1F44B0, size: 0x8, addend: 0x0, symName: __ZN25llm_graph_input_attn_temp9set_inputEPK12llama_ubatch, symObjAddr: 0x3D4, symBinAddr: 0x3B700, symSize: 0x274 }
  - { offset: 0x1F4910, size: 0x8, addend: 0x0, symName: __ZN26llm_graph_input_pos_bucket9set_inputEPK12llama_ubatch, symObjAddr: 0x648, symBinAddr: 0x3B974, symSize: 0x3E0 }
  - { offset: 0x1F4A4A, size: 0x8, addend: 0x0, symName: __Z30llama_relative_position_bucketiiyb, symObjAddr: 0xA28, symBinAddr: 0x3BD54, symSize: 0xAC }
  - { offset: 0x1F4A79, size: 0x8, addend: 0x0, symName: __Z30llama_relative_position_bucketiiyb, symObjAddr: 0xA28, symBinAddr: 0x3BD54, symSize: 0xAC }
  - { offset: 0x1F4ADB, size: 0x8, addend: 0x0, symName: __ZN29llm_graph_input_pos_bucket_kv9set_inputEPK12llama_ubatch, symObjAddr: 0xAD4, symBinAddr: 0x3BE00, symSize: 0x18 }
  - { offset: 0x1F4B13, size: 0x8, addend: 0x0, symName: __ZN23llm_graph_input_out_ids9set_inputEPK12llama_ubatch, symObjAddr: 0xAEC, symBinAddr: 0x3BE18, symSize: 0x2A4 }
  - { offset: 0x1F4BDA, size: 0x8, addend: 0x0, symName: __ZN23llm_graph_input_out_ids9can_reuseERK16llm_graph_params, symObjAddr: 0xD90, symBinAddr: 0x3C0BC, symSize: 0x1C }
  - { offset: 0x1F4BED, size: 0x8, addend: 0x0, symName: __ZN23llm_graph_input_out_ids9can_reuseERK16llm_graph_params, symObjAddr: 0xD90, symBinAddr: 0x3C0BC, symSize: 0x1C }
  - { offset: 0x1F4EA8, size: 0x8, addend: 0x0, symName: __ZN20llm_graph_input_mean9set_inputEPK12llama_ubatch, symObjAddr: 0xDAC, symBinAddr: 0x3C0D8, symSize: 0x590 }
  - { offset: 0x1F56B7, size: 0x8, addend: 0x0, symName: __ZN19llm_graph_input_cls9set_inputEPK12llama_ubatch, symObjAddr: 0x133C, symBinAddr: 0x3C668, symSize: 0x370 }
  - { offset: 0x1F5CE3, size: 0x8, addend: 0x0, symName: __ZN18llm_graph_input_rs9set_inputEPK12llama_ubatch, symObjAddr: 0x16AC, symBinAddr: 0x3C9D8, symSize: 0xA0 }
  - { offset: 0x1F5D63, size: 0x8, addend: 0x0, symName: __ZN18llm_graph_input_rs9can_reuseERK16llm_graph_params, symObjAddr: 0x174C, symBinAddr: 0x3CA78, symSize: 0xB4 }
  - { offset: 0x1F5D76, size: 0x8, addend: 0x0, symName: __ZN18llm_graph_input_rs9can_reuseERK16llm_graph_params, symObjAddr: 0x174C, symBinAddr: 0x3CA78, symSize: 0xB4 }
  - { offset: 0x1F5DEC, size: 0x8, addend: 0x0, symName: __ZN26llm_graph_input_cross_embd9set_inputEPK12llama_ubatch, symObjAddr: 0x1800, symBinAddr: 0x3CB2C, symSize: 0x54 }
  - { offset: 0x1F5E7C, size: 0x8, addend: 0x0, symName: __ZN29llm_graph_input_attn_no_cache9set_inputEPK12llama_ubatch, symObjAddr: 0x1854, symBinAddr: 0x3CB80, symSize: 0x5F0 }
  - { offset: 0x1F6299, size: 0x8, addend: 0x0, symName: __ZL10print_maskPKfxxx14llama_swa_type, symObjAddr: 0x1E44, symBinAddr: 0x3D170, symSize: 0x20C }
  - { offset: 0x1F63E5, size: 0x8, addend: 0x0, symName: __ZL10print_maskPKfxxx14llama_swa_type, symObjAddr: 0x1E44, symBinAddr: 0x3D170, symSize: 0x20C }
  - { offset: 0x1F65EC, size: 0x8, addend: 0x0, symName: __ZN23llm_graph_input_attn_kv9set_inputEPK12llama_ubatch, symObjAddr: 0x2050, symBinAddr: 0x3D37C, symSize: 0x54 }
  - { offset: 0x1F6626, size: 0x8, addend: 0x0, symName: __ZN23llm_graph_input_attn_kv9can_reuseERK16llm_graph_params, symObjAddr: 0x20A4, symBinAddr: 0x3D3D0, symSize: 0x74 }
  - { offset: 0x1F6680, size: 0x8, addend: 0x0, symName: __ZN22llm_graph_input_attn_k9set_inputEPK12llama_ubatch, symObjAddr: 0x2118, symBinAddr: 0x3D444, symSize: 0x44 }
  - { offset: 0x1F66BA, size: 0x8, addend: 0x0, symName: __ZN22llm_graph_input_attn_k9can_reuseERK16llm_graph_params, symObjAddr: 0x215C, symBinAddr: 0x3D488, symSize: 0x70 }
  - { offset: 0x1F6714, size: 0x8, addend: 0x0, symName: __ZN28llm_graph_input_attn_kv_iswa9set_inputEPK12llama_ubatch, symObjAddr: 0x21CC, symBinAddr: 0x3D4F8, symSize: 0xA8 }
  - { offset: 0x1F674E, size: 0x8, addend: 0x0, symName: __ZN28llm_graph_input_attn_kv_iswa9can_reuseERK16llm_graph_params, symObjAddr: 0x2274, symBinAddr: 0x3D5A0, symSize: 0xE0 }
  - { offset: 0x1F687E, size: 0x8, addend: 0x0, symName: __ZN26llm_graph_input_attn_cross9set_inputEPK12llama_ubatch, symObjAddr: 0x2354, symBinAddr: 0x3D680, symSize: 0x1E4 }
  - { offset: 0x1F6A9B, size: 0x8, addend: 0x0, symName: __ZN26llm_graph_input_mem_hybrid9set_inputEPK12llama_ubatch, symObjAddr: 0x2538, symBinAddr: 0x3D864, symSize: 0x100 }
  - { offset: 0x1F6AE6, size: 0x8, addend: 0x0, symName: __ZN26llm_graph_input_mem_hybrid9set_inputEPK12llama_ubatch, symObjAddr: 0x2538, symBinAddr: 0x3D864, symSize: 0x100 }
  - { offset: 0x1F6BE8, size: 0x8, addend: 0x0, symName: __ZN26llm_graph_input_mem_hybrid9can_reuseERK16llm_graph_params, symObjAddr: 0x2638, symBinAddr: 0x3D964, symSize: 0x13C }
  - { offset: 0x1F6BFB, size: 0x8, addend: 0x0, symName: __ZN26llm_graph_input_mem_hybrid9can_reuseERK16llm_graph_params, symObjAddr: 0x2638, symBinAddr: 0x3D964, symSize: 0x13C }
  - { offset: 0x1F6D0C, size: 0x8, addend: 0x0, symName: __ZN28llm_graph_input_mem_hybrid_k9set_inputEPK12llama_ubatch, symObjAddr: 0x2774, symBinAddr: 0x3DAA0, symSize: 0xE8 }
  - { offset: 0x1F6DEF, size: 0x8, addend: 0x0, symName: __ZN28llm_graph_input_mem_hybrid_k9can_reuseERK16llm_graph_params, symObjAddr: 0x285C, symBinAddr: 0x3DB88, symSize: 0x138 }
  - { offset: 0x1F6E02, size: 0x8, addend: 0x0, symName: __ZN28llm_graph_input_mem_hybrid_k9can_reuseERK16llm_graph_params, symObjAddr: 0x285C, symBinAddr: 0x3DB88, symSize: 0x138 }
  - { offset: 0x1F6F13, size: 0x8, addend: 0x0, symName: __ZN31llm_graph_input_mem_hybrid_iswa9set_inputEPK12llama_ubatch, symObjAddr: 0x2994, symBinAddr: 0x3DCC0, symSize: 0x180 }
  - { offset: 0x1F70B6, size: 0x8, addend: 0x0, symName: __ZN31llm_graph_input_mem_hybrid_iswa9can_reuseERK16llm_graph_params, symObjAddr: 0x2B14, symBinAddr: 0x3DE40, symSize: 0x190 }
  - { offset: 0x1F70C9, size: 0x8, addend: 0x0, symName: __ZN31llm_graph_input_mem_hybrid_iswa9can_reuseERK16llm_graph_params, symObjAddr: 0x2B14, symBinAddr: 0x3DE40, symSize: 0x190 }
  - { offset: 0x1F7B33, size: 0x8, addend: 0x0, symName: __ZN24llm_graph_input_sampling9set_inputEPK12llama_ubatch, symObjAddr: 0x2CA4, symBinAddr: 0x3DFD0, symSize: 0x200 }
  - { offset: 0x1F83DA, size: 0x8, addend: 0x0, symName: __ZNSt3__112__hash_tableIiNS_4hashIiEENS_8equal_toIiEENS_9allocatorIiEEE25__emplace_unique_key_argsIiJRKiEEENS_4pairINS_15__hash_iteratorIPNS_11__hash_nodeIiPvEEEEbEERKT_DpOT0_, symObjAddr: 0xB468, symBinAddr: 0x4641C, symSize: 0x324 }
  - { offset: 0x1F8A4A, size: 0x8, addend: 0x0, symName: __ZNSt3__113unordered_setIiNS_4hashIiEENS_8equal_toIiEENS_9allocatorIiEEED1B8ne200100Ev, symObjAddr: 0x2EA4, symBinAddr: 0x3E1D0, symSize: 0x48 }
  - { offset: 0x1F8D9F, size: 0x8, addend: 0x0, symName: __ZN24llm_graph_input_sampling9can_reuseERK16llm_graph_params, symObjAddr: 0x2EEC, symBinAddr: 0x3E218, symSize: 0x150 }
  - { offset: 0x1F8DDB, size: 0x8, addend: 0x0, symName: __ZN24llm_graph_input_sampling9can_reuseERK16llm_graph_params, symObjAddr: 0x2EEC, symBinAddr: 0x3E218, symSize: 0x150 }
  - { offset: 0x1F96BF, size: 0x8, addend: 0x0, symName: __ZN16llm_graph_resultC2Ex, symObjAddr: 0x303C, symBinAddr: 0x3E368, symSize: 0x270 }
  - { offset: 0x1F9E8A, size: 0x8, addend: 0x0, symName: __ZN16llm_graph_result5resetEv, symObjAddr: 0x32AC, symBinAddr: 0x3E5D8, symSize: 0x5B0 }
  - { offset: 0x1FAD21, size: 0x8, addend: 0x0, symName: __ZNSt3__16vectorINS_10unique_ptrI17llm_graph_input_iNS_14default_deleteIS2_EEEENS_9allocatorIS5_EEED1B8ne200100Ev, symObjAddr: 0x3930, symBinAddr: 0x3EB88, symSize: 0x74 }
  - { offset: 0x1FAF41, size: 0x8, addend: 0x0, symName: __ZNSt3__16__treeINS_12__value_typeIiP11ggml_tensorEENS_19__map_value_compareIiS4_NS_4lessIiEELb1EEENS_9allocatorIS4_EEE7destroyEPNS_11__tree_nodeIS4_PvEE, symObjAddr: 0xB90C, symBinAddr: 0x468C0, symSize: 0x44 }
  - { offset: 0x1FBB24, size: 0x8, addend: 0x0, symName: __ZNSt3__16vectorINS_10unique_ptrI17llm_graph_input_iNS_14default_deleteIS2_EEEENS_9allocatorIS5_EEE20__throw_length_errorB8ne200100Ev, symObjAddr: 0xB964, symBinAddr: 0x46904, symSize: 0x14 }
  - { offset: 0x1FBBDD, size: 0x8, addend: 0x0, symName: __ZN16llm_graph_resultC1Ex, symObjAddr: 0x39A4, symBinAddr: 0x3EBFC, symSize: 0x4 }
  - { offset: 0x1FBC1A, size: 0x8, addend: 0x0, symName: __ZN16llm_graph_resultC1Ex, symObjAddr: 0x39A4, symBinAddr: 0x3EBFC, symSize: 0x4 }
  - { offset: 0x1FBC34, size: 0x8, addend: 0x0, symName: __ZNK16llm_graph_result13get_max_nodesEv, symObjAddr: 0x39A8, symBinAddr: 0x3EC00, symSize: 0x8 }
  - { offset: 0x1FBC8A, size: 0x8, addend: 0x0, symName: __ZN16llm_graph_result10set_inputsEPK12llama_ubatch, symObjAddr: 0x39B0, symBinAddr: 0x3EC08, symSize: 0x4C }
  - { offset: 0x1FBE12, size: 0x8, addend: 0x0, symName: __ZN16llm_graph_result11set_outputsEv, symObjAddr: 0x39FC, symBinAddr: 0x3EC54, symSize: 0x1A8 }
  - { offset: 0x1FC4AB, size: 0x8, addend: 0x0, symName: __ZN16llm_graph_result9can_reuseERK16llm_graph_params, symObjAddr: 0x3BA4, symBinAddr: 0x3EDFC, symSize: 0x150 }
  - { offset: 0x1FC643, size: 0x8, addend: 0x0, symName: __ZNK16llm_graph_params11allow_reuseERKS_, symObjAddr: 0x3CF4, symBinAddr: 0x3EF4C, symSize: 0x3A8 }
  - { offset: 0x1FCF6D, size: 0x8, addend: 0x0, symName: __ZN16llm_graph_result9add_inputENSt3__110unique_ptrI17llm_graph_input_iNS0_14default_deleteIS2_EEEE, symObjAddr: 0x409C, symBinAddr: 0x3F2F4, symSize: 0xF8 }
  - { offset: 0x1FD473, size: 0x8, addend: 0x0, symName: __ZN16llm_graph_result10set_paramsERK16llm_graph_params, symObjAddr: 0x4194, symBinAddr: 0x3F3EC, symSize: 0x8 }
  - { offset: 0x1FD47E, size: 0x8, addend: 0x0, symName: __ZNSt3__16vectorINS_10unique_ptrI17llm_graph_input_iNS_14default_deleteIS2_EEEENS_9allocatorIS5_EEE20__throw_length_errorB8ne200100Ev, symObjAddr: 0xB964, symBinAddr: 0x46904, symSize: 0x14 }
  - { offset: 0x1FD4A1, size: 0x8, addend: 0x0, symName: __ZN16llm_graph_result10set_paramsERK16llm_graph_params, symObjAddr: 0x4194, symBinAddr: 0x3F3EC, symSize: 0x8 }
  - { offset: 0x1FD4E0, size: 0x8, addend: 0x0, symName: __ZN16llm_graph_paramsaSERKS_, symObjAddr: 0x419C, symBinAddr: 0x3F3F4, symSize: 0x1C8 }
  - { offset: 0x1FDB06, size: 0x8, addend: 0x0, symName: __ZNSt3__16__treeINS_12__value_typeIiP13llama_samplerEENS_19__map_value_compareIiS4_NS_4lessIiEELb1EEENS_9allocatorIS4_EEE14__assign_multiINS_21__tree_const_iteratorIS4_PNS_11__tree_nodeIS4_PvEElEEEEvT_SJ_, symObjAddr: 0xAD0C, symBinAddr: 0x45F10, symSize: 0x328 }
  - { offset: 0x1FE185, size: 0x8, addend: 0x0, symName: __ZNSt3__110__function12__value_funcIFvRK12llama_ubatchP11ggml_tensorPKciEE4swapB8ne200100ERSA_, symObjAddr: 0xB208, symBinAddr: 0x46238, symSize: 0x1A0 }
  - { offset: 0x1FED2F, size: 0x8, addend: 0x0, symName: __ZN17llm_graph_contextC2ERK16llm_graph_params, symObjAddr: 0x4364, symBinAddr: 0x3F5BC, symSize: 0x1D8 }
  - { offset: 0x1FF1BB, size: 0x8, addend: 0x0, symName: __ZN17llm_graph_contextC1ERK16llm_graph_params, symObjAddr: 0x453C, symBinAddr: 0x3F794, symSize: 0x4 }
  - { offset: 0x1FF1F8, size: 0x8, addend: 0x0, symName: __ZN17llm_graph_contextC1ERK16llm_graph_params, symObjAddr: 0x453C, symBinAddr: 0x3F794, symSize: 0x4 }
  - { offset: 0x1FF2D8, size: 0x8, addend: 0x0, symName: __ZNK17llm_graph_context2cbEP11ggml_tensorPKci, symObjAddr: 0x4540, symBinAddr: 0x3F798, symSize: 0x54 }
  - { offset: 0x1FF3DF, size: 0x8, addend: 0x0, symName: __ZNK17llm_graph_context10build_cvecEP11ggml_tensori, symObjAddr: 0x4594, symBinAddr: 0x3F7EC, symSize: 0x18 }
  - { offset: 0x1FF471, size: 0x8, addend: 0x0, symName: __ZNK17llm_graph_context13build_lora_mmEP11ggml_tensorS1_, symObjAddr: 0x45AC, symBinAddr: 0x3F804, symSize: 0xEC }
  - { offset: 0x1FF658, size: 0x8, addend: 0x0, symName: __ZNK17llm_graph_context16build_lora_mm_idEP11ggml_tensorS1_S1_, symObjAddr: 0x4698, symBinAddr: 0x3F8F0, symSize: 0x100 }
  - { offset: 0x1FF848, size: 0x8, addend: 0x0, symName: __ZNK17llm_graph_context10build_normEP11ggml_tensorS1_S1_13llm_norm_typei, symObjAddr: 0x4798, symBinAddr: 0x3F9F0, symSize: 0x180 }
  - { offset: 0x1FFBF7, size: 0x8, addend: 0x0, symName: __ZNK17llm_graph_context9build_ffnEP11ggml_tensorS1_S1_S1_S1_S1_S1_S1_S1_S1_S1_15llm_ffn_op_type17llm_ffn_gate_typei, symObjAddr: 0x4918, symBinAddr: 0x3FB70, symSize: 0x7B4 }
  - { offset: 0x200E41, size: 0x8, addend: 0x0, symName: __ZNK17llm_graph_context13build_moe_ffnEP11ggml_tensorS1_S1_S1_S1_S1_xx15llm_ffn_op_typebbf29llama_expert_gating_func_typeiS1_, symObjAddr: 0x50CC, symBinAddr: 0x40324, symSize: 0x6C }
  - { offset: 0x200FA5, size: 0x8, addend: 0x0, symName: __ZNK17llm_graph_context13build_moe_ffnEP11ggml_tensorS1_S1_S1_S1_S1_xx15llm_ffn_op_typebbf29llama_expert_gating_func_typeiS1_, symObjAddr: 0x50CC, symBinAddr: 0x40324, symSize: 0x6C }
  - { offset: 0x201103, size: 0x8, addend: 0x0, symName: __ZNK17llm_graph_context13build_moe_ffnEP11ggml_tensorS1_S1_S1_S1_S1_S1_S1_S1_S1_xx15llm_ffn_op_typebbf29llama_expert_gating_func_typeiS1_, symObjAddr: 0x5138, symBinAddr: 0x40390, symSize: 0xF78 }
  - { offset: 0x2038B6, size: 0x8, addend: 0x0, symName: __ZNK17llm_graph_context14build_inp_embdEP11ggml_tensor, symObjAddr: 0x60B0, symBinAddr: 0x41308, symSize: 0x410 }
  - { offset: 0x203B40, size: 0x8, addend: 0x0, symName: __ZNK17llm_graph_context14build_inp_embdEP11ggml_tensor, symObjAddr: 0x60B0, symBinAddr: 0x41308, symSize: 0x410 }
  - { offset: 0x2046C3, size: 0x8, addend: 0x0, symName: __ZNK17llm_graph_context13build_inp_posEv, symObjAddr: 0x64C0, symBinAddr: 0x41718, symSize: 0x17C }
  - { offset: 0x204CAB, size: 0x8, addend: 0x0, symName: __ZNK17llm_graph_context20build_inp_attn_scaleEv, symObjAddr: 0x663C, symBinAddr: 0x41894, symSize: 0x180 }
  - { offset: 0x2052DF, size: 0x8, addend: 0x0, symName: __ZNK17llm_graph_context17build_inp_out_idsEv, symObjAddr: 0x67BC, symBinAddr: 0x41A14, symSize: 0x19C }
  - { offset: 0x2058A9, size: 0x8, addend: 0x0, symName: __ZNK17llm_graph_context14build_inp_meanEv, symObjAddr: 0x6958, symBinAddr: 0x41BB0, symSize: 0x188 }
  - { offset: 0x205E63, size: 0x8, addend: 0x0, symName: __ZNK17llm_graph_context13build_inp_clsEv, symObjAddr: 0x6AE0, symBinAddr: 0x41D38, symSize: 0x18C }
  - { offset: 0x20641C, size: 0x8, addend: 0x0, symName: __ZNK17llm_graph_context20build_inp_cross_embdEv, symObjAddr: 0x6C6C, symBinAddr: 0x41EC4, symSize: 0x1A0 }
  - { offset: 0x206A1F, size: 0x8, addend: 0x0, symName: __ZNK17llm_graph_context24build_inp_pos_bucket_encEv, symObjAddr: 0x6E0C, symBinAddr: 0x42064, symSize: 0x170 }
  - { offset: 0x206FEA, size: 0x8, addend: 0x0, symName: __ZNK17llm_graph_context24build_inp_pos_bucket_decEv, symObjAddr: 0x6F7C, symBinAddr: 0x421D4, symSize: 0x1A4 }
  - { offset: 0x207590, size: 0x8, addend: 0x0, symName: __ZNK17llm_graph_context14build_pos_biasEP11ggml_tensorS1_, symObjAddr: 0x7120, symBinAddr: 0x42378, symSize: 0x118 }
  - { offset: 0x20789A, size: 0x8, addend: 0x0, symName: __ZNK17llm_graph_context14build_attn_mhaEP11ggml_tensorS1_S1_S1_S1_S1_S1_fi, symObjAddr: 0x7238, symBinAddr: 0x42490, symSize: 0x6E4 }
  - { offset: 0x208AF8, size: 0x8, addend: 0x0, symName: __ZNK17llm_graph_context23build_attn_inp_no_cacheEv, symObjAddr: 0x791C, symBinAddr: 0x42B74, symSize: 0x254 }
  - { offset: 0x2090F5, size: 0x8, addend: 0x0, symName: __ZNK17llm_graph_context10build_attnEP29llm_graph_input_attn_no_cacheP11ggml_tensorS3_S3_S3_S3_S3_S3_S3_fi, symObjAddr: 0x7B70, symBinAddr: 0x42DC8, symSize: 0x150 }
  - { offset: 0x209460, size: 0x8, addend: 0x0, symName: __ZNK17llm_graph_context17build_attn_inp_kvEv, symObjAddr: 0x7CC0, symBinAddr: 0x42F18, symSize: 0x134 }
  - { offset: 0x2099F9, size: 0x8, addend: 0x0, symName: __ZL22build_attn_inp_kv_implP12ggml_contextRK12llama_ubatchRK13llama_hparamsRK13llama_cparamsPK22llama_kv_cache_context, symObjAddr: 0x7DF4, symBinAddr: 0x4304C, symSize: 0x1C0 }
  - { offset: 0x209E29, size: 0x8, addend: 0x0, symName: __ZNK17llm_graph_context10build_attnEP23llm_graph_input_attn_kvP11ggml_tensorS3_S3_S3_S3_S3_S3_S3_fi, symObjAddr: 0x7FB4, symBinAddr: 0x4320C, symSize: 0x1EC }
  - { offset: 0x20A196, size: 0x8, addend: 0x0, symName: __ZNK17llm_graph_context16build_attn_inp_kEv, symObjAddr: 0x81A0, symBinAddr: 0x433F8, symSize: 0x134 }
  - { offset: 0x20A243, size: 0x8, addend: 0x0, symName: __ZNK17llm_graph_context16build_attn_inp_kEv, symObjAddr: 0x81A0, symBinAddr: 0x433F8, symSize: 0x134 }
  - { offset: 0x20A7DC, size: 0x8, addend: 0x0, symName: __ZL21build_attn_inp_k_implP12ggml_contextRK12llama_ubatchRK13llama_hparamsRK13llama_cparamsPK22llama_kv_cache_context, symObjAddr: 0x82D4, symBinAddr: 0x4352C, symSize: 0x1AC }
  - { offset: 0x20AC0C, size: 0x8, addend: 0x0, symName: __ZNK17llm_graph_context10build_attnEP22llm_graph_input_attn_kP11ggml_tensorS3_S3_S3_S3_S3_S3_S3_fi, symObjAddr: 0x8480, symBinAddr: 0x436D8, symSize: 0x1B0 }
  - { offset: 0x20AF73, size: 0x8, addend: 0x0, symName: __ZNK17llm_graph_context10build_attnEP28llm_graph_input_attn_kv_iswaP11ggml_tensorS3_S3_S3_S3_S3_S3_S3_fi, symObjAddr: 0x8630, symBinAddr: 0x43888, symSize: 0x274 }
  - { offset: 0x20B301, size: 0x8, addend: 0x0, symName: __ZNK17llm_graph_context20build_attn_inp_crossEv, symObjAddr: 0x88A4, symBinAddr: 0x43AFC, symSize: 0x1C8 }
  - { offset: 0x20B8F0, size: 0x8, addend: 0x0, symName: __ZNK17llm_graph_context10build_attnEP26llm_graph_input_attn_crossP11ggml_tensorS3_S3_S3_S3_S3_S3_S3_fi, symObjAddr: 0x8A6C, symBinAddr: 0x43CC4, symSize: 0x134 }
  - { offset: 0x20BC4C, size: 0x8, addend: 0x0, symName: __ZNK17llm_graph_context22build_attn_inp_kv_iswaEv, symObjAddr: 0x8BA0, symBinAddr: 0x43DF8, symSize: 0x350 }
  - { offset: 0x20C36C, size: 0x8, addend: 0x0, symName: __ZNK17llm_graph_context8build_rsEP11ggml_tensorS1_S1_iijjjiRKNSt3__18functionIFS1_P12ggml_contextS1_S1_EEE, symObjAddr: 0x8EF0, symBinAddr: 0x44148, symSize: 0x168 }
  - { offset: 0x20C5D4, size: 0x8, addend: 0x0, symName: __ZNK17llm_graph_context12build_rs_inpEv, symObjAddr: 0x9058, symBinAddr: 0x442B0, symSize: 0x130 }
  - { offset: 0x20C6D5, size: 0x8, addend: 0x0, symName: __ZNK17llm_graph_context12build_rs_inpEv, symObjAddr: 0x9058, symBinAddr: 0x442B0, symSize: 0x130 }
  - { offset: 0x20CC6E, size: 0x8, addend: 0x0, symName: __ZL17build_rs_inp_implP12ggml_contextRK12llama_ubatchPK30llama_memory_recurrent_context, symObjAddr: 0x9188, symBinAddr: 0x443E0, symSize: 0x108 }
  - { offset: 0x20D002, size: 0x8, addend: 0x0, symName: __ZNK17llm_graph_context8build_rsEP18llm_graph_input_rsP11ggml_tensoriiRKNSt3__18functionIFS3_P12ggml_contextS3_S3_EEE, symObjAddr: 0x9290, symBinAddr: 0x444E8, symSize: 0xB4 }
  - { offset: 0x20D39D, size: 0x8, addend: 0x0, symName: __ZNK17llm_graph_context27build_rwkv_token_shift_loadEP18llm_graph_input_rsRK12llama_ubatchi, symObjAddr: 0x9344, symBinAddr: 0x4459C, symSize: 0x1C8 }
  - { offset: 0x20D72F, size: 0x8, addend: 0x0, symName: __ZNK17llm_graph_context28build_rwkv_token_shift_storeEP11ggml_tensorRK12llama_ubatchi, symObjAddr: 0x950C, symBinAddr: 0x44764, symSize: 0xE0 }
  - { offset: 0x20D95A, size: 0x8, addend: 0x0, symName: __ZNK17llm_graph_context20build_inp_mem_hybridEv, symObjAddr: 0x95EC, symBinAddr: 0x44844, symSize: 0x21C }
  - { offset: 0x20E295, size: 0x8, addend: 0x0, symName: __ZNK17llm_graph_context22build_inp_mem_hybrid_kEv, symObjAddr: 0x9808, symBinAddr: 0x44A60, symSize: 0x21C }
  - { offset: 0x20EC65, size: 0x8, addend: 0x0, symName: __ZNK17llm_graph_context25build_inp_mem_hybrid_iswaEv, symObjAddr: 0x9A24, symBinAddr: 0x44C7C, symSize: 0x3AC }
  - { offset: 0x20F5E9, size: 0x8, addend: 0x0, symName: __ZNK17llm_graph_context15build_dense_outEP11ggml_tensorS1_, symObjAddr: 0x9DD0, symBinAddr: 0x45028, symSize: 0x114 }
  - { offset: 0x20F772, size: 0x8, addend: 0x0, symName: __ZNK17llm_graph_context13build_poolingEP11ggml_tensorS1_S1_S1_, symObjAddr: 0x9EE4, symBinAddr: 0x4513C, symSize: 0x210 }
  - { offset: 0x20F785, size: 0x8, addend: 0x0, symName: __ZNK17llm_graph_context13build_poolingEP11ggml_tensorS1_S1_S1_, symObjAddr: 0x9EE4, symBinAddr: 0x4513C, symSize: 0x210 }
  - { offset: 0x20FAB8, size: 0x8, addend: 0x0, symName: __ZNK17llm_graph_context14build_samplingEv, symObjAddr: 0xA0F4, symBinAddr: 0x4534C, symSize: 0x728 }
  - { offset: 0x21062A, size: 0x8, addend: 0x0, symName: __ZNK17llm_graph_context14build_samplingEv, symObjAddr: 0xA0F4, symBinAddr: 0x4534C, symSize: 0x728 }
  - { offset: 0x2120EC, size: 0x8, addend: 0x0, symName: __ZNSt3__16__treeINS_12__value_typeIiiEENS_19__map_value_compareIiS2_NS_4lessIiEELb1EEENS_9allocatorIS2_EEE7destroyEPNS_11__tree_nodeIS2_PvEE, symObjAddr: 0xB3B0, symBinAddr: 0x463D8, symSize: 0x44 }
  - { offset: 0x21234B, size: 0x8, addend: 0x0, symName: __ZN20llm_graph_input_embdD1Ev, symObjAddr: 0xA910, symBinAddr: 0x45B68, symSize: 0x4 }
  - { offset: 0x212374, size: 0x8, addend: 0x0, symName: __ZN20llm_graph_input_embdD0Ev, symObjAddr: 0xA914, symBinAddr: 0x45B6C, symSize: 0x4 }
  - { offset: 0x21239D, size: 0x8, addend: 0x0, symName: __ZN19llm_graph_input_posD1Ev, symObjAddr: 0xA918, symBinAddr: 0x45B70, symSize: 0x4 }
  - { offset: 0x2123C6, size: 0x8, addend: 0x0, symName: __ZN19llm_graph_input_posD0Ev, symObjAddr: 0xA91C, symBinAddr: 0x45B74, symSize: 0x4 }
  - { offset: 0x2123EF, size: 0x8, addend: 0x0, symName: __ZN25llm_graph_input_attn_tempD1Ev, symObjAddr: 0xA920, symBinAddr: 0x45B78, symSize: 0x4 }
  - { offset: 0x212418, size: 0x8, addend: 0x0, symName: __ZN25llm_graph_input_attn_tempD0Ev, symObjAddr: 0xA924, symBinAddr: 0x45B7C, symSize: 0x4 }
  - { offset: 0x212441, size: 0x8, addend: 0x0, symName: __ZN17llm_graph_input_i9can_reuseERK16llm_graph_params, symObjAddr: 0xA928, symBinAddr: 0x45B80, symSize: 0x8 }
  - { offset: 0x212476, size: 0x8, addend: 0x0, symName: __ZN26llm_graph_input_pos_bucketD1Ev, symObjAddr: 0xA930, symBinAddr: 0x45B88, symSize: 0x4 }
  - { offset: 0x21249F, size: 0x8, addend: 0x0, symName: __ZN26llm_graph_input_pos_bucketD0Ev, symObjAddr: 0xA934, symBinAddr: 0x45B8C, symSize: 0x4 }
  - { offset: 0x2124C8, size: 0x8, addend: 0x0, symName: __ZN29llm_graph_input_pos_bucket_kvD1Ev, symObjAddr: 0xA938, symBinAddr: 0x45B90, symSize: 0x4 }
  - { offset: 0x2124F1, size: 0x8, addend: 0x0, symName: __ZN29llm_graph_input_pos_bucket_kvD0Ev, symObjAddr: 0xA93C, symBinAddr: 0x45B94, symSize: 0x4 }
  - { offset: 0x21251A, size: 0x8, addend: 0x0, symName: __ZN23llm_graph_input_out_idsD1Ev, symObjAddr: 0xA940, symBinAddr: 0x45B98, symSize: 0x4 }
  - { offset: 0x212543, size: 0x8, addend: 0x0, symName: __ZN23llm_graph_input_out_idsD0Ev, symObjAddr: 0xA944, symBinAddr: 0x45B9C, symSize: 0x4 }
  - { offset: 0x21256C, size: 0x8, addend: 0x0, symName: __ZN20llm_graph_input_meanD1Ev, symObjAddr: 0xA948, symBinAddr: 0x45BA0, symSize: 0x4 }
  - { offset: 0x212595, size: 0x8, addend: 0x0, symName: __ZN20llm_graph_input_meanD0Ev, symObjAddr: 0xA94C, symBinAddr: 0x45BA4, symSize: 0x4 }
  - { offset: 0x2125BE, size: 0x8, addend: 0x0, symName: __ZN19llm_graph_input_clsD1Ev, symObjAddr: 0xA950, symBinAddr: 0x45BA8, symSize: 0x4 }
  - { offset: 0x2125E7, size: 0x8, addend: 0x0, symName: __ZN19llm_graph_input_clsD0Ev, symObjAddr: 0xA954, symBinAddr: 0x45BAC, symSize: 0x4 }
  - { offset: 0x212610, size: 0x8, addend: 0x0, symName: __ZN18llm_graph_input_rsD1Ev, symObjAddr: 0xA958, symBinAddr: 0x45BB0, symSize: 0x4 }
  - { offset: 0x212639, size: 0x8, addend: 0x0, symName: __ZN18llm_graph_input_rsD0Ev, symObjAddr: 0xA95C, symBinAddr: 0x45BB4, symSize: 0x4 }
  - { offset: 0x212662, size: 0x8, addend: 0x0, symName: __ZN26llm_graph_input_cross_embdD1Ev, symObjAddr: 0xA960, symBinAddr: 0x45BB8, symSize: 0x4 }
  - { offset: 0x21268B, size: 0x8, addend: 0x0, symName: __ZN26llm_graph_input_cross_embdD0Ev, symObjAddr: 0xA964, symBinAddr: 0x45BBC, symSize: 0x4 }
  - { offset: 0x2126B4, size: 0x8, addend: 0x0, symName: __ZN29llm_graph_input_attn_no_cacheD1Ev, symObjAddr: 0xA968, symBinAddr: 0x45BC0, symSize: 0x4 }
  - { offset: 0x2126DD, size: 0x8, addend: 0x0, symName: __ZN29llm_graph_input_attn_no_cacheD0Ev, symObjAddr: 0xA96C, symBinAddr: 0x45BC4, symSize: 0x4 }
  - { offset: 0x212706, size: 0x8, addend: 0x0, symName: __ZN23llm_graph_input_attn_kvD1Ev, symObjAddr: 0xA970, symBinAddr: 0x45BC8, symSize: 0x4 }
  - { offset: 0x21272F, size: 0x8, addend: 0x0, symName: __ZN23llm_graph_input_attn_kvD0Ev, symObjAddr: 0xA974, symBinAddr: 0x45BCC, symSize: 0x4 }
  - { offset: 0x212758, size: 0x8, addend: 0x0, symName: __ZN22llm_graph_input_attn_kD1Ev, symObjAddr: 0xA978, symBinAddr: 0x45BD0, symSize: 0x4 }
  - { offset: 0x212781, size: 0x8, addend: 0x0, symName: __ZN22llm_graph_input_attn_kD0Ev, symObjAddr: 0xA97C, symBinAddr: 0x45BD4, symSize: 0x4 }
  - { offset: 0x2127AA, size: 0x8, addend: 0x0, symName: __ZN28llm_graph_input_attn_kv_iswaD1Ev, symObjAddr: 0xA980, symBinAddr: 0x45BD8, symSize: 0x4 }
  - { offset: 0x2127D3, size: 0x8, addend: 0x0, symName: __ZN28llm_graph_input_attn_kv_iswaD0Ev, symObjAddr: 0xA984, symBinAddr: 0x45BDC, symSize: 0x4 }
  - { offset: 0x2127FC, size: 0x8, addend: 0x0, symName: __ZN26llm_graph_input_attn_crossD1Ev, symObjAddr: 0xA988, symBinAddr: 0x45BE0, symSize: 0x4 }
  - { offset: 0x212825, size: 0x8, addend: 0x0, symName: __ZN26llm_graph_input_attn_crossD0Ev, symObjAddr: 0xA98C, symBinAddr: 0x45BE4, symSize: 0x4 }
  - { offset: 0x212868, size: 0x8, addend: 0x0, symName: __ZN26llm_graph_input_mem_hybridD1Ev, symObjAddr: 0xA990, symBinAddr: 0x45BE8, symSize: 0x5C }
  - { offset: 0x2129FF, size: 0x8, addend: 0x0, symName: __ZN26llm_graph_input_mem_hybridD0Ev, symObjAddr: 0xA9EC, symBinAddr: 0x45C44, symSize: 0x5C }
  - { offset: 0x212BBC, size: 0x8, addend: 0x0, symName: __ZN28llm_graph_input_mem_hybrid_kD1Ev, symObjAddr: 0xAA48, symBinAddr: 0x45CA0, symSize: 0x5C }
  - { offset: 0x212D53, size: 0x8, addend: 0x0, symName: __ZN28llm_graph_input_mem_hybrid_kD0Ev, symObjAddr: 0xAAA4, symBinAddr: 0x45CFC, symSize: 0x5C }
  - { offset: 0x212F10, size: 0x8, addend: 0x0, symName: __ZN31llm_graph_input_mem_hybrid_iswaD1Ev, symObjAddr: 0xAB00, symBinAddr: 0x45D58, symSize: 0x5C }
  - { offset: 0x2130A7, size: 0x8, addend: 0x0, symName: __ZN31llm_graph_input_mem_hybrid_iswaD0Ev, symObjAddr: 0xAB5C, symBinAddr: 0x45DB4, symSize: 0x5C }
  - { offset: 0x213264, size: 0x8, addend: 0x0, symName: __ZN24llm_graph_input_samplingD1Ev, symObjAddr: 0xABB8, symBinAddr: 0x45E10, symSize: 0x38 }
  - { offset: 0x213318, size: 0x8, addend: 0x0, symName: __ZN24llm_graph_input_samplingD0Ev, symObjAddr: 0xABF0, symBinAddr: 0x45E48, symSize: 0x38 }
  - { offset: 0x2133D8, size: 0x8, addend: 0x0, symName: __ZN16llm_graph_resultD1Ev, symObjAddr: 0xAC28, symBinAddr: 0x45E80, symSize: 0x4 }
  - { offset: 0x2133FB, size: 0x8, addend: 0x0, symName: __ZN16llm_graph_resultD1Ev, symObjAddr: 0xAC28, symBinAddr: 0x45E80, symSize: 0x4 }
  - { offset: 0x21340E, size: 0x8, addend: 0x0, symName: __ZN16llm_graph_resultD2Ev, symObjAddr: 0xBD48, symBinAddr: 0x46A40, symSize: 0x148 }
  - { offset: 0x213BA9, size: 0x8, addend: 0x0, symName: __ZN16llm_graph_resultD0Ev, symObjAddr: 0xAC2C, symBinAddr: 0x45E84, symSize: 0x14 }
  - { offset: 0x213C24, size: 0x8, addend: 0x0, symName: __ZN17llm_graph_contextD1Ev, symObjAddr: 0xAC40, symBinAddr: 0x45E98, symSize: 0x3C }
  - { offset: 0x213CD8, size: 0x8, addend: 0x0, symName: __ZN17llm_graph_contextD0Ev, symObjAddr: 0xAC7C, symBinAddr: 0x45ED4, symSize: 0x3C }
  - { offset: 0x214147, size: 0x8, addend: 0x0, symName: __ZN17llm_graph_input_iD1Ev, symObjAddr: 0xB3A8, symBinAddr: 0x274958, symSize: 0x4 }
  - { offset: 0x214170, size: 0x8, addend: 0x0, symName: __ZN17llm_graph_input_iD0Ev, symObjAddr: 0xB3AC, symBinAddr: 0x27495C, symSize: 0x4 }
  - { offset: 0x21459C, size: 0x8, addend: 0x0, symName: __ZNSt3__112__hash_tableIiNS_4hashIiEENS_8equal_toIiEENS_9allocatorIiEEE11__do_rehashILb1EEEvm, symObjAddr: 0xB78C, symBinAddr: 0x46740, symSize: 0x180 }
  - { offset: 0x214929, size: 0x8, addend: 0x0, symName: __ZNSt3__16__treeINS_12__value_typeIiP11ggml_tensorEENS_19__map_value_compareIiS4_NS_4lessIiEELb1EEENS_9allocatorIS4_EEE7destroyEPNS_11__tree_nodeIS4_PvEE, symObjAddr: 0xB90C, symBinAddr: 0x468C0, symSize: 0x44 }
  - { offset: 0x214E4A, size: 0x8, addend: 0x0, symName: __ZNSt3__110__function6__funcIPFP11ggml_tensorP12ggml_contextS3_S3_ENS_9allocatorIS7_EES6_ED1Ev, symObjAddr: 0xBC54, symBinAddr: 0x4694C, symSize: 0x4 }
  - { offset: 0x214E76, size: 0x8, addend: 0x0, symName: __ZNSt3__110__function6__funcIPFP11ggml_tensorP12ggml_contextS3_S3_ENS_9allocatorIS7_EES6_ED0Ev, symObjAddr: 0xBC58, symBinAddr: 0x46950, symSize: 0x4 }
  - { offset: 0x214F8D, size: 0x8, addend: 0x0, symName: __ZNKSt3__110__function6__funcIPFP11ggml_tensorP12ggml_contextS3_S3_ENS_9allocatorIS7_EES6_E7__cloneEv, symObjAddr: 0xBC5C, symBinAddr: 0x46954, symSize: 0x38 }
  - { offset: 0x21518E, size: 0x8, addend: 0x0, symName: __ZNKSt3__110__function6__funcIPFP11ggml_tensorP12ggml_contextS3_S3_ENS_9allocatorIS7_EES6_E7__cloneEPNS0_6__baseIS6_EE, symObjAddr: 0xBC94, symBinAddr: 0x4698C, symSize: 0x18 }
  - { offset: 0x2151C3, size: 0x8, addend: 0x0, symName: __ZNKSt3__110__function6__funcIPFP11ggml_tensorP12ggml_contextS3_S3_ENS_9allocatorIS7_EES6_E7__cloneEPNS0_6__baseIS6_EE, symObjAddr: 0xBC94, symBinAddr: 0x4698C, symSize: 0x18 }
  - { offset: 0x2151F1, size: 0x8, addend: 0x0, symName: __ZNKSt3__110__function6__funcIPFP11ggml_tensorP12ggml_contextS3_S3_ENS_9allocatorIS7_EES6_E7__cloneEPNS0_6__baseIS6_EE, symObjAddr: 0xBC94, symBinAddr: 0x4698C, symSize: 0x18 }
  - { offset: 0x21524A, size: 0x8, addend: 0x0, symName: __ZNSt3__110__function6__funcIPFP11ggml_tensorP12ggml_contextS3_S3_ENS_9allocatorIS7_EES6_E7destroyEv, symObjAddr: 0xBCAC, symBinAddr: 0x469A4, symSize: 0x4 }
  - { offset: 0x2152A1, size: 0x8, addend: 0x0, symName: __ZNSt3__110__function6__funcIPFP11ggml_tensorP12ggml_contextS3_S3_ENS_9allocatorIS7_EES6_E18destroy_deallocateEv, symObjAddr: 0xBCB0, symBinAddr: 0x469A8, symSize: 0x4 }
  - { offset: 0x2152D6, size: 0x8, addend: 0x0, symName: __ZNSt3__110__function6__funcIPFP11ggml_tensorP12ggml_contextS3_S3_ENS_9allocatorIS7_EES6_E18destroy_deallocateEv, symObjAddr: 0xBCB0, symBinAddr: 0x469A8, symSize: 0x4 }
  - { offset: 0x2152F9, size: 0x8, addend: 0x0, symName: __ZNSt3__110__function6__funcIPFP11ggml_tensorP12ggml_contextS3_S3_ENS_9allocatorIS7_EES6_E18destroy_deallocateEv, symObjAddr: 0xBCB0, symBinAddr: 0x469A8, symSize: 0x4 }
  - { offset: 0x21532C, size: 0x8, addend: 0x0, symName: __ZNSt3__110__function6__funcIPFP11ggml_tensorP12ggml_contextS3_S3_ENS_9allocatorIS7_EES6_E18destroy_deallocateEv, symObjAddr: 0xBCB0, symBinAddr: 0x469A8, symSize: 0x4 }
  - { offset: 0x2153D9, size: 0x8, addend: 0x0, symName: __ZNSt3__110__function6__funcIPFP11ggml_tensorP12ggml_contextS3_S3_ENS_9allocatorIS7_EES6_EclEOS5_OS3_SC_, symObjAddr: 0xBCB4, symBinAddr: 0x469AC, symSize: 0x14 }
  - { offset: 0x215430, size: 0x8, addend: 0x0, symName: __ZNSt3__110__function6__funcIPFP11ggml_tensorP12ggml_contextS3_S3_ENS_9allocatorIS7_EES6_EclEOS5_OS3_SC_, symObjAddr: 0xBCB4, symBinAddr: 0x469AC, symSize: 0x14 }
  - { offset: 0x215467, size: 0x8, addend: 0x0, symName: __ZNSt3__110__function6__funcIPFP11ggml_tensorP12ggml_contextS3_S3_ENS_9allocatorIS7_EES6_EclEOS5_OS3_SC_, symObjAddr: 0xBCB4, symBinAddr: 0x469AC, symSize: 0x14 }
  - { offset: 0x21549D, size: 0x8, addend: 0x0, symName: __ZNSt3__110__function6__funcIPFP11ggml_tensorP12ggml_contextS3_S3_ENS_9allocatorIS7_EES6_EclEOS5_OS3_SC_, symObjAddr: 0xBCB4, symBinAddr: 0x469AC, symSize: 0x14 }
  - { offset: 0x2154D4, size: 0x8, addend: 0x0, symName: __ZNSt3__110__function6__funcIPFP11ggml_tensorP12ggml_contextS3_S3_ENS_9allocatorIS7_EES6_EclEOS5_OS3_SC_, symObjAddr: 0xBCB4, symBinAddr: 0x469AC, symSize: 0x14 }
  - { offset: 0x215571, size: 0x8, addend: 0x0, symName: __ZNKSt3__110__function6__funcIPFP11ggml_tensorP12ggml_contextS3_S3_ENS_9allocatorIS7_EES6_E6targetERKSt9type_info, symObjAddr: 0xBCC8, symBinAddr: 0x469C0, symSize: 0x74 }
  - { offset: 0x215636, size: 0x8, addend: 0x0, symName: __ZNKSt3__110__function6__funcIPFP11ggml_tensorP12ggml_contextS3_S3_ENS_9allocatorIS7_EES6_E11target_typeEv, symObjAddr: 0xBD3C, symBinAddr: 0x46A34, symSize: 0xC }
  - { offset: 0x2175F4, size: 0x8, addend: 0x0, symName: __ZN13llama_hparams15set_swa_patternEjb, symObjAddr: 0x0, symBinAddr: 0x46B88, symSize: 0x1C8 }
  - { offset: 0x2197BA, size: 0x8, addend: 0x0, symName: __ZN13llama_hparams15set_swa_patternEjb, symObjAddr: 0x0, symBinAddr: 0x46B88, symSize: 0x1C8 }
  - { offset: 0x21982D, size: 0x8, addend: 0x0, symName: __ZNK13llama_hparams10is_swa_anyEv, symObjAddr: 0x1C8, symBinAddr: 0x46D50, symSize: 0x50 }
  - { offset: 0x21986C, size: 0x8, addend: 0x0, symName: __ZNK13llama_hparams6n_headEj, symObjAddr: 0x218, symBinAddr: 0x46DA0, symSize: 0x38 }
  - { offset: 0x219899, size: 0x8, addend: 0x0, symName: __ZNK13llama_hparams9n_head_kvEj, symObjAddr: 0x250, symBinAddr: 0x46DD8, symSize: 0x38 }
  - { offset: 0x2198CB, size: 0x8, addend: 0x0, symName: __ZNK13llama_hparams9n_head_kvEj, symObjAddr: 0x250, symBinAddr: 0x46DD8, symSize: 0x38 }
  - { offset: 0x2198F8, size: 0x8, addend: 0x0, symName: __ZNK13llama_hparams4n_ffEj, symObjAddr: 0x288, symBinAddr: 0x46E10, symSize: 0x38 }
  - { offset: 0x21990A, size: 0x8, addend: 0x0, symName: __ZNK13llama_hparams4n_ffEj, symObjAddr: 0x288, symBinAddr: 0x46E10, symSize: 0x38 }
  - { offset: 0x219944, size: 0x8, addend: 0x0, symName: __ZNK13llama_hparams5n_gqaEj, symObjAddr: 0x2C0, symBinAddr: 0x46E48, symSize: 0x54 }
  - { offset: 0x2199A2, size: 0x8, addend: 0x0, symName: __ZNK13llama_hparams5n_gqaEj, symObjAddr: 0x2C0, symBinAddr: 0x46E48, symSize: 0x54 }
  - { offset: 0x219A3E, size: 0x8, addend: 0x0, symName: __ZNK13llama_hparams10n_embd_inpEv, symObjAddr: 0x314, symBinAddr: 0x46E9C, symSize: 0x14 }
  - { offset: 0x219A50, size: 0x8, addend: 0x0, symName: __ZNK13llama_hparams10n_embd_inpEv, symObjAddr: 0x314, symBinAddr: 0x46E9C, symSize: 0x14 }
  - { offset: 0x219A89, size: 0x8, addend: 0x0, symName: __ZNK13llama_hparams10n_embd_outEv, symObjAddr: 0x328, symBinAddr: 0x46EB0, symSize: 0x18 }
  - { offset: 0x219AB2, size: 0x8, addend: 0x0, symName: __ZNK13llama_hparams12n_embd_k_gqaEj, symObjAddr: 0x340, symBinAddr: 0x46EC8, symSize: 0x40 }
  - { offset: 0x219B07, size: 0x8, addend: 0x0, symName: __ZNK13llama_hparams12n_embd_v_gqaEj, symObjAddr: 0x380, symBinAddr: 0x46F08, symSize: 0x40 }
  - { offset: 0x219B19, size: 0x8, addend: 0x0, symName: __ZNK13llama_hparams12n_embd_v_gqaEj, symObjAddr: 0x380, symBinAddr: 0x46F08, symSize: 0x40 }
  - { offset: 0x219B6E, size: 0x8, addend: 0x0, symName: __ZNK13llama_hparams24is_n_embd_k_gqa_variableEv, symObjAddr: 0x3C0, symBinAddr: 0x46F48, symSize: 0x6C }
  - { offset: 0x219BB3, size: 0x8, addend: 0x0, symName: __ZNK13llama_hparams24is_n_embd_k_gqa_variableEv, symObjAddr: 0x3C0, symBinAddr: 0x46F48, symSize: 0x6C }
  - { offset: 0x219C95, size: 0x8, addend: 0x0, symName: __ZNK13llama_hparams24is_n_embd_v_gqa_variableEv, symObjAddr: 0x42C, symBinAddr: 0x46FB4, symSize: 0x6C }
  - { offset: 0x219CD5, size: 0x8, addend: 0x0, symName: __ZNK13llama_hparams24is_n_embd_v_gqa_variableEv, symObjAddr: 0x42C, symBinAddr: 0x46FB4, symSize: 0x6C }
  - { offset: 0x219DB7, size: 0x8, addend: 0x0, symName: __ZNK13llama_hparams16n_embd_k_gqa_maxEv, symObjAddr: 0x498, symBinAddr: 0x47020, symSize: 0x138 }
  - { offset: 0x219DC9, size: 0x8, addend: 0x0, symName: __ZNK13llama_hparams16n_embd_k_gqa_maxEv, symObjAddr: 0x498, symBinAddr: 0x47020, symSize: 0x138 }
  - { offset: 0x219E8D, size: 0x8, addend: 0x0, symName: __ZNK13llama_hparams16n_embd_v_gqa_maxEv, symObjAddr: 0x5D0, symBinAddr: 0x47158, symSize: 0x138 }
  - { offset: 0x219E9F, size: 0x8, addend: 0x0, symName: __ZNK13llama_hparams16n_embd_v_gqa_maxEv, symObjAddr: 0x5D0, symBinAddr: 0x47158, symSize: 0x138 }
  - { offset: 0x219F63, size: 0x8, addend: 0x0, symName: __ZNK13llama_hparams8n_embd_rEv, symObjAddr: 0x708, symBinAddr: 0x47290, symSize: 0xB0 }
  - { offset: 0x219F75, size: 0x8, addend: 0x0, symName: __ZNK13llama_hparams8n_embd_rEv, symObjAddr: 0x708, symBinAddr: 0x47290, symSize: 0xB0 }
  - { offset: 0x219FD5, size: 0x8, addend: 0x0, symName: __ZNK13llama_hparams8n_embd_sEv, symObjAddr: 0x7B8, symBinAddr: 0x47340, symSize: 0x64 }
  - { offset: 0x219FE7, size: 0x8, addend: 0x0, symName: __ZNK13llama_hparams8n_embd_sEv, symObjAddr: 0x7B8, symBinAddr: 0x47340, symSize: 0x64 }
  - { offset: 0x21A031, size: 0x8, addend: 0x0, symName: __ZNK13llama_hparams12is_recurrentEj, symObjAddr: 0x81C, symBinAddr: 0x473A4, symSize: 0x50 }
  - { offset: 0x21A043, size: 0x8, addend: 0x0, symName: __ZNK13llama_hparams12is_recurrentEj, symObjAddr: 0x81C, symBinAddr: 0x473A4, symSize: 0x50 }
  - { offset: 0x21A07D, size: 0x8, addend: 0x0, symName: __ZNK13llama_hparams14n_pos_per_embdEv, symObjAddr: 0x86C, symBinAddr: 0x473F4, symSize: 0x1C }
  - { offset: 0x21A090, size: 0x8, addend: 0x0, symName: __ZNK13llama_hparams14n_pos_per_embdEv, symObjAddr: 0x86C, symBinAddr: 0x473F4, symSize: 0x1C }
  - { offset: 0x21A0B9, size: 0x8, addend: 0x0, symName: __ZNK13llama_hparams6is_swaEj, symObjAddr: 0x888, symBinAddr: 0x47410, symSize: 0x40 }
  - { offset: 0x21A0F3, size: 0x8, addend: 0x0, symName: __ZNK13llama_hparams6is_mlaEv, symObjAddr: 0x8C8, symBinAddr: 0x47450, symSize: 0x20 }
  - { offset: 0x21A106, size: 0x8, addend: 0x0, symName: __ZNK13llama_hparams6is_mlaEv, symObjAddr: 0x8C8, symBinAddr: 0x47450, symSize: 0x20 }
  - { offset: 0x21A140, size: 0x8, addend: 0x0, symName: __ZNK13llama_hparams17n_embd_head_k_mlaEv, symObjAddr: 0x8E8, symBinAddr: 0x47470, symSize: 0x30 }
  - { offset: 0x21A16B, size: 0x8, addend: 0x0, symName: __ZNK13llama_hparams17n_embd_head_k_mlaEv, symObjAddr: 0x8E8, symBinAddr: 0x47470, symSize: 0x30 }
  - { offset: 0x21A185, size: 0x8, addend: 0x0, symName: __ZNK13llama_hparams17n_embd_head_v_mlaEv, symObjAddr: 0x918, symBinAddr: 0x474A0, symSize: 0x30 }
  - { offset: 0x21A1B0, size: 0x8, addend: 0x0, symName: __ZNK13llama_hparams17n_embd_head_v_mlaEv, symObjAddr: 0x918, symBinAddr: 0x474A0, symSize: 0x30 }
  - { offset: 0x21A1CA, size: 0x8, addend: 0x0, symName: __ZNK13llama_hparams6has_kvEj, symObjAddr: 0x948, symBinAddr: 0x474D0, symSize: 0x14 }
  - { offset: 0x21A216, size: 0x8, addend: 0x0, symName: __ZNK13llama_hparams10n_layer_kvEv, symObjAddr: 0x95C, symBinAddr: 0x474E4, symSize: 0x19C }
  - { offset: 0x21A27B, size: 0x8, addend: 0x0, symName: __ZNK13llama_hparams9use_mropeEv, symObjAddr: 0xAF8, symBinAddr: 0x47680, symSize: 0x24 }
  - { offset: 0x21C1D1, size: 0x8, addend: 0x0, symName: __ZL14g_logger_state.0, symObjAddr: 0x1878, symBinAddr: 0x2E82C0, symSize: 0x0 }
  - { offset: 0x21C1DC, size: 0x8, addend: 0x0, symName: __ZL14g_logger_state.1, symObjAddr: 0x2E138, symBinAddr: 0x371E08, symSize: 0x0 }
  - { offset: 0x2233C5, size: 0x8, addend: 0x0, symName: __ZN9time_measC2ERxb, symObjAddr: 0x0, symBinAddr: 0x476A4, symSize: 0x48 }
  - { offset: 0x22344C, size: 0x8, addend: 0x0, symName: __ZN9time_measC1ERxb, symObjAddr: 0x48, symBinAddr: 0x476EC, symSize: 0x48 }
  - { offset: 0x2234CD, size: 0x8, addend: 0x0, symName: __ZN9time_measD2Ev, symObjAddr: 0x90, symBinAddr: 0x47734, symSize: 0x44 }
  - { offset: 0x223519, size: 0x8, addend: 0x0, symName: __ZN9time_measD1Ev, symObjAddr: 0xE4, symBinAddr: 0x47778, symSize: 0x44 }
  - { offset: 0x22356A, size: 0x8, addend: 0x0, symName: _llama_log_get, symObjAddr: 0x128, symBinAddr: 0x477BC, symSize: 0x4 }
  - { offset: 0x2235A0, size: 0x8, addend: 0x0, symName: _llama_log_get, symObjAddr: 0x128, symBinAddr: 0x477BC, symSize: 0x4 }
  - { offset: 0x2235D3, size: 0x8, addend: 0x0, symName: _llama_log_set, symObjAddr: 0x12C, symBinAddr: 0x477C0, symSize: 0x44 }
  - { offset: 0x223637, size: 0x8, addend: 0x0, symName: __Z26llama_log_callback_default14ggml_log_levelPKcPv, symObjAddr: 0x170, symBinAddr: 0x47804, symSize: 0x30 }
  - { offset: 0x2238CF, size: 0x8, addend: 0x0, symName: __Z18llama_log_internal14ggml_log_levelPKcz, symObjAddr: 0x1A0, symBinAddr: 0x47834, symSize: 0x10C }
  - { offset: 0x223C8B, size: 0x8, addend: 0x0, symName: __Z11replace_allRNSt3__112basic_stringIcNS_11char_traitsIcEENS_9allocatorIcEEEERKS5_S8_, symObjAddr: 0x2AC, symBinAddr: 0x47940, symSize: 0x1F8 }
  - { offset: 0x2245FC, size: 0x8, addend: 0x0, symName: __Z6formatPKcz, symObjAddr: 0x4A4, symBinAddr: 0x47B38, symSize: 0x158 }
  - { offset: 0x224CB4, size: 0x8, addend: 0x0, symName: __Z25llama_format_tensor_shapeRKNSt3__16vectorIxNS_9allocatorIxEEEE, symObjAddr: 0x5FC, symBinAddr: 0x47C90, symSize: 0x180 }
  - { offset: 0x225056, size: 0x8, addend: 0x0, symName: __ZNSt3__16vectorIxNS_9allocatorIxEEE20__throw_out_of_rangeB8ne200100Ev, symObjAddr: 0x1388, symBinAddr: 0x48778, symSize: 0x14 }
  - { offset: 0x22508E, size: 0x8, addend: 0x0, symName: __Z25llama_format_tensor_shapePK11ggml_tensor, symObjAddr: 0x77C, symBinAddr: 0x47E10, symSize: 0x180 }
  - { offset: 0x225570, size: 0x8, addend: 0x0, symName: __Z14gguf_kv_to_strPK12gguf_contexti, symObjAddr: 0x8FC, symBinAddr: 0x47F90, symSize: 0x5EC }
  - { offset: 0x226AE6, size: 0x8, addend: 0x0, symName: __ZL16gguf_data_to_str9gguf_typePKvi, symObjAddr: 0x107C, symBinAddr: 0x4857C, symSize: 0x1FC }
  - { offset: 0x22956F, size: 0x8, addend: 0x0, symName: __ZN16llama_io_write_i12write_stringERKNSt3__112basic_stringIcNS0_11char_traitsIcEENS0_9allocatorIcEEEE, symObjAddr: 0x0, symBinAddr: 0x4878C, symSize: 0x78 }
  - { offset: 0x22C04C, size: 0x8, addend: 0x0, symName: __ZN16llama_io_write_i12write_stringERKNSt3__112basic_stringIcNS0_11char_traitsIcEENS0_9allocatorIcEEEE, symObjAddr: 0x0, symBinAddr: 0x4878C, symSize: 0x78 }
  - { offset: 0x22C15D, size: 0x8, addend: 0x0, symName: __ZN15llama_io_read_i11read_stringERNSt3__112basic_stringIcNS0_11char_traitsIcEENS0_9allocatorIcEEEE, symObjAddr: 0x78, symBinAddr: 0x48804, symSize: 0x64 }
  - { offset: 0x22E0D5, size: 0x8, addend: 0x0, symName: __ZN19llama_kv_cache_iswaC2ERK11llama_model9ggml_typeS3_bbbbjjjjRKNSt3__18functionIFbiEEERKNS5_IFiiEEE, symObjAddr: 0x0, symBinAddr: 0x48868, symSize: 0x348 }
  - { offset: 0x252B7A, size: 0x8, addend: 0x0, symName: __ZNSt3__111make_uniqueB8ne200100I27llama_kv_cache_iswa_contextJP19llama_kv_cache_iswaNS_6vectorIN14llama_kv_cache9slot_infoENS_9allocatorIS6_EEEES9_NS4_I12llama_ubatchNS7_ISA_EEEEELi0EEENS_10unique_ptrIT_NS_14default_deleteISE_EEEEDpOT0_, symObjAddr: 0xF28, symBinAddr: 0x49734, symSize: 0x25C }
  - { offset: 0x25C02E, size: 0x8, addend: 0x0, symName: __ZN19llama_kv_cache_iswaC1ERK11llama_model9ggml_typeS3_bbbbjjjjRKNSt3__18functionIFbiEEERKNS5_IFiiEEE, symObjAddr: 0x348, symBinAddr: 0x48BB0, symSize: 0x20 }
  - { offset: 0x25CB0C, size: 0x8, addend: 0x0, symName: __ZN19llama_kv_cache_iswaC2ERK11llama_model9ggml_typeS3_bbbbjjjjRKNSt3__18functionIFbiEEERKNS5_IFiiEEE, symObjAddr: 0x0, symBinAddr: 0x48868, symSize: 0x348 }
  - { offset: 0x25D3A1, size: 0x8, addend: 0x0, symName: __ZN19llama_kv_cache_iswa5clearEb, symObjAddr: 0x368, symBinAddr: 0x48BD0, symSize: 0x40 }
  - { offset: 0x25D435, size: 0x8, addend: 0x0, symName: __ZN19llama_kv_cache_iswa6seq_rmEiii, symObjAddr: 0x3A8, symBinAddr: 0x48C10, symSize: 0x6C }
  - { offset: 0x25D518, size: 0x8, addend: 0x0, symName: __ZN19llama_kv_cache_iswa6seq_cpEiiii, symObjAddr: 0x414, symBinAddr: 0x48C7C, symSize: 0x68 }
  - { offset: 0x25D5EE, size: 0x8, addend: 0x0, symName: __ZN19llama_kv_cache_iswa8seq_keepEi, symObjAddr: 0x47C, symBinAddr: 0x48CE4, symSize: 0x40 }
  - { offset: 0x25D682, size: 0x8, addend: 0x0, symName: __ZN19llama_kv_cache_iswa7seq_addEiiii, symObjAddr: 0x4BC, symBinAddr: 0x48D24, symSize: 0x68 }
  - { offset: 0x25D758, size: 0x8, addend: 0x0, symName: __ZN19llama_kv_cache_iswa7seq_divEiiii, symObjAddr: 0x524, symBinAddr: 0x48D8C, symSize: 0x68 }
  - { offset: 0x25D82E, size: 0x8, addend: 0x0, symName: __ZNK19llama_kv_cache_iswa11seq_pos_minEi, symObjAddr: 0x58C, symBinAddr: 0x48DF4, symSize: 0x10 }
  - { offset: 0x25D867, size: 0x8, addend: 0x0, symName: __ZNK19llama_kv_cache_iswa11seq_pos_minEi, symObjAddr: 0x58C, symBinAddr: 0x48DF4, symSize: 0x10 }
  - { offset: 0x25D897, size: 0x8, addend: 0x0, symName: __ZNK19llama_kv_cache_iswa11seq_pos_maxEi, symObjAddr: 0x59C, symBinAddr: 0x48E04, symSize: 0x10 }
  - { offset: 0x25D8D0, size: 0x8, addend: 0x0, symName: __ZNK19llama_kv_cache_iswa11seq_pos_maxEi, symObjAddr: 0x59C, symBinAddr: 0x48E04, symSize: 0x10 }
  - { offset: 0x25DEA7, size: 0x8, addend: 0x0, symName: __ZNK19llama_kv_cache_iswa16memory_breakdownEv, symObjAddr: 0x5AC, symBinAddr: 0x48E14, symSize: 0x1C8 }
  - { offset: 0x25F055, size: 0x8, addend: 0x0, symName: __ZN19llama_kv_cache_iswa10init_batchER18llama_batch_allocrjb, symObjAddr: 0x774, symBinAddr: 0x48FDC, symSize: 0x758 }
  - { offset: 0x2613CD, size: 0x8, addend: 0x0, symName: __ZNSt3__16vectorI12llama_ubatchNS_9allocatorIS1_EEE24__emplace_back_slow_pathIJS1_EEEPS1_DpOT_, symObjAddr: 0x25B4, symBinAddr: 0x4ABA8, symSize: 0x1C0 }
  - { offset: 0x2619E4, size: 0x8, addend: 0x0, symName: __ZNSt3__16vectorI12llama_ubatchNS_9allocatorIS1_EEE20__throw_length_errorB8ne200100Ev, symObjAddr: 0x2774, symBinAddr: 0x4AD68, symSize: 0x14 }
  - { offset: 0x2619FA, size: 0x8, addend: 0x0, symName: __ZNSt3__16vectorIN14llama_kv_cache9slot_infoENS_9allocatorIS2_EEED1B8ne200100Ev, symObjAddr: 0x1184, symBinAddr: 0x49990, symSize: 0xC4 }
  - { offset: 0x261F40, size: 0x8, addend: 0x0, symName: __ZNSt3__16vectorI12llama_ubatchNS_9allocatorIS1_EEED1B8ne200100Ev, symObjAddr: 0x1248, symBinAddr: 0x49A54, symSize: 0x98 }
  - { offset: 0x26233F, size: 0x8, addend: 0x0, symName: __ZN27llama_kv_cache_iswa_contextC2EP19llama_kv_cache_iswaNSt3__16vectorIN14llama_kv_cache9slot_infoENS2_9allocatorIS5_EEEES8_NS3_I12llama_ubatchNS6_IS9_EEEE, symObjAddr: 0x1778, symBinAddr: 0x49F84, symSize: 0x5B4 }
  - { offset: 0x263F33, size: 0x8, addend: 0x0, symName: __ZN19llama_kv_cache_iswa9init_fullEv, symObjAddr: 0x12E0, symBinAddr: 0x49AEC, symSize: 0x54 }
  - { offset: 0x263FD9, size: 0x8, addend: 0x0, symName: __ZN27llama_kv_cache_iswa_contextC2EP19llama_kv_cache_iswa, symObjAddr: 0x1510, symBinAddr: 0x49D1C, symSize: 0x120 }
  - { offset: 0x264293, size: 0x8, addend: 0x0, symName: __ZN19llama_kv_cache_iswa11init_updateEP13llama_contextb, symObjAddr: 0x1334, symBinAddr: 0x49B40, symSize: 0x6C }
  - { offset: 0x264376, size: 0x8, addend: 0x0, symName: __ZN27llama_kv_cache_iswa_contextC2EP19llama_kv_cache_iswaP13llama_contextb, symObjAddr: 0x1634, symBinAddr: 0x49E40, symSize: 0x140 }
  - { offset: 0x264623, size: 0x8, addend: 0x0, symName: __ZNK19llama_kv_cache_iswa13get_can_shiftEv, symObjAddr: 0x13A0, symBinAddr: 0x49BAC, symSize: 0x60 }
  - { offset: 0x2646DC, size: 0x8, addend: 0x0, symName: __ZNK19llama_kv_cache_iswa11state_writeER16llama_io_write_iij, symObjAddr: 0x1400, symBinAddr: 0x49C0C, symSize: 0x5C }
  - { offset: 0x264786, size: 0x8, addend: 0x0, symName: __ZN19llama_kv_cache_iswa10state_readER15llama_io_read_iij, symObjAddr: 0x145C, symBinAddr: 0x49C68, symSize: 0x5C }
  - { offset: 0x264846, size: 0x8, addend: 0x0, symName: __ZNK19llama_kv_cache_iswa8get_baseEv, symObjAddr: 0x14B8, symBinAddr: 0x49CC4, symSize: 0x8 }
  - { offset: 0x26486A, size: 0x8, addend: 0x0, symName: __ZNK19llama_kv_cache_iswa8get_baseEv, symObjAddr: 0x14B8, symBinAddr: 0x49CC4, symSize: 0x8 }
  - { offset: 0x264886, size: 0x8, addend: 0x0, symName: __ZNK19llama_kv_cache_iswa7get_swaEv, symObjAddr: 0x14C0, symBinAddr: 0x49CCC, symSize: 0x8 }
  - { offset: 0x2648AA, size: 0x8, addend: 0x0, symName: __ZNK19llama_kv_cache_iswa7get_swaEv, symObjAddr: 0x14C0, symBinAddr: 0x49CCC, symSize: 0x8 }
  - { offset: 0x2648C6, size: 0x8, addend: 0x0, symName: __ZN27llama_kv_cache_iswa_contextC2E19llama_memory_status, symObjAddr: 0x14C8, symBinAddr: 0x49CD4, symSize: 0x24 }
  - { offset: 0x264929, size: 0x8, addend: 0x0, symName: __ZN27llama_kv_cache_iswa_contextC1E19llama_memory_status, symObjAddr: 0x14EC, symBinAddr: 0x49CF8, symSize: 0x24 }
  - { offset: 0x264952, size: 0x8, addend: 0x0, symName: __ZN27llama_kv_cache_iswa_contextC1E19llama_memory_status, symObjAddr: 0x14EC, symBinAddr: 0x49CF8, symSize: 0x24 }
  - { offset: 0x264AA4, size: 0x8, addend: 0x0, symName: __ZN27llama_kv_cache_iswa_contextC1EP19llama_kv_cache_iswa, symObjAddr: 0x1630, symBinAddr: 0x49E3C, symSize: 0x4 }
  - { offset: 0x264ACE, size: 0x8, addend: 0x0, symName: __ZN27llama_kv_cache_iswa_contextC1EP19llama_kv_cache_iswa, symObjAddr: 0x1630, symBinAddr: 0x49E3C, symSize: 0x4 }
  - { offset: 0x264AE8, size: 0x8, addend: 0x0, symName: __ZN27llama_kv_cache_iswa_contextC1EP19llama_kv_cache_iswaP13llama_contextb, symObjAddr: 0x1774, symBinAddr: 0x49F80, symSize: 0x4 }
  - { offset: 0x264B25, size: 0x8, addend: 0x0, symName: __ZN27llama_kv_cache_iswa_contextC1EP19llama_kv_cache_iswaP13llama_contextb, symObjAddr: 0x1774, symBinAddr: 0x49F80, symSize: 0x4 }
  - { offset: 0x264EDF, size: 0x8, addend: 0x0, symName: __ZNSt3__16vectorI12llama_ubatchNS_9allocatorIS1_EEE20__throw_length_errorB8ne200100Ev, symObjAddr: 0x2774, symBinAddr: 0x4AD68, symSize: 0x14 }
  - { offset: 0x264F02, size: 0x8, addend: 0x0, symName: __ZNSt3__128__exception_guard_exceptionsINS_6vectorI12llama_ubatchNS_9allocatorIS2_EEE16__destroy_vectorEED1B8ne200100Ev, symObjAddr: 0x27FC, symBinAddr: 0x4AD7C, symSize: 0xA8 }
  - { offset: 0x26513D, size: 0x8, addend: 0x0, symName: __ZN27llama_kv_cache_iswa_contextC1EP19llama_kv_cache_iswaNSt3__16vectorIN14llama_kv_cache9slot_infoENS2_9allocatorIS5_EEEES8_NS3_I12llama_ubatchNS6_IS9_EEEE, symObjAddr: 0x1D2C, symBinAddr: 0x4A538, symSize: 0x4 }
  - { offset: 0x26517F, size: 0x8, addend: 0x0, symName: __ZN27llama_kv_cache_iswa_contextC1EP19llama_kv_cache_iswaNSt3__16vectorIN14llama_kv_cache9slot_infoENS2_9allocatorIS5_EEEES8_NS3_I12llama_ubatchNS6_IS9_EEEE, symObjAddr: 0x1D2C, symBinAddr: 0x4A538, symSize: 0x4 }
  - { offset: 0x2651AE, size: 0x8, addend: 0x0, symName: __ZN27llama_kv_cache_iswa_contextD2Ev, symObjAddr: 0x1D30, symBinAddr: 0x4A53C, symSize: 0xD4 }
  - { offset: 0x26555D, size: 0x8, addend: 0x0, symName: __ZN27llama_kv_cache_iswa_contextD1Ev, symObjAddr: 0x1E04, symBinAddr: 0x4A610, symSize: 0xD4 }
  - { offset: 0x265929, size: 0x8, addend: 0x0, symName: __ZN27llama_kv_cache_iswa_contextD0Ev, symObjAddr: 0x1ED8, symBinAddr: 0x4A6E4, symSize: 0xD4 }
  - { offset: 0x265D01, size: 0x8, addend: 0x0, symName: __ZN27llama_kv_cache_iswa_context4nextEv, symObjAddr: 0x1FAC, symBinAddr: 0x4A7B8, symSize: 0x70 }
  - { offset: 0x265DA0, size: 0x8, addend: 0x0, symName: __ZN27llama_kv_cache_iswa_context5applyEv, symObjAddr: 0x201C, symBinAddr: 0x4A828, symSize: 0x44 }
  - { offset: 0x265E30, size: 0x8, addend: 0x0, symName: __ZNK27llama_kv_cache_iswa_context10get_statusEv, symObjAddr: 0x2060, symBinAddr: 0x4A86C, symSize: 0x8 }
  - { offset: 0x265E7C, size: 0x8, addend: 0x0, symName: __ZNK27llama_kv_cache_iswa_context10get_ubatchEv, symObjAddr: 0x2068, symBinAddr: 0x4A874, symSize: 0x10 }
  - { offset: 0x265EE2, size: 0x8, addend: 0x0, symName: __ZNK27llama_kv_cache_iswa_context8get_baseEv, symObjAddr: 0x2078, symBinAddr: 0x4A884, symSize: 0x8 }
  - { offset: 0x265F0E, size: 0x8, addend: 0x0, symName: __ZNK27llama_kv_cache_iswa_context8get_baseEv, symObjAddr: 0x2078, symBinAddr: 0x4A884, symSize: 0x8 }
  - { offset: 0x265F2B, size: 0x8, addend: 0x0, symName: __ZNK27llama_kv_cache_iswa_context7get_swaEv, symObjAddr: 0x2080, symBinAddr: 0x4A88C, symSize: 0x8 }
  - { offset: 0x265F57, size: 0x8, addend: 0x0, symName: __ZNK27llama_kv_cache_iswa_context7get_swaEv, symObjAddr: 0x2080, symBinAddr: 0x4A88C, symSize: 0x8 }
  - { offset: 0x265F8E, size: 0x8, addend: 0x0, symName: __ZN19llama_kv_cache_iswaD1Ev, symObjAddr: 0x2088, symBinAddr: 0x4A894, symSize: 0x5C }
  - { offset: 0x266122, size: 0x8, addend: 0x0, symName: __ZN19llama_kv_cache_iswaD0Ev, symObjAddr: 0x20E4, symBinAddr: 0x4A8F0, symSize: 0x5C }
  - { offset: 0x2662C1, size: 0x8, addend: 0x0, symName: '__ZNSt3__110__function6__funcIZN19llama_kv_cache_iswaC1ERK11llama_model9ggml_typeS6_bbbbjjjjRKNS_8functionIFbiEEERKNS7_IFiiEEEE3$_0NS_9allocatorISG_EES8_ED1Ev', symObjAddr: 0x2140, symBinAddr: 0x4A94C, symSize: 0x4 }
  - { offset: 0x2662ED, size: 0x8, addend: 0x0, symName: '__ZNSt3__110__function6__funcIZN19llama_kv_cache_iswaC1ERK11llama_model9ggml_typeS6_bbbbjjjjRKNS_8functionIFbiEEERKNS7_IFiiEEEE3$_0NS_9allocatorISG_EES8_ED0Ev', symObjAddr: 0x2144, symBinAddr: 0x4A950, symSize: 0x4 }
  - { offset: 0x266404, size: 0x8, addend: 0x0, symName: '__ZNKSt3__110__function6__funcIZN19llama_kv_cache_iswaC1ERK11llama_model9ggml_typeS6_bbbbjjjjRKNS_8functionIFbiEEERKNS7_IFiiEEEE3$_0NS_9allocatorISG_EES8_E7__cloneEv', symObjAddr: 0x2148, symBinAddr: 0x4A954, symSize: 0x38 }
  - { offset: 0x266617, size: 0x8, addend: 0x0, symName: '__ZNKSt3__110__function6__funcIZN19llama_kv_cache_iswaC1ERK11llama_model9ggml_typeS6_bbbbjjjjRKNS_8functionIFbiEEERKNS7_IFiiEEEE3$_0NS_9allocatorISG_EES8_E7__cloneEPNS0_6__baseIS8_EE', symObjAddr: 0x2180, symBinAddr: 0x4A98C, symSize: 0x18 }
  - { offset: 0x26664C, size: 0x8, addend: 0x0, symName: '__ZNKSt3__110__function6__funcIZN19llama_kv_cache_iswaC1ERK11llama_model9ggml_typeS6_bbbbjjjjRKNS_8functionIFbiEEERKNS7_IFiiEEEE3$_0NS_9allocatorISG_EES8_E7__cloneEPNS0_6__baseIS8_EE', symObjAddr: 0x2180, symBinAddr: 0x4A98C, symSize: 0x18 }
  - { offset: 0x266671, size: 0x8, addend: 0x0, symName: '__ZNKSt3__110__function6__funcIZN19llama_kv_cache_iswaC1ERK11llama_model9ggml_typeS6_bbbbjjjjRKNS_8functionIFbiEEERKNS7_IFiiEEEE3$_0NS_9allocatorISG_EES8_E7__cloneEPNS0_6__baseIS8_EE', symObjAddr: 0x2180, symBinAddr: 0x4A98C, symSize: 0x18 }
  - { offset: 0x2666E5, size: 0x8, addend: 0x0, symName: '__ZNSt3__110__function6__funcIZN19llama_kv_cache_iswaC1ERK11llama_model9ggml_typeS6_bbbbjjjjRKNS_8functionIFbiEEERKNS7_IFiiEEEE3$_0NS_9allocatorISG_EES8_E7destroyEv', symObjAddr: 0x2198, symBinAddr: 0x4A9A4, symSize: 0x4 }
  - { offset: 0x26673A, size: 0x8, addend: 0x0, symName: '__ZNSt3__110__function6__funcIZN19llama_kv_cache_iswaC1ERK11llama_model9ggml_typeS6_bbbbjjjjRKNS_8functionIFbiEEERKNS7_IFiiEEEE3$_0NS_9allocatorISG_EES8_E18destroy_deallocateEv', symObjAddr: 0x219C, symBinAddr: 0x4A9A8, symSize: 0x4 }
  - { offset: 0x26676F, size: 0x8, addend: 0x0, symName: '__ZNSt3__110__function6__funcIZN19llama_kv_cache_iswaC1ERK11llama_model9ggml_typeS6_bbbbjjjjRKNS_8functionIFbiEEERKNS7_IFiiEEEE3$_0NS_9allocatorISG_EES8_E18destroy_deallocateEv', symObjAddr: 0x219C, symBinAddr: 0x4A9A8, symSize: 0x4 }
  - { offset: 0x266792, size: 0x8, addend: 0x0, symName: '__ZNSt3__110__function6__funcIZN19llama_kv_cache_iswaC1ERK11llama_model9ggml_typeS6_bbbbjjjjRKNS_8functionIFbiEEERKNS7_IFiiEEEE3$_0NS_9allocatorISG_EES8_E18destroy_deallocateEv', symObjAddr: 0x219C, symBinAddr: 0x4A9A8, symSize: 0x4 }
  - { offset: 0x2667C5, size: 0x8, addend: 0x0, symName: '__ZNSt3__110__function6__funcIZN19llama_kv_cache_iswaC1ERK11llama_model9ggml_typeS6_bbbbjjjjRKNS_8functionIFbiEEERKNS7_IFiiEEEE3$_0NS_9allocatorISG_EES8_E18destroy_deallocateEv', symObjAddr: 0x219C, symBinAddr: 0x4A9A8, symSize: 0x4 }
  - { offset: 0x2668E5, size: 0x8, addend: 0x0, symName: '__ZNSt3__110__function6__funcIZN19llama_kv_cache_iswaC1ERK11llama_model9ggml_typeS6_bbbbjjjjRKNS_8functionIFbiEEERKNS7_IFiiEEEE3$_0NS_9allocatorISG_EES8_EclEOi', symObjAddr: 0x21A0, symBinAddr: 0x4A9AC, symSize: 0x60 }
  - { offset: 0x266A9C, size: 0x8, addend: 0x0, symName: '__ZNKSt3__110__function6__funcIZN19llama_kv_cache_iswaC1ERK11llama_model9ggml_typeS6_bbbbjjjjRKNS_8functionIFbiEEERKNS7_IFiiEEEE3$_0NS_9allocatorISG_EES8_E6targetERKSt9type_info', symObjAddr: 0x2200, symBinAddr: 0x4AA0C, symSize: 0x64 }
  - { offset: 0x266B67, size: 0x8, addend: 0x0, symName: '__ZNKSt3__110__function6__funcIZN19llama_kv_cache_iswaC1ERK11llama_model9ggml_typeS6_bbbbjjjjRKNS_8functionIFbiEEERKNS7_IFiiEEEE3$_0NS_9allocatorISG_EES8_E11target_typeEv', symObjAddr: 0x2264, symBinAddr: 0x4AA70, symSize: 0xC }
  - { offset: 0x266B8A, size: 0x8, addend: 0x0, symName: '__ZNSt3__110__function6__funcIZN19llama_kv_cache_iswaC1ERK11llama_model9ggml_typeS6_bbbbjjjjRKNS_8functionIFbiEEERKNS7_IFiiEEEE3$_1NS_9allocatorISG_EES8_ED1Ev', symObjAddr: 0x2298, symBinAddr: 0x4AA7C, symSize: 0x4 }
  - { offset: 0x266BB6, size: 0x8, addend: 0x0, symName: '__ZNSt3__110__function6__funcIZN19llama_kv_cache_iswaC1ERK11llama_model9ggml_typeS6_bbbbjjjjRKNS_8functionIFbiEEERKNS7_IFiiEEEE3$_1NS_9allocatorISG_EES8_ED0Ev', symObjAddr: 0x229C, symBinAddr: 0x4AA80, symSize: 0x4 }
  - { offset: 0x266CCD, size: 0x8, addend: 0x0, symName: '__ZNKSt3__110__function6__funcIZN19llama_kv_cache_iswaC1ERK11llama_model9ggml_typeS6_bbbbjjjjRKNS_8functionIFbiEEERKNS7_IFiiEEEE3$_1NS_9allocatorISG_EES8_E7__cloneEv', symObjAddr: 0x22A0, symBinAddr: 0x4AA84, symSize: 0x38 }
  - { offset: 0x266EE0, size: 0x8, addend: 0x0, symName: '__ZNKSt3__110__function6__funcIZN19llama_kv_cache_iswaC1ERK11llama_model9ggml_typeS6_bbbbjjjjRKNS_8functionIFbiEEERKNS7_IFiiEEEE3$_1NS_9allocatorISG_EES8_E7__cloneEPNS0_6__baseIS8_EE', symObjAddr: 0x22D8, symBinAddr: 0x4AABC, symSize: 0x18 }
  - { offset: 0x266F15, size: 0x8, addend: 0x0, symName: '__ZNKSt3__110__function6__funcIZN19llama_kv_cache_iswaC1ERK11llama_model9ggml_typeS6_bbbbjjjjRKNS_8functionIFbiEEERKNS7_IFiiEEEE3$_1NS_9allocatorISG_EES8_E7__cloneEPNS0_6__baseIS8_EE', symObjAddr: 0x22D8, symBinAddr: 0x4AABC, symSize: 0x18 }
  - { offset: 0x266F3A, size: 0x8, addend: 0x0, symName: '__ZNKSt3__110__function6__funcIZN19llama_kv_cache_iswaC1ERK11llama_model9ggml_typeS6_bbbbjjjjRKNS_8functionIFbiEEERKNS7_IFiiEEEE3$_1NS_9allocatorISG_EES8_E7__cloneEPNS0_6__baseIS8_EE', symObjAddr: 0x22D8, symBinAddr: 0x4AABC, symSize: 0x18 }
  - { offset: 0x266FAE, size: 0x8, addend: 0x0, symName: '__ZNSt3__110__function6__funcIZN19llama_kv_cache_iswaC1ERK11llama_model9ggml_typeS6_bbbbjjjjRKNS_8functionIFbiEEERKNS7_IFiiEEEE3$_1NS_9allocatorISG_EES8_E7destroyEv', symObjAddr: 0x22F0, symBinAddr: 0x4AAD4, symSize: 0x4 }
  - { offset: 0x267003, size: 0x8, addend: 0x0, symName: '__ZNSt3__110__function6__funcIZN19llama_kv_cache_iswaC1ERK11llama_model9ggml_typeS6_bbbbjjjjRKNS_8functionIFbiEEERKNS7_IFiiEEEE3$_1NS_9allocatorISG_EES8_E18destroy_deallocateEv', symObjAddr: 0x22F4, symBinAddr: 0x4AAD8, symSize: 0x4 }
  - { offset: 0x267038, size: 0x8, addend: 0x0, symName: '__ZNSt3__110__function6__funcIZN19llama_kv_cache_iswaC1ERK11llama_model9ggml_typeS6_bbbbjjjjRKNS_8functionIFbiEEERKNS7_IFiiEEEE3$_1NS_9allocatorISG_EES8_E18destroy_deallocateEv', symObjAddr: 0x22F4, symBinAddr: 0x4AAD8, symSize: 0x4 }
  - { offset: 0x26705B, size: 0x8, addend: 0x0, symName: '__ZNSt3__110__function6__funcIZN19llama_kv_cache_iswaC1ERK11llama_model9ggml_typeS6_bbbbjjjjRKNS_8functionIFbiEEERKNS7_IFiiEEEE3$_1NS_9allocatorISG_EES8_E18destroy_deallocateEv', symObjAddr: 0x22F4, symBinAddr: 0x4AAD8, symSize: 0x4 }
  - { offset: 0x26708E, size: 0x8, addend: 0x0, symName: '__ZNSt3__110__function6__funcIZN19llama_kv_cache_iswaC1ERK11llama_model9ggml_typeS6_bbbbjjjjRKNS_8functionIFbiEEERKNS7_IFiiEEEE3$_1NS_9allocatorISG_EES8_E18destroy_deallocateEv', symObjAddr: 0x22F4, symBinAddr: 0x4AAD8, symSize: 0x4 }
  - { offset: 0x267130, size: 0x8, addend: 0x0, symName: '__ZNSt3__110__function6__funcIZN19llama_kv_cache_iswaC1ERK11llama_model9ggml_typeS6_bbbbjjjjRKNS_8functionIFbiEEERKNS7_IFiiEEEE3$_1NS_9allocatorISG_EES8_EclEOi', symObjAddr: 0x22F8, symBinAddr: 0x4AADC, symSize: 0x5C }
  - { offset: 0x26728E, size: 0x8, addend: 0x0, symName: '__ZNKSt3__110__function6__funcIZN19llama_kv_cache_iswaC1ERK11llama_model9ggml_typeS6_bbbbjjjjRKNS_8functionIFbiEEERKNS7_IFiiEEEE3$_1NS_9allocatorISG_EES8_E6targetERKSt9type_info', symObjAddr: 0x2354, symBinAddr: 0x4AB38, symSize: 0x64 }
  - { offset: 0x267342, size: 0x8, addend: 0x0, symName: '__ZNKSt3__110__function6__funcIZN19llama_kv_cache_iswaC1ERK11llama_model9ggml_typeS6_bbbbjjjjRKNS_8functionIFbiEEERKNS7_IFiiEEEE3$_1NS_9allocatorISG_EES8_E11target_typeEv', symObjAddr: 0x23B8, symBinAddr: 0x4AB9C, symSize: 0xC }
  - { offset: 0x2A60E6, size: 0x8, addend: 0x0, symName: __ZNSt3__135__uninitialized_allocator_copy_implB8ne200100INS_9allocatorINS_6vectorIjNS1_IjEEEEEEPS4_S6_S6_EET2_RT_T0_T1_S7_, symObjAddr: 0x10558, symBinAddr: 0x5A9B0, symSize: 0xF8 }
  - { offset: 0x2A7316, size: 0x8, addend: 0x0, symName: __ZNSt3__134__uninitialized_allocator_relocateB8ne200100INS_9allocatorIN14llama_kv_cache9slot_infoEEEPS3_EEvRT_T0_S8_S8_, symObjAddr: 0x120F0, symBinAddr: 0x5BFFC, symSize: 0xF8 }
  - { offset: 0x2A7371, size: 0x8, addend: 0x0, symName: __ZNSt3__134__uninitialized_allocator_relocateB8ne200100INS_9allocatorIN14llama_kv_cache9slot_infoEEEPS3_EEvRT_T0_S8_S8_, symObjAddr: 0x120F0, symBinAddr: 0x5BFFC, symSize: 0xF8 }
  - { offset: 0x2B06A0, size: 0x8, addend: 0x0, symName: __ZN14llama_kv_cacheC2ERK11llama_model9ggml_typeS3_bbbjjjj14llama_swa_typeRKNSt3__18functionIFbiEEERKNS6_IFiiEEE, symObjAddr: 0x0, symBinAddr: 0x4AE24, symSize: 0x120C }
  - { offset: 0x2B3FB4, size: 0x8, addend: 0x0, symName: __ZN14llama_kv_cache7prepareERKNSt3__16vectorI12llama_ubatchNS0_9allocatorIS2_EEEE, symObjAddr: 0x351C, symBinAddr: 0x4E2E4, symSize: 0xF0C }
  - { offset: 0x2BA7B5, size: 0x8, addend: 0x0, symName: __ZNSt3__16vectorI14llama_kv_cellsNS_9allocatorIS1_EEE8__appendEm, symObjAddr: 0x10D9C, symBinAddr: 0x5AF08, symSize: 0x25C }
  - { offset: 0x2BAF1A, size: 0x8, addend: 0x0, symName: __ZNSt3__16vectorI14llama_kv_cellsNS_9allocatorIS1_EEE20__throw_length_errorB8ne200100Ev, symObjAddr: 0x10FF8, symBinAddr: 0x5B164, symSize: 0x14 }
  - { offset: 0x2BAF25, size: 0x8, addend: 0x0, symName: __ZNSt3__19allocatorI14llama_kv_cellsE7destroyB8ne200100EPS1_, symObjAddr: 0x10B84, symBinAddr: 0x5AE24, symSize: 0x90 }
  - { offset: 0x2BB589, size: 0x8, addend: 0x0, symName: __ZN14llama_kv_cells6resizeEj, symObjAddr: 0x120C, symBinAddr: 0x4C030, symSize: 0x178 }
  - { offset: 0x2BBA1D, size: 0x8, addend: 0x0, symName: __ZNSt3__16vectorIjNS_9allocatorIjEEE8__appendEmRKj, symObjAddr: 0x11130, symBinAddr: 0x5B29C, symSize: 0x234 }
  - { offset: 0x2BBF81, size: 0x8, addend: 0x0, symName: __ZNSt3__112__hash_tableINS_17__hash_value_typeIiiEENS_22__unordered_map_hasherIiS2_NS_4hashIiEENS_8equal_toIiEELb1EEENS_21__unordered_map_equalIiS2_S7_S5_Lb1EEENS_9allocatorIS2_EEE25__emplace_unique_key_argsIiJRKNS_21piecewise_construct_tENS_5tupleIJOiEEENSI_IJEEEEEENS_4pairINS_15__hash_iteratorIPNS_11__hash_nodeIS2_PvEEEEbEERKT_DpOT0_, symObjAddr: 0x113AC, symBinAddr: 0x5B4D0, symSize: 0x328 }
  - { offset: 0x2BC6C5, size: 0x8, addend: 0x0, symName: __ZNSt3__16vectorIN14llama_kv_cache8kv_layerENS_9allocatorIS2_EEE24__emplace_back_slow_pathIJS2_EEEPS2_DpOT_, symObjAddr: 0x11854, symBinAddr: 0x5B978, symSize: 0x1D4 }
  - { offset: 0x2BCF0F, size: 0x8, addend: 0x0, symName: __ZNSt3__16vectorIN14llama_kv_cache8kv_layerENS_9allocatorIS2_EEE20__throw_length_errorB8ne200100Ev, symObjAddr: 0x11A28, symBinAddr: 0x5BB4C, symSize: 0x14 }
  - { offset: 0x2BCF25, size: 0x8, addend: 0x0, symName: __ZNSt3__112__hash_tableINS_17__hash_value_typeIiiEENS_22__unordered_map_hasherIiS2_NS_4hashIiEENS_8equal_toIiEELb1EEENS_21__unordered_map_equalIiS2_S7_S5_Lb1EEENS_9allocatorIS2_EEE25__emplace_unique_key_argsIiJRKNS_21piecewise_construct_tENS_5tupleIJRKiEEENSI_IJEEEEEENS_4pairINS_15__hash_iteratorIPNS_11__hash_nodeIS2_PvEEEEbEERKT_DpOT0_, symObjAddr: 0x11A3C, symBinAddr: 0x5BB60, symSize: 0x328 }
  - { offset: 0x2BD758, size: 0x8, addend: 0x0, symName: __ZNSt3__16__treeINS_12__value_typeIP24ggml_backend_buffer_typeNS_10unique_ptrI12ggml_context20ggml_context_deleterEEEENS_19__map_value_compareIS3_S8_ZN14llama_kv_cacheC1ERK11llama_model9ggml_typeSE_bbbjjjj14llama_swa_typeRKNS_8functionIFbiEEERKNSG_IFiiEEEE28ggml_backend_buft_comparatorLb1EEENS_9allocatorIS8_EEE7destroyEPNS_11__tree_nodeIS8_PvEE, symObjAddr: 0x10C14, symBinAddr: 0x5AEB4, symSize: 0x54 }
  - { offset: 0x2BD964, size: 0x8, addend: 0x0, symName: __ZNSt3__112__hash_tableINS_17__hash_value_typeIiiEENS_22__unordered_map_hasherIiS2_NS_4hashIiEENS_8equal_toIiEELb1EEENS_21__unordered_map_equalIiS2_S7_S5_Lb1EEENS_9allocatorIS2_EEE25__emplace_unique_key_argsIiJRKNS_21piecewise_construct_tENS_5tupleIJOiEEENSI_IJEEEEEENS_4pairINS_15__hash_iteratorIPNS_11__hash_nodeIS2_PvEEEEbEERKT_DpOT0_, symObjAddr: 0x113AC, symBinAddr: 0x5B4D0, symSize: 0x328 }
  - { offset: 0x2BD96F, size: 0x8, addend: 0x0, symName: __ZNSt3__16vectorINS_4pairINS_10unique_ptrI12ggml_context20ggml_context_deleterEENS2_I19ggml_backend_buffer27ggml_backend_buffer_deleterEEEENS_9allocatorIS9_EEE20__throw_length_errorB8ne200100Ev, symObjAddr: 0x11D64, symBinAddr: 0x5BE88, symSize: 0x14 }
  - { offset: 0x2BD992, size: 0x8, addend: 0x0, symName: __ZN14llama_kv_cache8kv_layerD1Ev, symObjAddr: 0x1384, symBinAddr: 0x4C1A8, symSize: 0x40 }
  - { offset: 0x2BDC1A, size: 0x8, addend: 0x0, symName: __ZNSt3__113unordered_mapIiiNS_4hashIiEENS_8equal_toIiEENS_9allocatorINS_4pairIKiiEEEEED1B8ne200100Ev, symObjAddr: 0x1484, symBinAddr: 0x4C2A8, symSize: 0x48 }
  - { offset: 0x2BDEAD, size: 0x8, addend: 0x0, symName: __ZNSt3__16vectorIN14llama_kv_cache8kv_layerENS_9allocatorIS2_EEED1B8ne200100Ev, symObjAddr: 0x14CC, symBinAddr: 0x4C2F0, symSize: 0x80 }
  - { offset: 0x2BE29F, size: 0x8, addend: 0x0, symName: __ZN14llama_kv_cache16stream_copy_infoD1Ev, symObjAddr: 0x154C, symBinAddr: 0x4C370, symSize: 0x40 }
  - { offset: 0x2BE51B, size: 0x8, addend: 0x0, symName: __ZNSt3__16vectorI14llama_kv_cellsNS_9allocatorIS1_EEED1B8ne200100Ev, symObjAddr: 0x158C, symBinAddr: 0x4C3B0, symSize: 0x68 }
  - { offset: 0x2BE684, size: 0x8, addend: 0x0, symName: __ZNSt3__16vectorINS_4pairINS_10unique_ptrI12ggml_context20ggml_context_deleterEENS2_I19ggml_backend_buffer27ggml_backend_buffer_deleterEEEENS_9allocatorIS9_EEED1B8ne200100Ev, symObjAddr: 0x15F4, symBinAddr: 0x4C418, symSize: 0x84 }
  - { offset: 0x2BEEF3, size: 0x8, addend: 0x0, symName: __ZNSt3__16vectorI17llama_kv_cell_extNS_9allocatorIS1_EEE8__appendEm, symObjAddr: 0xF870, symBinAddr: 0x5A2F4, symSize: 0x120 }
  - { offset: 0x2BF327, size: 0x8, addend: 0x0, symName: __ZNSt3__16vectorI17llama_kv_cell_extNS_9allocatorIS1_EEE20__throw_length_errorB8ne200100Ev, symObjAddr: 0xF990, symBinAddr: 0x5A414, symSize: 0x14 }
  - { offset: 0x2BF332, size: 0x8, addend: 0x0, symName: __ZNSt3__16vectorINS_6bitsetILm256EEENS_9allocatorIS2_EEE8__appendEm, symObjAddr: 0xF9A4, symBinAddr: 0x5A428, symSize: 0x120 }
  - { offset: 0x2BF79D, size: 0x8, addend: 0x0, symName: __ZNSt3__16__treeIjNS_4lessIjEENS_9allocatorIjEEE7destroyEPNS_11__tree_nodeIjPvEE, symObjAddr: 0xFC84, symBinAddr: 0x5A548, symSize: 0x44 }
  - { offset: 0x2BF96A, size: 0x8, addend: 0x0, symName: __ZNK14llama_kv_cache12size_k_bytesEv, symObjAddr: 0x13C4, symBinAddr: 0x4C1E8, symSize: 0x64 }
  - { offset: 0x2BFA18, size: 0x8, addend: 0x0, symName: __ZNK14llama_kv_cache12size_v_bytesEv, symObjAddr: 0x1428, symBinAddr: 0x4C24C, symSize: 0x5C }
  - { offset: 0x2C00FD, size: 0x8, addend: 0x0, symName: __ZN14llama_kv_cacheC1ERK11llama_model9ggml_typeS3_bbbjjjj14llama_swa_typeRKNSt3__18functionIFbiEEERKNS6_IFiiEEE, symObjAddr: 0x1678, symBinAddr: 0x4C49C, symSize: 0x20 }
  - { offset: 0x2C02A4, size: 0x8, addend: 0x0, symName: __ZN14llama_kv_cache5clearEb, symObjAddr: 0x1698, symBinAddr: 0x4C4BC, symSize: 0x148 }
  - { offset: 0x2C0C39, size: 0x8, addend: 0x0, symName: __ZN14llama_kv_cache6seq_rmEiii, symObjAddr: 0x17E0, symBinAddr: 0x4C604, symSize: 0x444 }
  - { offset: 0x2C17EC, size: 0x8, addend: 0x0, symName: __ZN14llama_kv_cells6seq_rmEji, symObjAddr: 0x1C24, symBinAddr: 0x4CA48, symSize: 0x288 }
  - { offset: 0x2C17FF, size: 0x8, addend: 0x0, symName: __ZN14llama_kv_cells6seq_rmEji, symObjAddr: 0x1C24, symBinAddr: 0x4CA48, symSize: 0x288 }
  - { offset: 0x2C1F0F, size: 0x8, addend: 0x0, symName: __ZN14llama_kv_cache6seq_cpEiiii, symObjAddr: 0x1EAC, symBinAddr: 0x4CCD0, symSize: 0x638 }
  - { offset: 0x2C26A5, size: 0x8, addend: 0x0, symName: __ZN14llama_kv_cache6seq_cpEiiii, symObjAddr: 0x1EAC, symBinAddr: 0x4CCD0, symSize: 0x638 }
  - { offset: 0x2C3B86, size: 0x8, addend: 0x0, symName: __ZN14llama_kv_cells7seq_addEji, symObjAddr: 0x24E4, symBinAddr: 0x4D308, symSize: 0x110 }
  - { offset: 0x2C3B91, size: 0x8, addend: 0x0, symName: __ZN14llama_kv_cells7seq_addEji, symObjAddr: 0x24E4, symBinAddr: 0x4D308, symSize: 0x110 }
  - { offset: 0x2C3F4E, size: 0x8, addend: 0x0, symName: __ZNK14llama_kv_cache8get_sizeEv, symObjAddr: 0x25F4, symBinAddr: 0x4D418, symSize: 0x24 }
  - { offset: 0x2C3F59, size: 0x8, addend: 0x0, symName: __ZN14llama_kv_cells7pos_addEji, symObjAddr: 0x2618, symBinAddr: 0x4D43C, symSize: 0x144 }
  - { offset: 0x2C4389, size: 0x8, addend: 0x0, symName: __ZNSt3__16vectorI14llama_kv_cellsNS_9allocatorIS1_EEE8__appendEm, symObjAddr: 0x10D9C, symBinAddr: 0x5AF08, symSize: 0x25C }
  - { offset: 0x2C47FC, size: 0x8, addend: 0x0, symName: __ZNK14llama_kv_cache8get_sizeEv, symObjAddr: 0x25F4, symBinAddr: 0x4D418, symSize: 0x24 }
  - { offset: 0x2C4829, size: 0x8, addend: 0x0, symName: __ZNK14llama_kv_cache8get_sizeEv, symObjAddr: 0x25F4, symBinAddr: 0x4D418, symSize: 0x24 }
  - { offset: 0x2C48B2, size: 0x8, addend: 0x0, symName: __ZN14llama_kv_cells10seq_pos_rmEj, symObjAddr: 0x10134, symBinAddr: 0x5A58C, symSize: 0x128 }
  - { offset: 0x2C4C91, size: 0x8, addend: 0x0, symName: __ZN14llama_kv_cells11seq_pos_addEj, symObjAddr: 0x1025C, symBinAddr: 0x5A6B4, symSize: 0x11C }
  - { offset: 0x2C5083, size: 0x8, addend: 0x0, symName: __ZN14llama_kv_cache8seq_keepEi, symObjAddr: 0x275C, symBinAddr: 0x4D580, symSize: 0xE4 }
  - { offset: 0x2C5215, size: 0x8, addend: 0x0, symName: __ZN14llama_kv_cells8seq_keepEji, symObjAddr: 0x2840, symBinAddr: 0x4D664, symSize: 0x25C }
  - { offset: 0x2C5228, size: 0x8, addend: 0x0, symName: __ZN14llama_kv_cells8seq_keepEji, symObjAddr: 0x2840, symBinAddr: 0x4D664, symSize: 0x25C }
  - { offset: 0x2C5B4C, size: 0x8, addend: 0x0, symName: __ZN14llama_kv_cache7seq_addEiiii, symObjAddr: 0x2A9C, symBinAddr: 0x4D8C0, symSize: 0x1F0 }
  - { offset: 0x2C5B57, size: 0x8, addend: 0x0, symName: __ZN14llama_kv_cache7seq_addEiiii, symObjAddr: 0x2A9C, symBinAddr: 0x4D8C0, symSize: 0x1F0 }
  - { offset: 0x2C5D7B, size: 0x8, addend: 0x0, symName: __ZN14llama_kv_cache7seq_divEiiii, symObjAddr: 0x2C8C, symBinAddr: 0x4DAB0, symSize: 0x1F0 }
  - { offset: 0x2C5DCD, size: 0x8, addend: 0x0, symName: __ZN14llama_kv_cache7seq_divEiiii, symObjAddr: 0x2C8C, symBinAddr: 0x4DAB0, symSize: 0x1F0 }
  - { offset: 0x2C6017, size: 0x8, addend: 0x0, symName: __ZNK14llama_kv_cache11seq_pos_minEi, symObjAddr: 0x2E7C, symBinAddr: 0x4DCA0, symSize: 0x7C }
  - { offset: 0x2C6094, size: 0x8, addend: 0x0, symName: __ZNK14llama_kv_cache11seq_pos_minEi, symObjAddr: 0x2E7C, symBinAddr: 0x4DCA0, symSize: 0x7C }
  - { offset: 0x2C6186, size: 0x8, addend: 0x0, symName: __ZNK14llama_kv_cache11seq_pos_maxEi, symObjAddr: 0x2EF8, symBinAddr: 0x4DD1C, symSize: 0xB8 }
  - { offset: 0x2C6230, size: 0x8, addend: 0x0, symName: __ZNK14llama_kv_cache11seq_pos_maxEi, symObjAddr: 0x2EF8, symBinAddr: 0x4DD1C, symSize: 0xB8 }
  - { offset: 0x2C63B6, size: 0x8, addend: 0x0, symName: __ZNK14llama_kv_cache16memory_breakdownEv, symObjAddr: 0x2FB0, symBinAddr: 0x4DDD4, symSize: 0x1F8 }
  - { offset: 0x2C6969, size: 0x8, addend: 0x0, symName: __ZNK14llama_kv_cache16memory_breakdownEv, symObjAddr: 0x2FB0, symBinAddr: 0x4DDD4, symSize: 0x1F8 }
  - { offset: 0x2C7852, size: 0x8, addend: 0x0, symName: __ZN14llama_kv_cache10init_batchER18llama_batch_allocrjb, symObjAddr: 0x31A8, symBinAddr: 0x4DFCC, symSize: 0x318 }
  - { offset: 0x2CA36F, size: 0x8, addend: 0x0, symName: __ZNK14llama_kv_cache9find_slotERK12llama_ubatchb, symObjAddr: 0x47F8, symBinAddr: 0x4F464, symSize: 0xC18 }
  - { offset: 0x2CC8D4, size: 0x8, addend: 0x0, symName: __ZN14llama_kv_cache9slot_infoC2ERKS0_, symObjAddr: 0x10378, symBinAddr: 0x5A7D0, symSize: 0x148 }
  - { offset: 0x2CCF30, size: 0x8, addend: 0x0, symName: __ZNSt3__16vectorIN14llama_kv_cache9slot_infoENS_9allocatorIS2_EEE24__emplace_back_slow_pathIJRKS2_EEEPS2_DpOT_, symObjAddr: 0x11F90, symBinAddr: 0x5BE9C, symSize: 0x14C }
  - { offset: 0x2CD310, size: 0x8, addend: 0x0, symName: __ZZN14llama_kv_cache7prepareERKNSt3__16vectorI12llama_ubatchNS0_9allocatorIS2_EEEEEN7state_tD1Ev, symObjAddr: 0x552C, symBinAddr: 0x50198, symSize: 0xD4 }
  - { offset: 0x2CD9C0, size: 0x8, addend: 0x0, symName: __ZN14llama_kv_cache12apply_ubatchERKNS_9slot_infoERK12llama_ubatch, symObjAddr: 0x5600, symBinAddr: 0x5026C, symSize: 0xA2C }
  - { offset: 0x2CF37C, size: 0x8, addend: 0x0, symName: __ZN14llama_kv_cells3setERKNSt3__16vectorIjNS0_9allocatorIjEEEERKS_, symObjAddr: 0x602C, symBinAddr: 0x50C98, symSize: 0x250 }
  - { offset: 0x2CF3C0, size: 0x8, addend: 0x0, symName: __ZN14llama_kv_cells3setERKNSt3__16vectorIjNS0_9allocatorIjEEEERKS_, symObjAddr: 0x602C, symBinAddr: 0x50C98, symSize: 0x250 }
  - { offset: 0x2CFAB2, size: 0x8, addend: 0x0, symName: __ZNSt3__16vectorI14llama_kv_cellsNS_9allocatorIS1_EEE20__throw_length_errorB8ne200100Ev, symObjAddr: 0x10FF8, symBinAddr: 0x5B164, symSize: 0x14 }
  - { offset: 0x2CFACA, size: 0x8, addend: 0x0, symName: __ZNSt3__19allocatorI14llama_kv_cellsE9constructB8ne200100IS1_JS1_EEEvPT_DpOT0_, symObjAddr: 0x1100C, symBinAddr: 0x5B178, symSize: 0x124 }
  - { offset: 0x2CFAD5, size: 0x8, addend: 0x0, symName: __ZNSt3__16vectorIZN14llama_kv_cache7prepareERKNS0_I12llama_ubatchNS_9allocatorIS2_EEEEE7state_tNS3_IS8_EEE20__throw_length_errorB8ne200100Ev, symObjAddr: 0x122A0, symBinAddr: 0x5C1AC, symSize: 0x14 }
  - { offset: 0x2CFAED, size: 0x8, addend: 0x0, symName: __ZNSt3__113unordered_mapIiNS_6vectorIjNS_9allocatorIjEEEENS_4hashIiEENS_8equal_toIiEENS2_INS_4pairIKiS4_EEEEED1B8ne200100Ev, symObjAddr: 0x122B4, symBinAddr: 0x5C1C0, symSize: 0x68 }
  - { offset: 0x2CFAF8, size: 0x8, addend: 0x0, symName: __ZN14llama_kv_cache9slot_infoD1Ev, symObjAddr: 0x5410, symBinAddr: 0x5007C, symSize: 0x84 }
  - { offset: 0x2CFEDA, size: 0x8, addend: 0x0, symName: __ZN14llama_kv_cellsD1Ev, symObjAddr: 0x5494, symBinAddr: 0x50100, symSize: 0x98 }
  - { offset: 0x2D051B, size: 0x8, addend: 0x0, symName: __ZNSt3__16vectorIZN14llama_kv_cache7prepareERKNS0_I12llama_ubatchNS_9allocatorIS2_EEEEE7state_tNS3_IS8_EEED1B8ne200100Ev, symObjAddr: 0x627C, symBinAddr: 0x50EE8, symSize: 0x58 }
  - { offset: 0x2D06A1, size: 0x8, addend: 0x0, symName: __ZN14llama_kv_cache9init_fullEv, symObjAddr: 0x4584, symBinAddr: 0x4F1F0, symSize: 0x54 }
  - { offset: 0x2D074A, size: 0x8, addend: 0x0, symName: __ZN22llama_kv_cache_contextC2EP14llama_kv_cache, symObjAddr: 0xE9C8, symBinAddr: 0x59634, symSize: 0x290 }
  - { offset: 0x2D1110, size: 0x8, addend: 0x0, symName: __ZN14llama_kv_cache11init_updateEP13llama_contextb, symObjAddr: 0x45D8, symBinAddr: 0x4F244, symSize: 0x160 }
  - { offset: 0x2D1415, size: 0x8, addend: 0x0, symName: __ZNK14llama_kv_cache13get_has_shiftEv, symObjAddr: 0x4738, symBinAddr: 0x4F3A4, symSize: 0xC0 }
  - { offset: 0x2D1B14, size: 0x8, addend: 0x0, symName: __ZNSt3__16vectorINS0_IjNS_9allocatorIjEEEENS1_IS3_EEE8__appendEm, symObjAddr: 0x10A04, symBinAddr: 0x5ACA4, symSize: 0x180 }
  - { offset: 0x2D1F57, size: 0x8, addend: 0x0, symName: __ZNSt3__19allocatorI14llama_kv_cellsE7destroyB8ne200100EPS1_, symObjAddr: 0x10B84, symBinAddr: 0x5AE24, symSize: 0x90 }
  - { offset: 0x2D20FD, size: 0x8, addend: 0x0, symName: __ZN14llama_kv_cache6updateEP13llama_contextbRKNS_16stream_copy_infoE, symObjAddr: 0x62D4, symBinAddr: 0x50F40, symSize: 0x338 }
  - { offset: 0x2D24CB, size: 0x8, addend: 0x0, symName: __ZNK14llama_kv_cache17build_graph_shiftEP16llm_graph_resultP13llama_context, symObjAddr: 0x660C, symBinAddr: 0x51278, symSize: 0x2D0 }
  - { offset: 0x2D250C, size: 0x8, addend: 0x0, symName: __ZNK14llama_kv_cache17build_graph_shiftEP16llm_graph_resultP13llama_context, symObjAddr: 0x660C, symBinAddr: 0x51278, symSize: 0x2D0 }
  - { offset: 0x2D2D5A, size: 0x8, addend: 0x0, symName: __ZNK14llama_kv_cache16build_rope_shiftERK13llama_cparamsP12ggml_contextP11ggml_tensorS6_S6_ff, symObjAddr: 0xC67C, symBinAddr: 0x572E8, symSize: 0x110 }
  - { offset: 0x2D2EF6, size: 0x8, addend: 0x0, symName: __ZNK14llama_kv_cache13get_can_shiftEv, symObjAddr: 0x68DC, symBinAddr: 0x51548, symSize: 0x14 }
  - { offset: 0x2D2F20, size: 0x8, addend: 0x0, symName: __ZNK14llama_kv_cache12get_n_streamEv, symObjAddr: 0x68F0, symBinAddr: 0x5155C, symSize: 0x8 }
  - { offset: 0x2D2F42, size: 0x8, addend: 0x0, symName: __ZNK14llama_kv_cache8get_n_kvERKNS_9slot_infoE, symObjAddr: 0x68F8, symBinAddr: 0x51564, symSize: 0xCC }
  - { offset: 0x2D2F81, size: 0x8, addend: 0x0, symName: __ZNK14llama_kv_cache8get_n_kvERKNS_9slot_infoE, symObjAddr: 0x68F8, symBinAddr: 0x51564, symSize: 0xCC }
  - { offset: 0x2D2F9F, size: 0x8, addend: 0x0, symName: __ZNK14llama_kv_cache8get_n_kvERKNS_9slot_infoE, symObjAddr: 0x68F8, symBinAddr: 0x51564, symSize: 0xCC }
  - { offset: 0x2D2FBC, size: 0x8, addend: 0x0, symName: __ZNK14llama_kv_cache8get_n_kvERKNS_9slot_infoE, symObjAddr: 0x68F8, symBinAddr: 0x51564, symSize: 0xCC }
  - { offset: 0x2D3234, size: 0x8, addend: 0x0, symName: __ZNK14llama_kv_cache5get_kEP12ggml_contextijRKNS_9slot_infoE, symObjAddr: 0x69C4, symBinAddr: 0x51630, symSize: 0x200 }
  - { offset: 0x2D35C0, size: 0x8, addend: 0x0, symName: __ZNK14llama_kv_cache5get_vEP12ggml_contextijRKNS_9slot_infoE, symObjAddr: 0x6BC4, symBinAddr: 0x51830, symSize: 0x294 }
  - { offset: 0x2D360B, size: 0x8, addend: 0x0, symName: __ZNK14llama_kv_cache5get_vEP12ggml_contextijRKNS_9slot_infoE, symObjAddr: 0x6BC4, symBinAddr: 0x51830, symSize: 0x294 }
  - { offset: 0x2D39AF, size: 0x8, addend: 0x0, symName: __ZNK14llama_kv_cache5cpy_kEP12ggml_contextP11ggml_tensorS3_iRKNS_9slot_infoE, symObjAddr: 0x6E58, symBinAddr: 0x51AC4, symSize: 0x1F8 }
  - { offset: 0x2D39BA, size: 0x8, addend: 0x0, symName: __ZNK14llama_kv_cache5cpy_kEP12ggml_contextP11ggml_tensorS3_iRKNS_9slot_infoE, symObjAddr: 0x6E58, symBinAddr: 0x51AC4, symSize: 0x1F8 }
  - { offset: 0x2D3D81, size: 0x8, addend: 0x0, symName: __ZNK14llama_kv_cache5cpy_vEP12ggml_contextP11ggml_tensorS3_iRKNS_9slot_infoE, symObjAddr: 0x7050, symBinAddr: 0x51CBC, symSize: 0x2D0 }
  - { offset: 0x2D3DD8, size: 0x8, addend: 0x0, symName: __ZNK14llama_kv_cache5cpy_vEP12ggml_contextP11ggml_tensorS3_iRKNS_9slot_infoE, symObjAddr: 0x7050, symBinAddr: 0x51CBC, symSize: 0x2D0 }
  - { offset: 0x2D429E, size: 0x8, addend: 0x0, symName: __ZNK14llama_kv_cache18build_input_k_idxsEP12ggml_contextRK12llama_ubatch, symObjAddr: 0x7320, symBinAddr: 0x51F8C, symSize: 0x34 }
  - { offset: 0x2D4312, size: 0x8, addend: 0x0, symName: __ZNK14llama_kv_cache18build_input_k_idxsEP12ggml_contextRK12llama_ubatch, symObjAddr: 0x7320, symBinAddr: 0x51F8C, symSize: 0x34 }
  - { offset: 0x2D437D, size: 0x8, addend: 0x0, symName: __ZNK14llama_kv_cache18build_input_v_idxsEP12ggml_contextRK12llama_ubatch, symObjAddr: 0x7354, symBinAddr: 0x51FC0, symSize: 0x54 }
  - { offset: 0x2D43F0, size: 0x8, addend: 0x0, symName: __ZNK14llama_kv_cache16set_input_k_idxsEP11ggml_tensorPK12llama_ubatchRKNS_9slot_infoE, symObjAddr: 0x73A8, symBinAddr: 0x52014, symSize: 0x3F8 }
  - { offset: 0x2D458D, size: 0x8, addend: 0x0, symName: __ZNK14llama_kv_cache16set_input_v_idxsEP11ggml_tensorPK12llama_ubatchRKNS_9slot_infoE, symObjAddr: 0x77A0, symBinAddr: 0x5240C, symSize: 0x5A4 }
  - { offset: 0x2D45B2, size: 0x8, addend: 0x0, symName: __ZNK14llama_kv_cache16set_input_v_idxsEP11ggml_tensorPK12llama_ubatchRKNS_9slot_infoE, symObjAddr: 0x77A0, symBinAddr: 0x5240C, symSize: 0x5A4 }
  - { offset: 0x2D4891, size: 0x8, addend: 0x0, symName: __ZNK14llama_kv_cache17set_input_k_shiftEP11ggml_tensor, symObjAddr: 0x7D44, symBinAddr: 0x529B0, symSize: 0x310 }
  - { offset: 0x2D48A4, size: 0x8, addend: 0x0, symName: __ZNK14llama_kv_cache17set_input_k_shiftEP11ggml_tensor, symObjAddr: 0x7D44, symBinAddr: 0x529B0, symSize: 0x310 }
  - { offset: 0x2D49B7, size: 0x8, addend: 0x0, symName: __ZNK14llama_kv_cache17set_input_kq_maskEP11ggml_tensorPK12llama_ubatchb, symObjAddr: 0x8054, symBinAddr: 0x52CC0, symSize: 0x4480 }
  - { offset: 0x2D7390, size: 0x8, addend: 0x0, symName: __ZNK14llama_kv_cache17set_input_kq_maskEP11ggml_tensorPK12llama_ubatchb, symObjAddr: 0x8054, symBinAddr: 0x52CC0, symSize: 0x4480 }
  - { offset: 0x2E732F, size: 0x8, addend: 0x0, symName: __ZNSt3__112__hash_tableINS_17__hash_value_typeIiNS_6vectorIjNS_9allocatorIjEEEEEENS_22__unordered_map_hasherIiS6_NS_4hashIiEENS_8equal_toIiEELb1EEENS_21__unordered_map_equalIiS6_SB_S9_Lb1EEENS3_IS6_EEE25__emplace_unique_key_argsIiJRKNS_21piecewise_construct_tENS_5tupleIJRKiEEENSL_IJEEEEEENS_4pairINS_15__hash_iteratorIPNS_11__hash_nodeIS6_PvEEEEbEERKT_DpOT0_, symObjAddr: 0x12378, symBinAddr: 0x5C284, symSize: 0x338 }
  - { offset: 0x2E7A67, size: 0x8, addend: 0x0, symName: __ZNSt3__112__hash_tableINS_17__hash_value_typeIijEENS_22__unordered_map_hasherIiS2_NS_4hashIiEENS_8equal_toIiEELb1EEENS_21__unordered_map_equalIiS2_S7_S5_Lb1EEENS_9allocatorIS2_EEE25__emplace_unique_key_argsIiJRKNS_21piecewise_construct_tENS_5tupleIJRKiEEENSI_IJEEEEEENS_4pairINS_15__hash_iteratorIPNS_11__hash_nodeIS2_PvEEEEbEERKT_DpOT0_, symObjAddr: 0x12890, symBinAddr: 0x5C79C, symSize: 0x328 }
  - { offset: 0x2E81AB, size: 0x8, addend: 0x0, symName: __ZNSt3__16vectorI14llama_kv_cellsNS_9allocatorIS1_EEE20__throw_out_of_rangeB8ne200100Ev, symObjAddr: 0x12364, symBinAddr: 0x5C270, symSize: 0x14 }
  - { offset: 0x2E81C3, size: 0x8, addend: 0x0, symName: __ZNSt3__112__hash_tableINS_17__hash_value_typeIiNS_6vectorIjNS_9allocatorIjEEEEEENS_22__unordered_map_hasherIiS6_NS_4hashIiEENS_8equal_toIiEELb1EEENS_21__unordered_map_equalIiS6_SB_S9_Lb1EEENS3_IS6_EEE25__emplace_unique_key_argsIiJRKNS_21piecewise_construct_tENS_5tupleIJRKiEEENSL_IJEEEEEENS_4pairINS_15__hash_iteratorIPNS_11__hash_nodeIS6_PvEEEEbEERKT_DpOT0_, symObjAddr: 0x12378, symBinAddr: 0x5C284, symSize: 0x338 }
  - { offset: 0x2E81CE, size: 0x8, addend: 0x0, symName: __ZNSt3__113unordered_mapIiNS_6vectorIjNS_9allocatorIjEEEENS_4hashIiEENS_8equal_toIiEENS2_INS_4pairIKiS4_EEEEED1B8ne200100Ev, symObjAddr: 0x122B4, symBinAddr: 0x5C1C0, symSize: 0x68 }
  - { offset: 0x2E85E9, size: 0x8, addend: 0x0, symName: __ZNSt3__113unordered_mapIijNS_4hashIiEENS_8equal_toIiEENS_9allocatorINS_4pairIKijEEEEED1B8ne200100Ev, symObjAddr: 0x1231C, symBinAddr: 0x5C228, symSize: 0x48 }
  - { offset: 0x2E8892, size: 0x8, addend: 0x0, symName: __ZNK14llama_kv_cache20set_input_pos_bucketEP11ggml_tensorPK12llama_ubatch, symObjAddr: 0xC4D4, symBinAddr: 0x57140, symSize: 0x144 }
  - { offset: 0x2E8A57, size: 0x8, addend: 0x0, symName: __ZNK14llama_kv_cache10total_sizeEv, symObjAddr: 0xC618, symBinAddr: 0x57284, symSize: 0x64 }
  - { offset: 0x2E8A8F, size: 0x8, addend: 0x0, symName: __ZNK14llama_kv_cache10total_sizeEv, symObjAddr: 0xC618, symBinAddr: 0x57284, symSize: 0x64 }
  - { offset: 0x2E8CD0, size: 0x8, addend: 0x0, symName: __ZN23llm_graph_input_k_shift9set_inputEPK12llama_ubatch, symObjAddr: 0xC78C, symBinAddr: 0x573F8, symSize: 0x314 }
  - { offset: 0x2E8E0D, size: 0x8, addend: 0x0, symName: __ZNK14llama_kv_cache11state_writeER16llama_io_write_iij, symObjAddr: 0xCAA0, symBinAddr: 0x5770C, symSize: 0x540 }
  - { offset: 0x2E9596, size: 0x8, addend: 0x0, symName: __ZNK14llama_kv_cache11state_writeER16llama_io_write_iij, symObjAddr: 0xCAA0, symBinAddr: 0x5770C, symSize: 0x540 }
  - { offset: 0x2EA290, size: 0x8, addend: 0x0, symName: __ZNK14llama_kv_cache16state_write_metaER16llama_io_write_iRKNS_13cell_ranges_tEi, symObjAddr: 0xCFE0, symBinAddr: 0x57C4C, symSize: 0x27C }
  - { offset: 0x2EAA48, size: 0x8, addend: 0x0, symName: __ZNK14llama_kv_cache16state_write_dataER16llama_io_write_iRKNS_13cell_ranges_tE, symObjAddr: 0xD25C, symBinAddr: 0x57EC8, symSize: 0x350 }
  - { offset: 0x2EB21D, size: 0x8, addend: 0x0, symName: __ZNSt3__16vectorINS_4pairIjjEENS_9allocatorIS2_EEE20__throw_length_errorB8ne200100Ev, symObjAddr: 0x12D38, symBinAddr: 0x5CC44, symSize: 0x14 }
  - { offset: 0x2EB235, size: 0x8, addend: 0x0, symName: __ZNSt3__16vectorIN14llama_kv_cache9slot_infoENS_9allocatorIS2_EEE8__appendEm, symObjAddr: 0x12D4C, symBinAddr: 0x5CC58, symSize: 0x1D8 }
  - { offset: 0x2EB526, size: 0x8, addend: 0x0, symName: __ZN14llama_kv_cache10state_readER15llama_io_read_iij, symObjAddr: 0xD5AC, symBinAddr: 0x58218, symSize: 0x29C }
  - { offset: 0x2EBBAC, size: 0x8, addend: 0x0, symName: __ZN14llama_kv_cache15state_read_metaER15llama_io_read_ijjRNS_9slot_infoEi, symObjAddr: 0xD848, symBinAddr: 0x584B4, symSize: 0x834 }
  - { offset: 0x2ECD78, size: 0x8, addend: 0x0, symName: __ZN14llama_kv_cache15state_read_dataER15llama_io_read_ijjRKNS_9slot_infoE, symObjAddr: 0xE07C, symBinAddr: 0x58CE8, symSize: 0x8DC }
  - { offset: 0x2ED9E5, size: 0x8, addend: 0x0, symName: __ZN22llama_kv_cache_contextC2E19llama_memory_status, symObjAddr: 0xE958, symBinAddr: 0x595C4, symSize: 0x38 }
  - { offset: 0x2EE6B9, size: 0x8, addend: 0x0, symName: __ZN22llama_kv_cache_contextC2E19llama_memory_status, symObjAddr: 0xE958, symBinAddr: 0x595C4, symSize: 0x38 }
  - { offset: 0x2EE75D, size: 0x8, addend: 0x0, symName: __ZN22llama_kv_cache_contextC1E19llama_memory_status, symObjAddr: 0xE990, symBinAddr: 0x595FC, symSize: 0x38 }
  - { offset: 0x2EE786, size: 0x8, addend: 0x0, symName: __ZN22llama_kv_cache_contextC1E19llama_memory_status, symObjAddr: 0xE990, symBinAddr: 0x595FC, symSize: 0x38 }
  - { offset: 0x2EE9B3, size: 0x8, addend: 0x0, symName: __ZNSt3__16vectorIN14llama_kv_cache9slot_infoENS_9allocatorIS2_EEE6resizeEm, symObjAddr: 0xEC58, symBinAddr: 0x598C4, symSize: 0xF0 }
  - { offset: 0x2EEEBA, size: 0x8, addend: 0x0, symName: __ZNSt3__16vectorIN14llama_kv_cache9slot_infoENS_9allocatorIS2_EEE8__appendEm, symObjAddr: 0x12D4C, symBinAddr: 0x5CC58, symSize: 0x1D8 }
  - { offset: 0x2EF401, size: 0x8, addend: 0x0, symName: __ZN22llama_kv_cache_contextC1EP14llama_kv_cache, symObjAddr: 0xED48, symBinAddr: 0x599B4, symSize: 0x4 }
  - { offset: 0x2EF42B, size: 0x8, addend: 0x0, symName: __ZN22llama_kv_cache_contextC1EP14llama_kv_cache, symObjAddr: 0xED48, symBinAddr: 0x599B4, symSize: 0x4 }
  - { offset: 0x2EF445, size: 0x8, addend: 0x0, symName: __ZN22llama_kv_cache_contextC2EP14llama_kv_cacheP13llama_contextbNS0_16stream_copy_infoE, symObjAddr: 0xED4C, symBinAddr: 0x599B8, symSize: 0x8C }
  - { offset: 0x2EF5E4, size: 0x8, addend: 0x0, symName: __ZN22llama_kv_cache_contextC1EP14llama_kv_cacheP13llama_contextbNS0_16stream_copy_infoE, symObjAddr: 0xEDD8, symBinAddr: 0x59A44, symSize: 0x8C }
  - { offset: 0x2EF7BB, size: 0x8, addend: 0x0, symName: __ZN22llama_kv_cache_contextC2EP14llama_kv_cacheNSt3__16vectorINS0_9slot_infoENS2_9allocatorIS4_EEEENS3_I12llama_ubatchNS5_IS8_EEEE, symObjAddr: 0xEE64, symBinAddr: 0x59AD0, symSize: 0x6C }
  - { offset: 0x2EF90B, size: 0x8, addend: 0x0, symName: __ZN22llama_kv_cache_contextC1EP14llama_kv_cacheNSt3__16vectorINS0_9slot_infoENS2_9allocatorIS4_EEEENS3_I12llama_ubatchNS5_IS8_EEEE, symObjAddr: 0xEED0, symBinAddr: 0x59B3C, symSize: 0x6C }
  - { offset: 0x2EF944, size: 0x8, addend: 0x0, symName: __ZN22llama_kv_cache_contextC1EP14llama_kv_cacheNSt3__16vectorINS0_9slot_infoENS2_9allocatorIS4_EEEENS3_I12llama_ubatchNS5_IS8_EEEE, symObjAddr: 0xEED0, symBinAddr: 0x59B3C, symSize: 0x6C }
  - { offset: 0x2EFAAB, size: 0x8, addend: 0x0, symName: __ZN22llama_kv_cache_contextD2Ev, symObjAddr: 0xEF3C, symBinAddr: 0x59BA8, symSize: 0x158 }
  - { offset: 0x2F04E9, size: 0x8, addend: 0x0, symName: __ZN22llama_kv_cache_contextD1Ev, symObjAddr: 0xF094, symBinAddr: 0x59D00, symSize: 0x4 }
  - { offset: 0x2F050C, size: 0x8, addend: 0x0, symName: __ZN22llama_kv_cache_contextD1Ev, symObjAddr: 0xF094, symBinAddr: 0x59D00, symSize: 0x4 }
  - { offset: 0x2F053C, size: 0x8, addend: 0x0, symName: __ZN22llama_kv_cache_contextD0Ev, symObjAddr: 0xF098, symBinAddr: 0x59D04, symSize: 0x14 }
  - { offset: 0x2F059A, size: 0x8, addend: 0x0, symName: __ZN22llama_kv_cache_context4nextEv, symObjAddr: 0xF0AC, symBinAddr: 0x59D18, symSize: 0x38 }
  - { offset: 0x2F0675, size: 0x8, addend: 0x0, symName: __ZN22llama_kv_cache_context5applyEv, symObjAddr: 0xF0E4, symBinAddr: 0x59D50, symSize: 0x13C }
  - { offset: 0x2F096E, size: 0x8, addend: 0x0, symName: __ZNK22llama_kv_cache_context10get_statusEv, symObjAddr: 0xF220, symBinAddr: 0x59E8C, symSize: 0x8 }
  - { offset: 0x2F09BA, size: 0x8, addend: 0x0, symName: __ZNK22llama_kv_cache_context10get_ubatchEv, symObjAddr: 0xF228, symBinAddr: 0x59E94, symSize: 0x14 }
  - { offset: 0x2F0A0B, size: 0x8, addend: 0x0, symName: __ZNK22llama_kv_cache_context8get_n_kvEv, symObjAddr: 0xF23C, symBinAddr: 0x59EA8, symSize: 0x8 }
  - { offset: 0x2F0A57, size: 0x8, addend: 0x0, symName: __ZNK22llama_kv_cache_context5get_kEP12ggml_contexti, symObjAddr: 0xF244, symBinAddr: 0x59EB0, symSize: 0x1C }
  - { offset: 0x2F0AE1, size: 0x8, addend: 0x0, symName: __ZNK22llama_kv_cache_context5get_vEP12ggml_contexti, symObjAddr: 0xF260, symBinAddr: 0x59ECC, symSize: 0x1C }
  - { offset: 0x2F0B6B, size: 0x8, addend: 0x0, symName: __ZNK22llama_kv_cache_context5cpy_kEP12ggml_contextP11ggml_tensorS3_i, symObjAddr: 0xF27C, symBinAddr: 0x59EE8, symSize: 0x8 }
  - { offset: 0x2F0BF8, size: 0x8, addend: 0x0, symName: __ZNK22llama_kv_cache_context5cpy_vEP12ggml_contextP11ggml_tensorS3_i, symObjAddr: 0xF284, symBinAddr: 0x59EF0, symSize: 0x8 }
  - { offset: 0x2F0CCE, size: 0x8, addend: 0x0, symName: __ZNK22llama_kv_cache_context18build_input_k_idxsEP12ggml_contextRK12llama_ubatch, symObjAddr: 0xF28C, symBinAddr: 0x59EF8, symSize: 0x34 }
  - { offset: 0x2F0DBA, size: 0x8, addend: 0x0, symName: __ZNK22llama_kv_cache_context18build_input_v_idxsEP12ggml_contextRK12llama_ubatch, symObjAddr: 0xF2C0, symBinAddr: 0x59F2C, symSize: 0x58 }
  - { offset: 0x2F0E6B, size: 0x8, addend: 0x0, symName: __ZNK22llama_kv_cache_context17set_input_k_shiftEP11ggml_tensor, symObjAddr: 0xF318, symBinAddr: 0x59F84, symSize: 0x310 }
  - { offset: 0x2F0FAD, size: 0x8, addend: 0x0, symName: __ZNK22llama_kv_cache_context16set_input_k_idxsEP11ggml_tensorPK12llama_ubatch, symObjAddr: 0xF628, symBinAddr: 0x5A294, symSize: 0x18 }
  - { offset: 0x2F0FC0, size: 0x8, addend: 0x0, symName: __ZNK22llama_kv_cache_context16set_input_k_idxsEP11ggml_tensorPK12llama_ubatch, symObjAddr: 0xF628, symBinAddr: 0x5A294, symSize: 0x18 }
  - { offset: 0x2F104A, size: 0x8, addend: 0x0, symName: __ZNK22llama_kv_cache_context16set_input_v_idxsEP11ggml_tensorPK12llama_ubatch, symObjAddr: 0xF640, symBinAddr: 0x5A2AC, symSize: 0x18 }
  - { offset: 0x2F10D4, size: 0x8, addend: 0x0, symName: __ZNK22llama_kv_cache_context17set_input_kq_maskEP11ggml_tensorPK12llama_ubatchb, symObjAddr: 0xF658, symBinAddr: 0x5A2C4, symSize: 0x8 }
  - { offset: 0x2F1151, size: 0x8, addend: 0x0, symName: __ZNK22llama_kv_cache_context20set_input_pos_bucketEP11ggml_tensorPK12llama_ubatch, symObjAddr: 0xF660, symBinAddr: 0x5A2CC, symSize: 0x8 }
  - { offset: 0x2F11B4, size: 0x8, addend: 0x0, symName: __ZN14llama_kv_cacheD1Ev, symObjAddr: 0xF668, symBinAddr: 0x5A2D4, symSize: 0x4 }
  - { offset: 0x2F11D7, size: 0x8, addend: 0x0, symName: __ZN14llama_kv_cacheD1Ev, symObjAddr: 0xF668, symBinAddr: 0x5A2D4, symSize: 0x4 }
  - { offset: 0x2F11EA, size: 0x8, addend: 0x0, symName: __ZN14llama_kv_cacheD2Ev, symObjAddr: 0x10874, symBinAddr: 0x5AB14, symSize: 0x190 }
  - { offset: 0x2F21BC, size: 0x8, addend: 0x0, symName: __ZN14llama_kv_cacheD0Ev, symObjAddr: 0xF66C, symBinAddr: 0x5A2D8, symSize: 0x14 }
  - { offset: 0x2F2216, size: 0x8, addend: 0x0, symName: __ZN23llm_graph_input_k_shiftD1Ev, symObjAddr: 0xF680, symBinAddr: 0x5A2EC, symSize: 0x4 }
  - { offset: 0x2F223F, size: 0x8, addend: 0x0, symName: __ZN23llm_graph_input_k_shiftD0Ev, symObjAddr: 0xF684, symBinAddr: 0x5A2F0, symSize: 0x4 }
  - { offset: 0x2F263E, size: 0x8, addend: 0x0, symName: __ZNSt3__16vectorI17llama_kv_cell_extNS_9allocatorIS1_EEE20__throw_length_errorB8ne200100Ev, symObjAddr: 0xF990, symBinAddr: 0x5A414, symSize: 0x14 }
  - { offset: 0x2F2656, size: 0x8, addend: 0x0, symName: __ZNSt3__16vectorINS_6bitsetILm256EEENS_9allocatorIS2_EEE8__appendEm, symObjAddr: 0xF9A4, symBinAddr: 0x5A428, symSize: 0x120 }
  - { offset: 0x2F2D66, size: 0x8, addend: 0x0, symName: __ZNSt3__16vectorINS0_IjNS_9allocatorIjEEEENS1_IS3_EEE20__throw_length_errorB8ne200100Ev, symObjAddr: 0x10544, symBinAddr: 0x5A99C, symSize: 0x14 }
  - { offset: 0x2F2D7E, size: 0x8, addend: 0x0, symName: __ZNSt3__135__uninitialized_allocator_copy_implB8ne200100INS_9allocatorINS_6vectorIjNS1_IjEEEEEEPS4_S6_S6_EET2_RT_T0_T1_S7_, symObjAddr: 0x10558, symBinAddr: 0x5A9B0, symSize: 0xF8 }
  - { offset: 0x2F2D89, size: 0x8, addend: 0x0, symName: __ZNSt3__128__exception_guard_exceptionsINS_6vectorINS1_IjNS_9allocatorIjEEEENS2_IS4_EEE16__destroy_vectorEED1B8ne200100Ev, symObjAddr: 0x104C0, symBinAddr: 0x5A918, symSize: 0x84 }
  - { offset: 0x2F30B6, size: 0x8, addend: 0x0, symName: __ZNSt3__128__exception_guard_exceptionsINS_29_AllocatorDestroyRangeReverseINS_9allocatorINS_6vectorIjNS2_IjEEEEEEPS5_EEED1B8ne200100Ev, symObjAddr: 0x10650, symBinAddr: 0x5AAA8, symSize: 0x6C }
  - { offset: 0x2F4250, size: 0x8, addend: 0x0, symName: __ZNSt3__19allocatorI14llama_kv_cellsE9constructB8ne200100IS1_JS1_EEEvPT_DpOT0_, symObjAddr: 0x1100C, symBinAddr: 0x5B178, symSize: 0x124 }
  - { offset: 0x2F4280, size: 0x8, addend: 0x0, symName: __ZNSt3__19allocatorI14llama_kv_cellsE9constructB8ne200100IS1_JS1_EEEvPT_DpOT0_, symObjAddr: 0x1100C, symBinAddr: 0x5B178, symSize: 0x124 }
  - { offset: 0x2F42A2, size: 0x8, addend: 0x0, symName: __ZNSt3__19allocatorI14llama_kv_cellsE9constructB8ne200100IS1_JS1_EEEvPT_DpOT0_, symObjAddr: 0x1100C, symBinAddr: 0x5B178, symSize: 0x124 }
  - { offset: 0x2F4A70, size: 0x8, addend: 0x0, symName: __ZNSt3__112__hash_tableINS_17__hash_value_typeIiiEENS_22__unordered_map_hasherIiS2_NS_4hashIiEENS_8equal_toIiEELb1EEENS_21__unordered_map_equalIiS2_S7_S5_Lb1EEENS_9allocatorIS2_EEE11__do_rehashILb1EEEvm, symObjAddr: 0x116D4, symBinAddr: 0x5B7F8, symSize: 0x180 }
  - { offset: 0x2F4DFD, size: 0x8, addend: 0x0, symName: __ZNSt3__16vectorIN14llama_kv_cache8kv_layerENS_9allocatorIS2_EEE24__emplace_back_slow_pathIJS2_EEEPS2_DpOT_, symObjAddr: 0x11854, symBinAddr: 0x5B978, symSize: 0x1D4 }
  - { offset: 0x2F4FFE, size: 0x8, addend: 0x0, symName: __ZNSt3__16vectorIN14llama_kv_cache8kv_layerENS_9allocatorIS2_EEE20__throw_length_errorB8ne200100Ev, symObjAddr: 0x11A28, symBinAddr: 0x5BB4C, symSize: 0x14 }
  - { offset: 0x2F5016, size: 0x8, addend: 0x0, symName: __ZNSt3__112__hash_tableINS_17__hash_value_typeIiiEENS_22__unordered_map_hasherIiS2_NS_4hashIiEENS_8equal_toIiEELb1EEENS_21__unordered_map_equalIiS2_S7_S5_Lb1EEENS_9allocatorIS2_EEE25__emplace_unique_key_argsIiJRKNS_21piecewise_construct_tENS_5tupleIJRKiEEENSI_IJEEEEEENS_4pairINS_15__hash_iteratorIPNS_11__hash_nodeIS2_PvEEEEbEERKT_DpOT0_, symObjAddr: 0x11A3C, symBinAddr: 0x5BB60, symSize: 0x328 }
  - { offset: 0x2F5336, size: 0x8, addend: 0x0, symName: __ZNSt3__16vectorIN14llama_kv_cache9slot_infoENS_9allocatorIS2_EEE24__emplace_back_slow_pathIJRKS2_EEEPS2_DpOT_, symObjAddr: 0x11F90, symBinAddr: 0x5BE9C, symSize: 0x14C }
  - { offset: 0x2F54AF, size: 0x8, addend: 0x0, symName: __ZNSt3__16vectorIN14llama_kv_cache9slot_infoENS_9allocatorIS2_EEE20__throw_length_errorB8ne200100Ev, symObjAddr: 0x120DC, symBinAddr: 0x5BFE8, symSize: 0x14 }
  - { offset: 0x2F54C7, size: 0x8, addend: 0x0, symName: __ZNSt3__134__uninitialized_allocator_relocateB8ne200100INS_9allocatorIN14llama_kv_cache9slot_infoEEEPS3_EEvRT_T0_S8_S8_, symObjAddr: 0x120F0, symBinAddr: 0x5BFFC, symSize: 0xF8 }
  - { offset: 0x2F54D2, size: 0x8, addend: 0x0, symName: __ZNSt3__114__split_bufferIN14llama_kv_cache9slot_infoERNS_9allocatorIS2_EEED2Ev, symObjAddr: 0x121E8, symBinAddr: 0x5C0F4, symSize: 0xB8 }
  - { offset: 0x2F5FDD, size: 0x8, addend: 0x0, symName: __ZNSt3__112__hash_tableINS_17__hash_value_typeIiNS_6vectorIjNS_9allocatorIjEEEEEENS_22__unordered_map_hasherIiS6_NS_4hashIiEENS_8equal_toIiEELb1EEENS_21__unordered_map_equalIiS6_SB_S9_Lb1EEENS3_IS6_EEE11__do_rehashILb1EEEvm, symObjAddr: 0x12710, symBinAddr: 0x5C61C, symSize: 0x180 }
  - { offset: 0x2F636A, size: 0x8, addend: 0x0, symName: __ZNSt3__112__hash_tableINS_17__hash_value_typeIijEENS_22__unordered_map_hasherIiS2_NS_4hashIiEENS_8equal_toIiEELb1EEENS_21__unordered_map_equalIiS2_S7_S5_Lb1EEENS_9allocatorIS2_EEE25__emplace_unique_key_argsIiJRKNS_21piecewise_construct_tENS_5tupleIJRKiEEENSI_IJEEEEEENS_4pairINS_15__hash_iteratorIPNS_11__hash_nodeIS2_PvEEEEbEERKT_DpOT0_, symObjAddr: 0x12890, symBinAddr: 0x5C79C, symSize: 0x328 }
  - { offset: 0x2F637F, size: 0x8, addend: 0x0, symName: __ZNSt3__110unique_ptrINS_11__hash_nodeINS_17__hash_value_typeIiNS_6vectorIjNS_9allocatorIjEEEEEEPvEENS_22__hash_node_destructorINS4_IS9_EEEEED1B8ne200100Ev, symObjAddr: 0x126B0, symBinAddr: 0x5C5BC, symSize: 0x60 }
  - { offset: 0x2F6B94, size: 0x8, addend: 0x0, symName: __ZNSt3__112__hash_tableINS_17__hash_value_typeIijEENS_22__unordered_map_hasherIiS2_NS_4hashIiEENS_8equal_toIiEELb1EEENS_21__unordered_map_equalIiS2_S7_S5_Lb1EEENS_9allocatorIS2_EEE11__do_rehashILb1EEEvm, symObjAddr: 0x12BB8, symBinAddr: 0x5CAC4, symSize: 0x180 }
  - { offset: 0x2F6F21, size: 0x8, addend: 0x0, symName: __ZNSt3__16vectorINS_4pairIjjEENS_9allocatorIS2_EEE20__throw_length_errorB8ne200100Ev, symObjAddr: 0x12D38, symBinAddr: 0x5CC44, symSize: 0x14 }
  - { offset: 0x2F8FAD, size: 0x8, addend: 0x0, symName: __ZN24llama_memory_hybrid_iswaC2ERK11llama_model9ggml_typeS3_bbjjjS3_S3_jjbbRKNSt3__18functionIFbiEEES9_, symObjAddr: 0x0, symBinAddr: 0x5CE30, symSize: 0x340 }
  - { offset: 0x3248EB, size: 0x8, addend: 0x0, symName: __ZNSt3__111make_uniqueB8ne200100I32llama_memory_hybrid_iswa_contextJP24llama_memory_hybrid_iswaNS_6vectorIN14llama_kv_cache9slot_infoENS_9allocatorIS6_EEEES9_NS4_I12llama_ubatchNS7_ISA_EEEEELi0EEENS_10unique_ptrIT_NS_14default_deleteISE_EEEEDpOT0_, symObjAddr: 0x98C, symBinAddr: 0x5D760, symSize: 0x25C }
  - { offset: 0x32F708, size: 0x8, addend: 0x0, symName: __ZN24llama_memory_hybrid_iswaC1ERK11llama_model9ggml_typeS3_bbjjjS3_S3_jjbbRKNSt3__18functionIFbiEEES9_, symObjAddr: 0x340, symBinAddr: 0x5D170, symSize: 0x34 }
  - { offset: 0x33032B, size: 0x8, addend: 0x0, symName: __ZN24llama_memory_hybrid_iswaC2ERK11llama_model9ggml_typeS3_bbjjjS3_S3_jjbbRKNSt3__18functionIFbiEEES9_, symObjAddr: 0x0, symBinAddr: 0x5CE30, symSize: 0x340 }
  - { offset: 0x331884, size: 0x8, addend: 0x0, symName: __ZN24llama_memory_hybrid_iswa10init_batchER18llama_batch_allocrjb, symObjAddr: 0x374, symBinAddr: 0x5D1A4, symSize: 0x5BC }
  - { offset: 0x3339DA, size: 0x8, addend: 0x0, symName: __ZN32llama_memory_hybrid_iswa_contextC2EP24llama_memory_hybrid_iswaNSt3__16vectorIN14llama_kv_cache9slot_infoENS2_9allocatorIS5_EEEES8_NS3_I12llama_ubatchNS6_IS9_EEEE, symObjAddr: 0x1620, symBinAddr: 0x5E298, symSize: 0x5A4 }
  - { offset: 0x335598, size: 0x8, addend: 0x0, symName: __ZN24llama_memory_hybrid_iswa9init_fullEv, symObjAddr: 0xD44, symBinAddr: 0x5D9BC, symSize: 0x54 }
  - { offset: 0x33563E, size: 0x8, addend: 0x0, symName: __ZN32llama_memory_hybrid_iswa_contextC2EP24llama_memory_hybrid_iswa, symObjAddr: 0x13B8, symBinAddr: 0x5E030, symSize: 0x120 }
  - { offset: 0x3358ED, size: 0x8, addend: 0x0, symName: __ZN24llama_memory_hybrid_iswa11init_updateEP13llama_contextb, symObjAddr: 0xD98, symBinAddr: 0x5DA10, symSize: 0x6C }
  - { offset: 0x3359D0, size: 0x8, addend: 0x0, symName: __ZN32llama_memory_hybrid_iswa_contextC2EP24llama_memory_hybrid_iswaP13llama_contextb, symObjAddr: 0x14DC, symBinAddr: 0x5E154, symSize: 0x140 }
  - { offset: 0x335C74, size: 0x8, addend: 0x0, symName: __ZNK24llama_memory_hybrid_iswa13get_can_shiftEv, symObjAddr: 0xE04, symBinAddr: 0x5DA7C, symSize: 0x10 }
  - { offset: 0x335C9F, size: 0x8, addend: 0x0, symName: __ZNK24llama_memory_hybrid_iswa13get_can_shiftEv, symObjAddr: 0xE04, symBinAddr: 0x5DA7C, symSize: 0x10 }
  - { offset: 0x335CC7, size: 0x8, addend: 0x0, symName: __ZN24llama_memory_hybrid_iswa5clearEb, symObjAddr: 0xE14, symBinAddr: 0x5DA8C, symSize: 0x40 }
  - { offset: 0x335D5B, size: 0x8, addend: 0x0, symName: __ZN24llama_memory_hybrid_iswa6seq_rmEiii, symObjAddr: 0xE54, symBinAddr: 0x5DACC, symSize: 0x6C }
  - { offset: 0x335E1B, size: 0x8, addend: 0x0, symName: __ZN24llama_memory_hybrid_iswa6seq_cpEiiii, symObjAddr: 0xEC0, symBinAddr: 0x5DB38, symSize: 0x68 }
  - { offset: 0x335EF1, size: 0x8, addend: 0x0, symName: __ZN24llama_memory_hybrid_iswa8seq_keepEi, symObjAddr: 0xF28, symBinAddr: 0x5DBA0, symSize: 0x40 }
  - { offset: 0x335F85, size: 0x8, addend: 0x0, symName: __ZN24llama_memory_hybrid_iswa7seq_addEiiii, symObjAddr: 0xF68, symBinAddr: 0x5DBE0, symSize: 0x68 }
  - { offset: 0x33605B, size: 0x8, addend: 0x0, symName: __ZN24llama_memory_hybrid_iswa7seq_divEiiii, symObjAddr: 0xFD0, symBinAddr: 0x5DC48, symSize: 0x68 }
  - { offset: 0x336131, size: 0x8, addend: 0x0, symName: __ZNK24llama_memory_hybrid_iswa11seq_pos_minEi, symObjAddr: 0x1038, symBinAddr: 0x5DCB0, symSize: 0x58 }
  - { offset: 0x3361CC, size: 0x8, addend: 0x0, symName: __ZNK24llama_memory_hybrid_iswa11seq_pos_maxEi, symObjAddr: 0x1090, symBinAddr: 0x5DD08, symSize: 0x58 }
  - { offset: 0x336809, size: 0x8, addend: 0x0, symName: __ZNK24llama_memory_hybrid_iswa16memory_breakdownEv, symObjAddr: 0x10E8, symBinAddr: 0x5DD60, symSize: 0x1C8 }
  - { offset: 0x336F5D, size: 0x8, addend: 0x0, symName: __ZNK24llama_memory_hybrid_iswa11state_writeER16llama_io_write_iij, symObjAddr: 0x12B0, symBinAddr: 0x5DF28, symSize: 0x58 }
  - { offset: 0x33701D, size: 0x8, addend: 0x0, symName: __ZN24llama_memory_hybrid_iswa10state_readER15llama_io_read_iij, symObjAddr: 0x1308, symBinAddr: 0x5DF80, symSize: 0x58 }
  - { offset: 0x3370F3, size: 0x8, addend: 0x0, symName: __ZNK24llama_memory_hybrid_iswa12get_mem_attnEv, symObjAddr: 0x1360, symBinAddr: 0x5DFD8, symSize: 0x8 }
  - { offset: 0x337117, size: 0x8, addend: 0x0, symName: __ZNK24llama_memory_hybrid_iswa12get_mem_attnEv, symObjAddr: 0x1360, symBinAddr: 0x5DFD8, symSize: 0x8 }
  - { offset: 0x337149, size: 0x8, addend: 0x0, symName: __ZNK24llama_memory_hybrid_iswa12get_mem_recrEv, symObjAddr: 0x1368, symBinAddr: 0x5DFE0, symSize: 0x8 }
  - { offset: 0x33716D, size: 0x8, addend: 0x0, symName: __ZNK24llama_memory_hybrid_iswa12get_mem_recrEv, symObjAddr: 0x1368, symBinAddr: 0x5DFE0, symSize: 0x8 }
  - { offset: 0x337189, size: 0x8, addend: 0x0, symName: __ZN32llama_memory_hybrid_iswa_contextC2E19llama_memory_status, symObjAddr: 0x1370, symBinAddr: 0x5DFE8, symSize: 0x24 }
  - { offset: 0x3371EC, size: 0x8, addend: 0x0, symName: __ZN32llama_memory_hybrid_iswa_contextC1E19llama_memory_status, symObjAddr: 0x1394, symBinAddr: 0x5E00C, symSize: 0x24 }
  - { offset: 0x337215, size: 0x8, addend: 0x0, symName: __ZN32llama_memory_hybrid_iswa_contextC1E19llama_memory_status, symObjAddr: 0x1394, symBinAddr: 0x5E00C, symSize: 0x24 }
  - { offset: 0x337367, size: 0x8, addend: 0x0, symName: __ZN32llama_memory_hybrid_iswa_contextC1EP24llama_memory_hybrid_iswa, symObjAddr: 0x14D8, symBinAddr: 0x5E150, symSize: 0x4 }
  - { offset: 0x337391, size: 0x8, addend: 0x0, symName: __ZN32llama_memory_hybrid_iswa_contextC1EP24llama_memory_hybrid_iswa, symObjAddr: 0x14D8, symBinAddr: 0x5E150, symSize: 0x4 }
  - { offset: 0x3373AB, size: 0x8, addend: 0x0, symName: __ZN32llama_memory_hybrid_iswa_contextC1EP24llama_memory_hybrid_iswaP13llama_contextb, symObjAddr: 0x161C, symBinAddr: 0x5E294, symSize: 0x4 }
  - { offset: 0x3373E8, size: 0x8, addend: 0x0, symName: __ZN32llama_memory_hybrid_iswa_contextC1EP24llama_memory_hybrid_iswaP13llama_contextb, symObjAddr: 0x161C, symBinAddr: 0x5E294, symSize: 0x4 }
  - { offset: 0x33790A, size: 0x8, addend: 0x0, symName: __ZN32llama_memory_hybrid_iswa_contextC1EP24llama_memory_hybrid_iswaNSt3__16vectorIN14llama_kv_cache9slot_infoENS2_9allocatorIS5_EEEES8_NS3_I12llama_ubatchNS6_IS9_EEEE, symObjAddr: 0x1BC4, symBinAddr: 0x5E83C, symSize: 0x4 }
  - { offset: 0x33794C, size: 0x8, addend: 0x0, symName: __ZN32llama_memory_hybrid_iswa_contextC1EP24llama_memory_hybrid_iswaNSt3__16vectorIN14llama_kv_cache9slot_infoENS2_9allocatorIS5_EEEES8_NS3_I12llama_ubatchNS6_IS9_EEEE, symObjAddr: 0x1BC4, symBinAddr: 0x5E83C, symSize: 0x4 }
  - { offset: 0x33797B, size: 0x8, addend: 0x0, symName: __ZN32llama_memory_hybrid_iswa_context4nextEv, symObjAddr: 0x1BC8, symBinAddr: 0x5E840, symSize: 0x70 }
  - { offset: 0x337A16, size: 0x8, addend: 0x0, symName: __ZN32llama_memory_hybrid_iswa_context5applyEv, symObjAddr: 0x1C38, symBinAddr: 0x5E8B0, symSize: 0x44 }
  - { offset: 0x337AA3, size: 0x8, addend: 0x0, symName: __ZNK32llama_memory_hybrid_iswa_context10get_statusEv, symObjAddr: 0x1C7C, symBinAddr: 0x5E8F4, symSize: 0x8 }
  - { offset: 0x337AEF, size: 0x8, addend: 0x0, symName: __ZNK32llama_memory_hybrid_iswa_context10get_ubatchEv, symObjAddr: 0x1C84, symBinAddr: 0x5E8FC, symSize: 0x10 }
  - { offset: 0x337B55, size: 0x8, addend: 0x0, symName: __ZNK32llama_memory_hybrid_iswa_context8get_attnEv, symObjAddr: 0x1C94, symBinAddr: 0x5E90C, symSize: 0x8 }
  - { offset: 0x337B81, size: 0x8, addend: 0x0, symName: __ZNK32llama_memory_hybrid_iswa_context8get_attnEv, symObjAddr: 0x1C94, symBinAddr: 0x5E90C, symSize: 0x8 }
  - { offset: 0x337B9E, size: 0x8, addend: 0x0, symName: __ZNK32llama_memory_hybrid_iswa_context8get_recrEv, symObjAddr: 0x1C9C, symBinAddr: 0x5E914, symSize: 0x8 }
  - { offset: 0x337BCA, size: 0x8, addend: 0x0, symName: __ZNK32llama_memory_hybrid_iswa_context8get_recrEv, symObjAddr: 0x1C9C, symBinAddr: 0x5E914, symSize: 0x8 }
  - { offset: 0x337C8A, size: 0x8, addend: 0x0, symName: __ZN24llama_memory_hybrid_iswaD1Ev, symObjAddr: 0x1CA4, symBinAddr: 0x5E91C, symSize: 0x5C }
  - { offset: 0x337E1E, size: 0x8, addend: 0x0, symName: __ZN24llama_memory_hybrid_iswaD0Ev, symObjAddr: 0x1D00, symBinAddr: 0x5E978, symSize: 0x5C }
  - { offset: 0x337FD7, size: 0x8, addend: 0x0, symName: __ZN32llama_memory_hybrid_iswa_contextD1Ev, symObjAddr: 0x1D5C, symBinAddr: 0x5E9D4, symSize: 0xD4 }
  - { offset: 0x33839C, size: 0x8, addend: 0x0, symName: __ZN32llama_memory_hybrid_iswa_contextD0Ev, symObjAddr: 0x1E30, symBinAddr: 0x5EAA8, symSize: 0xD4 }
  - { offset: 0x33876C, size: 0x8, addend: 0x0, symName: '__ZNSt3__110__function6__funcIZN24llama_memory_hybrid_iswaC1ERK11llama_model9ggml_typeS6_bbjjjS6_S6_jjbbRKNS_8functionIFbiEEESB_E3$_0NS_9allocatorISC_EES8_ED1Ev', symObjAddr: 0x1F04, symBinAddr: 0x5EB7C, symSize: 0x4 }
  - { offset: 0x338798, size: 0x8, addend: 0x0, symName: '__ZNSt3__110__function6__funcIZN24llama_memory_hybrid_iswaC1ERK11llama_model9ggml_typeS6_bbjjjS6_S6_jjbbRKNS_8functionIFbiEEESB_E3$_0NS_9allocatorISC_EES8_ED0Ev', symObjAddr: 0x1F08, symBinAddr: 0x5EB80, symSize: 0x4 }
  - { offset: 0x33884F, size: 0x8, addend: 0x0, symName: '__ZNKSt3__110__function6__funcIZN24llama_memory_hybrid_iswaC1ERK11llama_model9ggml_typeS6_bbjjjS6_S6_jjbbRKNS_8functionIFbiEEESB_E3$_0NS_9allocatorISC_EES8_E7__cloneEv', symObjAddr: 0x1F0C, symBinAddr: 0x5EB84, symSize: 0x34 }
  - { offset: 0x3389A1, size: 0x8, addend: 0x0, symName: '__ZNKSt3__110__function6__funcIZN24llama_memory_hybrid_iswaC1ERK11llama_model9ggml_typeS6_bbjjjS6_S6_jjbbRKNS_8functionIFbiEEESB_E3$_0NS_9allocatorISC_EES8_E7__cloneEPNS0_6__baseIS8_EE', symObjAddr: 0x1F40, symBinAddr: 0x5EBB8, symSize: 0x14 }
  - { offset: 0x338A0E, size: 0x8, addend: 0x0, symName: '__ZNSt3__110__function6__funcIZN24llama_memory_hybrid_iswaC1ERK11llama_model9ggml_typeS6_bbjjjS6_S6_jjbbRKNS_8functionIFbiEEESB_E3$_0NS_9allocatorISC_EES8_E7destroyEv', symObjAddr: 0x1F54, symBinAddr: 0x5EBCC, symSize: 0x4 }
  - { offset: 0x338A63, size: 0x8, addend: 0x0, symName: '__ZNSt3__110__function6__funcIZN24llama_memory_hybrid_iswaC1ERK11llama_model9ggml_typeS6_bbjjjS6_S6_jjbbRKNS_8functionIFbiEEESB_E3$_0NS_9allocatorISC_EES8_E18destroy_deallocateEv', symObjAddr: 0x1F58, symBinAddr: 0x5EBD0, symSize: 0x4 }
  - { offset: 0x338A98, size: 0x8, addend: 0x0, symName: '__ZNSt3__110__function6__funcIZN24llama_memory_hybrid_iswaC1ERK11llama_model9ggml_typeS6_bbjjjS6_S6_jjbbRKNS_8functionIFbiEEESB_E3$_0NS_9allocatorISC_EES8_E18destroy_deallocateEv', symObjAddr: 0x1F58, symBinAddr: 0x5EBD0, symSize: 0x4 }
  - { offset: 0x338ABB, size: 0x8, addend: 0x0, symName: '__ZNSt3__110__function6__funcIZN24llama_memory_hybrid_iswaC1ERK11llama_model9ggml_typeS6_bbjjjS6_S6_jjbbRKNS_8functionIFbiEEESB_E3$_0NS_9allocatorISC_EES8_E18destroy_deallocateEv', symObjAddr: 0x1F58, symBinAddr: 0x5EBD0, symSize: 0x4 }
  - { offset: 0x338AEE, size: 0x8, addend: 0x0, symName: '__ZNSt3__110__function6__funcIZN24llama_memory_hybrid_iswaC1ERK11llama_model9ggml_typeS6_bbjjjS6_S6_jjbbRKNS_8functionIFbiEEESB_E3$_0NS_9allocatorISC_EES8_E18destroy_deallocateEv', symObjAddr: 0x1F58, symBinAddr: 0x5EBD0, symSize: 0x4 }
  - { offset: 0x338B90, size: 0x8, addend: 0x0, symName: '__ZNSt3__110__function6__funcIZN24llama_memory_hybrid_iswaC1ERK11llama_model9ggml_typeS6_bbjjjS6_S6_jjbbRKNS_8functionIFbiEEESB_E3$_0NS_9allocatorISC_EES8_EclEOi', symObjAddr: 0x1F5C, symBinAddr: 0x5EBD4, symSize: 0x24 }
  - { offset: 0x338C94, size: 0x8, addend: 0x0, symName: '__ZNKSt3__110__function6__funcIZN24llama_memory_hybrid_iswaC1ERK11llama_model9ggml_typeS6_bbjjjS6_S6_jjbbRKNS_8functionIFbiEEESB_E3$_0NS_9allocatorISC_EES8_E6targetERKSt9type_info', symObjAddr: 0x1F80, symBinAddr: 0x5EBF8, symSize: 0x64 }
  - { offset: 0x338D5F, size: 0x8, addend: 0x0, symName: '__ZNKSt3__110__function6__funcIZN24llama_memory_hybrid_iswaC1ERK11llama_model9ggml_typeS6_bbjjjS6_S6_jjbbRKNS_8functionIFbiEEESB_E3$_0NS_9allocatorISC_EES8_E11target_typeEv', symObjAddr: 0x1FE4, symBinAddr: 0x5EC5C, symSize: 0xC }
  - { offset: 0x338D82, size: 0x8, addend: 0x0, symName: '__ZNSt3__110__function6__funcIZN24llama_memory_hybrid_iswaC1ERK11llama_model9ggml_typeS6_bbjjjS6_S6_jjbbRKNS_8functionIFbiEEESB_E3$_1NS_9allocatorISC_EES8_ED1Ev', symObjAddr: 0x2018, symBinAddr: 0x5EC68, symSize: 0x4 }
  - { offset: 0x338DAE, size: 0x8, addend: 0x0, symName: '__ZNSt3__110__function6__funcIZN24llama_memory_hybrid_iswaC1ERK11llama_model9ggml_typeS6_bbjjjS6_S6_jjbbRKNS_8functionIFbiEEESB_E3$_1NS_9allocatorISC_EES8_ED0Ev', symObjAddr: 0x201C, symBinAddr: 0x5EC6C, symSize: 0x4 }
  - { offset: 0x338E65, size: 0x8, addend: 0x0, symName: '__ZNKSt3__110__function6__funcIZN24llama_memory_hybrid_iswaC1ERK11llama_model9ggml_typeS6_bbjjjS6_S6_jjbbRKNS_8functionIFbiEEESB_E3$_1NS_9allocatorISC_EES8_E7__cloneEv', symObjAddr: 0x2020, symBinAddr: 0x5EC70, symSize: 0x34 }
  - { offset: 0x338FB7, size: 0x8, addend: 0x0, symName: '__ZNKSt3__110__function6__funcIZN24llama_memory_hybrid_iswaC1ERK11llama_model9ggml_typeS6_bbjjjS6_S6_jjbbRKNS_8functionIFbiEEESB_E3$_1NS_9allocatorISC_EES8_E7__cloneEPNS0_6__baseIS8_EE', symObjAddr: 0x2054, symBinAddr: 0x5ECA4, symSize: 0x14 }
  - { offset: 0x339024, size: 0x8, addend: 0x0, symName: '__ZNSt3__110__function6__funcIZN24llama_memory_hybrid_iswaC1ERK11llama_model9ggml_typeS6_bbjjjS6_S6_jjbbRKNS_8functionIFbiEEESB_E3$_1NS_9allocatorISC_EES8_E7destroyEv', symObjAddr: 0x2068, symBinAddr: 0x5ECB8, symSize: 0x4 }
  - { offset: 0x339079, size: 0x8, addend: 0x0, symName: '__ZNSt3__110__function6__funcIZN24llama_memory_hybrid_iswaC1ERK11llama_model9ggml_typeS6_bbjjjS6_S6_jjbbRKNS_8functionIFbiEEESB_E3$_1NS_9allocatorISC_EES8_E18destroy_deallocateEv', symObjAddr: 0x206C, symBinAddr: 0x5ECBC, symSize: 0x4 }
  - { offset: 0x3390AE, size: 0x8, addend: 0x0, symName: '__ZNSt3__110__function6__funcIZN24llama_memory_hybrid_iswaC1ERK11llama_model9ggml_typeS6_bbjjjS6_S6_jjbbRKNS_8functionIFbiEEESB_E3$_1NS_9allocatorISC_EES8_E18destroy_deallocateEv', symObjAddr: 0x206C, symBinAddr: 0x5ECBC, symSize: 0x4 }
  - { offset: 0x3390D1, size: 0x8, addend: 0x0, symName: '__ZNSt3__110__function6__funcIZN24llama_memory_hybrid_iswaC1ERK11llama_model9ggml_typeS6_bbjjjS6_S6_jjbbRKNS_8functionIFbiEEESB_E3$_1NS_9allocatorISC_EES8_E18destroy_deallocateEv', symObjAddr: 0x206C, symBinAddr: 0x5ECBC, symSize: 0x4 }
  - { offset: 0x339104, size: 0x8, addend: 0x0, symName: '__ZNSt3__110__function6__funcIZN24llama_memory_hybrid_iswaC1ERK11llama_model9ggml_typeS6_bbjjjS6_S6_jjbbRKNS_8functionIFbiEEESB_E3$_1NS_9allocatorISC_EES8_E18destroy_deallocateEv', symObjAddr: 0x206C, symBinAddr: 0x5ECBC, symSize: 0x4 }
  - { offset: 0x3391A6, size: 0x8, addend: 0x0, symName: '__ZNSt3__110__function6__funcIZN24llama_memory_hybrid_iswaC1ERK11llama_model9ggml_typeS6_bbjjjS6_S6_jjbbRKNS_8functionIFbiEEESB_E3$_1NS_9allocatorISC_EES8_EclEOi', symObjAddr: 0x2070, symBinAddr: 0x5ECC0, symSize: 0x10 }
  - { offset: 0x33924F, size: 0x8, addend: 0x0, symName: '__ZNKSt3__110__function6__funcIZN24llama_memory_hybrid_iswaC1ERK11llama_model9ggml_typeS6_bbjjjS6_S6_jjbbRKNS_8functionIFbiEEESB_E3$_1NS_9allocatorISC_EES8_E6targetERKSt9type_info', symObjAddr: 0x2080, symBinAddr: 0x5ECD0, symSize: 0x64 }
  - { offset: 0x339303, size: 0x8, addend: 0x0, symName: '__ZNKSt3__110__function6__funcIZN24llama_memory_hybrid_iswaC1ERK11llama_model9ggml_typeS6_bbjjjS6_S6_jjbbRKNS_8functionIFbiEEESB_E3$_1NS_9allocatorISC_EES8_E11target_typeEv', symObjAddr: 0x20E4, symBinAddr: 0x5ED34, symSize: 0xC }
  - { offset: 0x33B4F7, size: 0x8, addend: 0x0, symName: __ZN19llama_memory_hybridC2ERK11llama_model9ggml_typeS3_bjjj14llama_swa_typeS3_S3_jjbbRKNSt3__18functionIFbiEEESA_, symObjAddr: 0x0, symBinAddr: 0x5ED40, symSize: 0x340 }
  - { offset: 0x366CA4, size: 0x8, addend: 0x0, symName: __ZNSt3__111make_uniqueB8ne200100I27llama_memory_hybrid_contextJP19llama_memory_hybridNS_6vectorIN14llama_kv_cache9slot_infoENS_9allocatorIS6_EEEENS4_I12llama_ubatchNS7_ISA_EEEEELi0EEENS_10unique_ptrIT_NS_14default_deleteISE_EEEEDpOT0_, symObjAddr: 0x994, symBinAddr: 0x5F678, symSize: 0x1B0 }
  - { offset: 0x370FDF, size: 0x8, addend: 0x0, symName: __ZN19llama_memory_hybridC1ERK11llama_model9ggml_typeS3_bjjj14llama_swa_typeS3_S3_jjbbRKNSt3__18functionIFbiEEESA_, symObjAddr: 0x340, symBinAddr: 0x5F080, symSize: 0x34 }
  - { offset: 0x371BFD, size: 0x8, addend: 0x0, symName: __ZN19llama_memory_hybridC2ERK11llama_model9ggml_typeS3_bjjj14llama_swa_typeS3_S3_jjbbRKNSt3__18functionIFbiEEESA_, symObjAddr: 0x0, symBinAddr: 0x5ED40, symSize: 0x340 }
  - { offset: 0x373156, size: 0x8, addend: 0x0, symName: __ZN19llama_memory_hybrid10init_batchER18llama_batch_allocrjb, symObjAddr: 0x374, symBinAddr: 0x5F0B4, symSize: 0x5C4 }
  - { offset: 0x374DD4, size: 0x8, addend: 0x0, symName: __ZN27llama_memory_hybrid_contextC2EP19llama_memory_hybridNSt3__16vectorIN14llama_kv_cache9slot_infoENS2_9allocatorIS5_EEEENS3_I12llama_ubatchNS6_IS9_EEEE, symObjAddr: 0x1584, symBinAddr: 0x6010C, symSize: 0x4E8 }
  - { offset: 0x3763DE, size: 0x8, addend: 0x0, symName: __ZN19llama_memory_hybrid9init_fullEv, symObjAddr: 0xCA0, symBinAddr: 0x5F828, symSize: 0x54 }
  - { offset: 0x376484, size: 0x8, addend: 0x0, symName: __ZN27llama_memory_hybrid_contextC2EP19llama_memory_hybrid, symObjAddr: 0x131C, symBinAddr: 0x5FEA4, symSize: 0x120 }
  - { offset: 0x376733, size: 0x8, addend: 0x0, symName: __ZN19llama_memory_hybrid11init_updateEP13llama_contextb, symObjAddr: 0xCF4, symBinAddr: 0x5F87C, symSize: 0x6C }
  - { offset: 0x376816, size: 0x8, addend: 0x0, symName: __ZN27llama_memory_hybrid_contextC2EP19llama_memory_hybridP13llama_contextb, symObjAddr: 0x1440, symBinAddr: 0x5FFC8, symSize: 0x140 }
  - { offset: 0x376ABA, size: 0x8, addend: 0x0, symName: __ZNK19llama_memory_hybrid13get_can_shiftEv, symObjAddr: 0xD60, symBinAddr: 0x5F8E8, symSize: 0x10 }
  - { offset: 0x376AE5, size: 0x8, addend: 0x0, symName: __ZNK19llama_memory_hybrid13get_can_shiftEv, symObjAddr: 0xD60, symBinAddr: 0x5F8E8, symSize: 0x10 }
  - { offset: 0x376B0D, size: 0x8, addend: 0x0, symName: __ZN19llama_memory_hybrid5clearEb, symObjAddr: 0xD70, symBinAddr: 0x5F8F8, symSize: 0x40 }
  - { offset: 0x376BA1, size: 0x8, addend: 0x0, symName: __ZN19llama_memory_hybrid6seq_rmEiii, symObjAddr: 0xDB0, symBinAddr: 0x5F938, symSize: 0x6C }
  - { offset: 0x376C61, size: 0x8, addend: 0x0, symName: __ZN19llama_memory_hybrid6seq_cpEiiii, symObjAddr: 0xE1C, symBinAddr: 0x5F9A4, symSize: 0x68 }
  - { offset: 0x376D37, size: 0x8, addend: 0x0, symName: __ZN19llama_memory_hybrid8seq_keepEi, symObjAddr: 0xE84, symBinAddr: 0x5FA0C, symSize: 0x40 }
  - { offset: 0x376DCB, size: 0x8, addend: 0x0, symName: __ZN19llama_memory_hybrid7seq_addEiiii, symObjAddr: 0xEC4, symBinAddr: 0x5FA4C, symSize: 0x68 }
  - { offset: 0x376EA1, size: 0x8, addend: 0x0, symName: __ZN19llama_memory_hybrid7seq_divEiiii, symObjAddr: 0xF2C, symBinAddr: 0x5FAB4, symSize: 0x68 }
  - { offset: 0x376F77, size: 0x8, addend: 0x0, symName: __ZNK19llama_memory_hybrid11seq_pos_minEi, symObjAddr: 0xF94, symBinAddr: 0x5FB1C, symSize: 0x58 }
  - { offset: 0x377012, size: 0x8, addend: 0x0, symName: __ZNK19llama_memory_hybrid11seq_pos_maxEi, symObjAddr: 0xFEC, symBinAddr: 0x5FB74, symSize: 0x58 }
  - { offset: 0x37764F, size: 0x8, addend: 0x0, symName: __ZNK19llama_memory_hybrid16memory_breakdownEv, symObjAddr: 0x1044, symBinAddr: 0x5FBCC, symSize: 0x1C8 }
  - { offset: 0x377DA3, size: 0x8, addend: 0x0, symName: __ZNK19llama_memory_hybrid11state_writeER16llama_io_write_iij, symObjAddr: 0x120C, symBinAddr: 0x5FD94, symSize: 0x5C }
  - { offset: 0x377E4D, size: 0x8, addend: 0x0, symName: __ZN19llama_memory_hybrid10state_readER15llama_io_read_iij, symObjAddr: 0x1268, symBinAddr: 0x5FDF0, symSize: 0x5C }
  - { offset: 0x377F0D, size: 0x8, addend: 0x0, symName: __ZNK19llama_memory_hybrid12get_mem_attnEv, symObjAddr: 0x12C4, symBinAddr: 0x5FE4C, symSize: 0x8 }
  - { offset: 0x377F31, size: 0x8, addend: 0x0, symName: __ZNK19llama_memory_hybrid12get_mem_attnEv, symObjAddr: 0x12C4, symBinAddr: 0x5FE4C, symSize: 0x8 }
  - { offset: 0x377F63, size: 0x8, addend: 0x0, symName: __ZNK19llama_memory_hybrid12get_mem_recrEv, symObjAddr: 0x12CC, symBinAddr: 0x5FE54, symSize: 0x8 }
  - { offset: 0x377F87, size: 0x8, addend: 0x0, symName: __ZNK19llama_memory_hybrid12get_mem_recrEv, symObjAddr: 0x12CC, symBinAddr: 0x5FE54, symSize: 0x8 }
  - { offset: 0x377FA3, size: 0x8, addend: 0x0, symName: __ZN27llama_memory_hybrid_contextC2E19llama_memory_status, symObjAddr: 0x12D4, symBinAddr: 0x5FE5C, symSize: 0x24 }
  - { offset: 0x378006, size: 0x8, addend: 0x0, symName: __ZN27llama_memory_hybrid_contextC1E19llama_memory_status, symObjAddr: 0x12F8, symBinAddr: 0x5FE80, symSize: 0x24 }
  - { offset: 0x37802F, size: 0x8, addend: 0x0, symName: __ZN27llama_memory_hybrid_contextC1E19llama_memory_status, symObjAddr: 0x12F8, symBinAddr: 0x5FE80, symSize: 0x24 }
  - { offset: 0x378181, size: 0x8, addend: 0x0, symName: __ZN27llama_memory_hybrid_contextC1EP19llama_memory_hybrid, symObjAddr: 0x143C, symBinAddr: 0x5FFC4, symSize: 0x4 }
  - { offset: 0x3781AB, size: 0x8, addend: 0x0, symName: __ZN27llama_memory_hybrid_contextC1EP19llama_memory_hybrid, symObjAddr: 0x143C, symBinAddr: 0x5FFC4, symSize: 0x4 }
  - { offset: 0x3781C5, size: 0x8, addend: 0x0, symName: __ZN27llama_memory_hybrid_contextC1EP19llama_memory_hybridP13llama_contextb, symObjAddr: 0x1580, symBinAddr: 0x60108, symSize: 0x4 }
  - { offset: 0x378202, size: 0x8, addend: 0x0, symName: __ZN27llama_memory_hybrid_contextC1EP19llama_memory_hybridP13llama_contextb, symObjAddr: 0x1580, symBinAddr: 0x60108, symSize: 0x4 }
  - { offset: 0x378724, size: 0x8, addend: 0x0, symName: __ZN27llama_memory_hybrid_contextC1EP19llama_memory_hybridNSt3__16vectorIN14llama_kv_cache9slot_infoENS2_9allocatorIS5_EEEENS3_I12llama_ubatchNS6_IS9_EEEE, symObjAddr: 0x1A6C, symBinAddr: 0x605F4, symSize: 0x4 }
  - { offset: 0x37875E, size: 0x8, addend: 0x0, symName: __ZN27llama_memory_hybrid_contextC1EP19llama_memory_hybridNSt3__16vectorIN14llama_kv_cache9slot_infoENS2_9allocatorIS5_EEEENS3_I12llama_ubatchNS6_IS9_EEEE, symObjAddr: 0x1A6C, symBinAddr: 0x605F4, symSize: 0x4 }
  - { offset: 0x378786, size: 0x8, addend: 0x0, symName: __ZN27llama_memory_hybrid_context4nextEv, symObjAddr: 0x1A70, symBinAddr: 0x605F8, symSize: 0x70 }
  - { offset: 0x378821, size: 0x8, addend: 0x0, symName: __ZN27llama_memory_hybrid_context5applyEv, symObjAddr: 0x1AE0, symBinAddr: 0x60668, symSize: 0x44 }
  - { offset: 0x3788AE, size: 0x8, addend: 0x0, symName: __ZNK27llama_memory_hybrid_context10get_statusEv, symObjAddr: 0x1B24, symBinAddr: 0x606AC, symSize: 0x8 }
  - { offset: 0x3788F9, size: 0x8, addend: 0x0, symName: __ZNK27llama_memory_hybrid_context10get_ubatchEv, symObjAddr: 0x1B2C, symBinAddr: 0x606B4, symSize: 0x10 }
  - { offset: 0x37895F, size: 0x8, addend: 0x0, symName: __ZNK27llama_memory_hybrid_context8get_attnEv, symObjAddr: 0x1B3C, symBinAddr: 0x606C4, symSize: 0x8 }
  - { offset: 0x37898B, size: 0x8, addend: 0x0, symName: __ZNK27llama_memory_hybrid_context8get_attnEv, symObjAddr: 0x1B3C, symBinAddr: 0x606C4, symSize: 0x8 }
  - { offset: 0x3789A8, size: 0x8, addend: 0x0, symName: __ZNK27llama_memory_hybrid_context8get_recrEv, symObjAddr: 0x1B44, symBinAddr: 0x606CC, symSize: 0x8 }
  - { offset: 0x3789D4, size: 0x8, addend: 0x0, symName: __ZNK27llama_memory_hybrid_context8get_recrEv, symObjAddr: 0x1B44, symBinAddr: 0x606CC, symSize: 0x8 }
  - { offset: 0x378A94, size: 0x8, addend: 0x0, symName: __ZN19llama_memory_hybridD1Ev, symObjAddr: 0x1B4C, symBinAddr: 0x606D4, symSize: 0x5C }
  - { offset: 0x378C28, size: 0x8, addend: 0x0, symName: __ZN19llama_memory_hybridD0Ev, symObjAddr: 0x1BA8, symBinAddr: 0x60730, symSize: 0x5C }
  - { offset: 0x378DE1, size: 0x8, addend: 0x0, symName: __ZN27llama_memory_hybrid_contextD1Ev, symObjAddr: 0x1C04, symBinAddr: 0x6078C, symSize: 0xD4 }
  - { offset: 0x3791A6, size: 0x8, addend: 0x0, symName: __ZN27llama_memory_hybrid_contextD0Ev, symObjAddr: 0x1CD8, symBinAddr: 0x60860, symSize: 0xD4 }
  - { offset: 0x379576, size: 0x8, addend: 0x0, symName: '__ZNSt3__110__function6__funcIZN19llama_memory_hybridC1ERK11llama_model9ggml_typeS6_bjjj14llama_swa_typeS6_S6_jjbbRKNS_8functionIFbiEEESC_E3$_0NS_9allocatorISD_EES9_ED1Ev', symObjAddr: 0x1DAC, symBinAddr: 0x60934, symSize: 0x4 }
  - { offset: 0x3795A2, size: 0x8, addend: 0x0, symName: '__ZNSt3__110__function6__funcIZN19llama_memory_hybridC1ERK11llama_model9ggml_typeS6_bjjj14llama_swa_typeS6_S6_jjbbRKNS_8functionIFbiEEESC_E3$_0NS_9allocatorISD_EES9_ED0Ev', symObjAddr: 0x1DB0, symBinAddr: 0x60938, symSize: 0x4 }
  - { offset: 0x379659, size: 0x8, addend: 0x0, symName: '__ZNKSt3__110__function6__funcIZN19llama_memory_hybridC1ERK11llama_model9ggml_typeS6_bjjj14llama_swa_typeS6_S6_jjbbRKNS_8functionIFbiEEESC_E3$_0NS_9allocatorISD_EES9_E7__cloneEv', symObjAddr: 0x1DB4, symBinAddr: 0x6093C, symSize: 0x34 }
  - { offset: 0x3797AB, size: 0x8, addend: 0x0, symName: '__ZNKSt3__110__function6__funcIZN19llama_memory_hybridC1ERK11llama_model9ggml_typeS6_bjjj14llama_swa_typeS6_S6_jjbbRKNS_8functionIFbiEEESC_E3$_0NS_9allocatorISD_EES9_E7__cloneEPNS0_6__baseIS9_EE', symObjAddr: 0x1DE8, symBinAddr: 0x60970, symSize: 0x14 }
  - { offset: 0x379818, size: 0x8, addend: 0x0, symName: '__ZNSt3__110__function6__funcIZN19llama_memory_hybridC1ERK11llama_model9ggml_typeS6_bjjj14llama_swa_typeS6_S6_jjbbRKNS_8functionIFbiEEESC_E3$_0NS_9allocatorISD_EES9_E7destroyEv', symObjAddr: 0x1DFC, symBinAddr: 0x60984, symSize: 0x4 }
  - { offset: 0x37986D, size: 0x8, addend: 0x0, symName: '__ZNSt3__110__function6__funcIZN19llama_memory_hybridC1ERK11llama_model9ggml_typeS6_bjjj14llama_swa_typeS6_S6_jjbbRKNS_8functionIFbiEEESC_E3$_0NS_9allocatorISD_EES9_E18destroy_deallocateEv', symObjAddr: 0x1E00, symBinAddr: 0x60988, symSize: 0x4 }
  - { offset: 0x3798A2, size: 0x8, addend: 0x0, symName: '__ZNSt3__110__function6__funcIZN19llama_memory_hybridC1ERK11llama_model9ggml_typeS6_bjjj14llama_swa_typeS6_S6_jjbbRKNS_8functionIFbiEEESC_E3$_0NS_9allocatorISD_EES9_E18destroy_deallocateEv', symObjAddr: 0x1E00, symBinAddr: 0x60988, symSize: 0x4 }
  - { offset: 0x3798C5, size: 0x8, addend: 0x0, symName: '__ZNSt3__110__function6__funcIZN19llama_memory_hybridC1ERK11llama_model9ggml_typeS6_bjjj14llama_swa_typeS6_S6_jjbbRKNS_8functionIFbiEEESC_E3$_0NS_9allocatorISD_EES9_E18destroy_deallocateEv', symObjAddr: 0x1E00, symBinAddr: 0x60988, symSize: 0x4 }
  - { offset: 0x3798F8, size: 0x8, addend: 0x0, symName: '__ZNSt3__110__function6__funcIZN19llama_memory_hybridC1ERK11llama_model9ggml_typeS6_bjjj14llama_swa_typeS6_S6_jjbbRKNS_8functionIFbiEEESC_E3$_0NS_9allocatorISD_EES9_E18destroy_deallocateEv', symObjAddr: 0x1E00, symBinAddr: 0x60988, symSize: 0x4 }
  - { offset: 0x37999A, size: 0x8, addend: 0x0, symName: '__ZNSt3__110__function6__funcIZN19llama_memory_hybridC1ERK11llama_model9ggml_typeS6_bjjj14llama_swa_typeS6_S6_jjbbRKNS_8functionIFbiEEESC_E3$_0NS_9allocatorISD_EES9_EclEOi', symObjAddr: 0x1E04, symBinAddr: 0x6098C, symSize: 0x24 }
  - { offset: 0x379A9E, size: 0x8, addend: 0x0, symName: '__ZNKSt3__110__function6__funcIZN19llama_memory_hybridC1ERK11llama_model9ggml_typeS6_bjjj14llama_swa_typeS6_S6_jjbbRKNS_8functionIFbiEEESC_E3$_0NS_9allocatorISD_EES9_E6targetERKSt9type_info', symObjAddr: 0x1E28, symBinAddr: 0x609B0, symSize: 0x64 }
  - { offset: 0x379B69, size: 0x8, addend: 0x0, symName: '__ZNKSt3__110__function6__funcIZN19llama_memory_hybridC1ERK11llama_model9ggml_typeS6_bjjj14llama_swa_typeS6_S6_jjbbRKNS_8functionIFbiEEESC_E3$_0NS_9allocatorISD_EES9_E11target_typeEv', symObjAddr: 0x1E8C, symBinAddr: 0x60A14, symSize: 0xC }
  - { offset: 0x379B8C, size: 0x8, addend: 0x0, symName: '__ZNSt3__110__function6__funcIZN19llama_memory_hybridC1ERK11llama_model9ggml_typeS6_bjjj14llama_swa_typeS6_S6_jjbbRKNS_8functionIFbiEEESC_E3$_1NS_9allocatorISD_EES9_ED1Ev', symObjAddr: 0x1EC0, symBinAddr: 0x60A20, symSize: 0x4 }
  - { offset: 0x379BB8, size: 0x8, addend: 0x0, symName: '__ZNSt3__110__function6__funcIZN19llama_memory_hybridC1ERK11llama_model9ggml_typeS6_bjjj14llama_swa_typeS6_S6_jjbbRKNS_8functionIFbiEEESC_E3$_1NS_9allocatorISD_EES9_ED0Ev', symObjAddr: 0x1EC4, symBinAddr: 0x60A24, symSize: 0x4 }
  - { offset: 0x379C6F, size: 0x8, addend: 0x0, symName: '__ZNKSt3__110__function6__funcIZN19llama_memory_hybridC1ERK11llama_model9ggml_typeS6_bjjj14llama_swa_typeS6_S6_jjbbRKNS_8functionIFbiEEESC_E3$_1NS_9allocatorISD_EES9_E7__cloneEv', symObjAddr: 0x1EC8, symBinAddr: 0x60A28, symSize: 0x34 }
  - { offset: 0x379DC1, size: 0x8, addend: 0x0, symName: '__ZNKSt3__110__function6__funcIZN19llama_memory_hybridC1ERK11llama_model9ggml_typeS6_bjjj14llama_swa_typeS6_S6_jjbbRKNS_8functionIFbiEEESC_E3$_1NS_9allocatorISD_EES9_E7__cloneEPNS0_6__baseIS9_EE', symObjAddr: 0x1EFC, symBinAddr: 0x60A5C, symSize: 0x14 }
  - { offset: 0x379E2E, size: 0x8, addend: 0x0, symName: '__ZNSt3__110__function6__funcIZN19llama_memory_hybridC1ERK11llama_model9ggml_typeS6_bjjj14llama_swa_typeS6_S6_jjbbRKNS_8functionIFbiEEESC_E3$_1NS_9allocatorISD_EES9_E7destroyEv', symObjAddr: 0x1F10, symBinAddr: 0x60A70, symSize: 0x4 }
  - { offset: 0x379E83, size: 0x8, addend: 0x0, symName: '__ZNSt3__110__function6__funcIZN19llama_memory_hybridC1ERK11llama_model9ggml_typeS6_bjjj14llama_swa_typeS6_S6_jjbbRKNS_8functionIFbiEEESC_E3$_1NS_9allocatorISD_EES9_E18destroy_deallocateEv', symObjAddr: 0x1F14, symBinAddr: 0x60A74, symSize: 0x4 }
  - { offset: 0x379EB8, size: 0x8, addend: 0x0, symName: '__ZNSt3__110__function6__funcIZN19llama_memory_hybridC1ERK11llama_model9ggml_typeS6_bjjj14llama_swa_typeS6_S6_jjbbRKNS_8functionIFbiEEESC_E3$_1NS_9allocatorISD_EES9_E18destroy_deallocateEv', symObjAddr: 0x1F14, symBinAddr: 0x60A74, symSize: 0x4 }
  - { offset: 0x379EDB, size: 0x8, addend: 0x0, symName: '__ZNSt3__110__function6__funcIZN19llama_memory_hybridC1ERK11llama_model9ggml_typeS6_bjjj14llama_swa_typeS6_S6_jjbbRKNS_8functionIFbiEEESC_E3$_1NS_9allocatorISD_EES9_E18destroy_deallocateEv', symObjAddr: 0x1F14, symBinAddr: 0x60A74, symSize: 0x4 }
  - { offset: 0x379F0E, size: 0x8, addend: 0x0, symName: '__ZNSt3__110__function6__funcIZN19llama_memory_hybridC1ERK11llama_model9ggml_typeS6_bjjj14llama_swa_typeS6_S6_jjbbRKNS_8functionIFbiEEESC_E3$_1NS_9allocatorISD_EES9_E18destroy_deallocateEv', symObjAddr: 0x1F14, symBinAddr: 0x60A74, symSize: 0x4 }
  - { offset: 0x379FB0, size: 0x8, addend: 0x0, symName: '__ZNSt3__110__function6__funcIZN19llama_memory_hybridC1ERK11llama_model9ggml_typeS6_bjjj14llama_swa_typeS6_S6_jjbbRKNS_8functionIFbiEEESC_E3$_1NS_9allocatorISD_EES9_EclEOi', symObjAddr: 0x1F18, symBinAddr: 0x60A78, symSize: 0x10 }
  - { offset: 0x37A059, size: 0x8, addend: 0x0, symName: '__ZNKSt3__110__function6__funcIZN19llama_memory_hybridC1ERK11llama_model9ggml_typeS6_bjjj14llama_swa_typeS6_S6_jjbbRKNS_8functionIFbiEEESC_E3$_1NS_9allocatorISD_EES9_E6targetERKSt9type_info', symObjAddr: 0x1F28, symBinAddr: 0x60A88, symSize: 0x64 }
  - { offset: 0x37A10D, size: 0x8, addend: 0x0, symName: '__ZNKSt3__110__function6__funcIZN19llama_memory_hybridC1ERK11llama_model9ggml_typeS6_bjjj14llama_swa_typeS6_S6_jjbbRKNS_8functionIFbiEEESC_E3$_1NS_9allocatorISD_EES9_E11target_typeEv', symObjAddr: 0x1F8C, symBinAddr: 0x60AEC, symSize: 0xC }
  - { offset: 0x3A4C33, size: 0x8, addend: 0x0, symName: __ZN22llama_memory_recurrentC2ERK11llama_model9ggml_typeS3_bjjRKNSt3__18functionIFbiEEE, symObjAddr: 0x0, symBinAddr: 0x60AF8, symSize: 0x788 }
  - { offset: 0x3A7746, size: 0x8, addend: 0x0, symName: __ZNSt3__16vectorIN22llama_memory_recurrent8mem_cellENS_9allocatorIS2_EEE8__appendEm, symObjAddr: 0x46EC, symBinAddr: 0x64CD0, symSize: 0x220 }
  - { offset: 0x3A7F42, size: 0x8, addend: 0x0, symName: __ZNSt3__16vectorIN22llama_memory_recurrent8mem_cellENS_9allocatorIS2_EEE20__throw_length_errorB8ne200100Ev, symObjAddr: 0x490C, symBinAddr: 0x64EF0, symSize: 0x14 }
  - { offset: 0x3A7F4D, size: 0x8, addend: 0x0, symName: __ZNSt3__16vectorIP11ggml_tensorNS_9allocatorIS2_EEE8__appendEm, symObjAddr: 0x4A48, symBinAddr: 0x64FB8, symSize: 0x120 }
  - { offset: 0x3A847B, size: 0x8, addend: 0x0, symName: __ZNSt3__16__treeINS_12__value_typeIP24ggml_backend_buffer_typeNS_10unique_ptrI12ggml_context20ggml_context_deleterEEEENS_19__map_value_compareIS3_S8_ZN22llama_memory_recurrentC1ERK11llama_model9ggml_typeSE_bjjRKNS_8functionIFbiEEEE28ggml_backend_buft_comparatorLb1EEENS_9allocatorIS8_EEE7destroyEPNS_11__tree_nodeIS8_PvEE, symObjAddr: 0x49F4, symBinAddr: 0x64F64, symSize: 0x54 }
  - { offset: 0x3A8845, size: 0x8, addend: 0x0, symName: __ZNSt3__16vectorIN22llama_memory_recurrent8mem_cellENS_9allocatorIS2_EEED1B8ne200100Ev, symObjAddr: 0x8C4, symBinAddr: 0x61338, symSize: 0x68 }
  - { offset: 0x3A8AA9, size: 0x8, addend: 0x0, symName: __ZNK22llama_memory_recurrent12size_r_bytesEv, symObjAddr: 0x788, symBinAddr: 0x61280, symSize: 0x5C }
  - { offset: 0x3A8B56, size: 0x8, addend: 0x0, symName: __ZNK22llama_memory_recurrent12size_s_bytesEv, symObjAddr: 0x7E4, symBinAddr: 0x612DC, symSize: 0x5C }
  - { offset: 0x3A90C7, size: 0x8, addend: 0x0, symName: __ZN22llama_memory_recurrentC1ERK11llama_model9ggml_typeS3_bjjRKNSt3__18functionIFbiEEE, symObjAddr: 0x92C, symBinAddr: 0x613A0, symSize: 0x4 }
  - { offset: 0x3A915B, size: 0x8, addend: 0x0, symName: __ZN22llama_memory_recurrentC1ERK11llama_model9ggml_typeS3_bjjRKNSt3__18functionIFbiEEE, symObjAddr: 0x92C, symBinAddr: 0x613A0, symSize: 0x4 }
  - { offset: 0x3A924D, size: 0x8, addend: 0x0, symName: __ZN22llama_memory_recurrent5clearEb, symObjAddr: 0x930, symBinAddr: 0x613A4, symSize: 0xCC }
  - { offset: 0x3A970B, size: 0x8, addend: 0x0, symName: __ZN22llama_memory_recurrent6seq_rmEiii, symObjAddr: 0x9FC, symBinAddr: 0x61470, symSize: 0x2F0 }
  - { offset: 0x3A9ECE, size: 0x8, addend: 0x0, symName: __ZN22llama_memory_recurrent6seq_cpEiiii, symObjAddr: 0xCEC, symBinAddr: 0x61760, symSize: 0x1E8 }
  - { offset: 0x3AA4D5, size: 0x8, addend: 0x0, symName: __ZN22llama_memory_recurrent8seq_keepEi, symObjAddr: 0xED4, symBinAddr: 0x61948, symSize: 0x1B8 }
  - { offset: 0x3AA921, size: 0x8, addend: 0x0, symName: __ZN22llama_memory_recurrent7seq_addEiiii, symObjAddr: 0x108C, symBinAddr: 0x61B00, symSize: 0xA0 }
  - { offset: 0x3AAAFC, size: 0x8, addend: 0x0, symName: __ZN22llama_memory_recurrent7seq_divEiiii, symObjAddr: 0x112C, symBinAddr: 0x61BA0, symSize: 0xA8 }
  - { offset: 0x3AAD42, size: 0x8, addend: 0x0, symName: __ZNK22llama_memory_recurrent11seq_pos_minEi, symObjAddr: 0x11D4, symBinAddr: 0x61C48, symSize: 0x8C }
  - { offset: 0x3AAF1A, size: 0x8, addend: 0x0, symName: __ZNK22llama_memory_recurrent11seq_pos_maxEi, symObjAddr: 0x1260, symBinAddr: 0x61CD4, symSize: 0x80 }
  - { offset: 0x3AB6A6, size: 0x8, addend: 0x0, symName: __ZNK22llama_memory_recurrent16memory_breakdownEv, symObjAddr: 0x12E0, symBinAddr: 0x61D54, symSize: 0x160 }
  - { offset: 0x3AC2DD, size: 0x8, addend: 0x0, symName: __ZN22llama_memory_recurrent10init_batchER18llama_batch_allocrjb, symObjAddr: 0x1440, symBinAddr: 0x61EB4, symSize: 0x474 }
  - { offset: 0x3AD240, size: 0x8, addend: 0x0, symName: __ZN22llama_memory_recurrent7prepareERKNSt3__16vectorI12llama_ubatchNS0_9allocatorIS2_EEEE, symObjAddr: 0x1910, symBinAddr: 0x62328, symSize: 0x128 }
  - { offset: 0x3AD904, size: 0x8, addend: 0x0, symName: __ZNSt3__16vectorIN22llama_memory_recurrent8mem_cellENS_9allocatorIS2_EEE16__init_with_sizeB8ne200100IPS2_S7_EEvT_T0_m, symObjAddr: 0x515C, symBinAddr: 0x650D8, symSize: 0x150 }
  - { offset: 0x3ADE0B, size: 0x8, addend: 0x0, symName: __ZN22llama_memory_recurrent9find_slotERK12llama_ubatch, symObjAddr: 0x1B70, symBinAddr: 0x624F0, symSize: 0xDD0 }
  - { offset: 0x3AF7A5, size: 0x8, addend: 0x0, symName: __ZN22llama_memory_recurrent9init_fullEv, symObjAddr: 0x1AD0, symBinAddr: 0x62450, symSize: 0x54 }
  - { offset: 0x3AF8A3, size: 0x8, addend: 0x0, symName: __ZN22llama_memory_recurrent11init_updateEP13llama_contextb, symObjAddr: 0x1B24, symBinAddr: 0x624A4, symSize: 0x4C }
  - { offset: 0x3AFD6E, size: 0x8, addend: 0x0, symName: __ZNK22llama_memory_recurrent13get_can_shiftEv, symObjAddr: 0x2940, symBinAddr: 0x632C0, symSize: 0x8 }
  - { offset: 0x3AFD94, size: 0x8, addend: 0x0, symName: __ZNK22llama_memory_recurrent10total_sizeEv, symObjAddr: 0x2948, symBinAddr: 0x632C8, symSize: 0x64 }
  - { offset: 0x3B05B0, size: 0x8, addend: 0x0, symName: __ZNK22llama_memory_recurrent11state_writeER16llama_io_write_iij, symObjAddr: 0x29AC, symBinAddr: 0x6332C, symSize: 0x4AC }
  - { offset: 0x3B138B, size: 0x8, addend: 0x0, symName: __ZNK22llama_memory_recurrent16state_write_metaER16llama_io_write_iRKNSt3__16vectorINS2_4pairIjjEENS2_9allocatorIS5_EEEEi, symObjAddr: 0x2E58, symBinAddr: 0x637D8, symSize: 0x15C }
  - { offset: 0x3B16AF, size: 0x8, addend: 0x0, symName: __ZNK22llama_memory_recurrent16state_write_dataER16llama_io_write_iRKNSt3__16vectorINS2_4pairIjjEENS2_9allocatorIS5_EEEE, symObjAddr: 0x2FB4, symBinAddr: 0x63934, symSize: 0x20C }
  - { offset: 0x3B1BD7, size: 0x8, addend: 0x0, symName: __ZN22llama_memory_recurrent10state_readER15llama_io_read_iij, symObjAddr: 0x31C0, symBinAddr: 0x63B40, symSize: 0xF8 }
  - { offset: 0x3B1CD6, size: 0x8, addend: 0x0, symName: __ZN22llama_memory_recurrent15state_read_metaER15llama_io_read_iji, symObjAddr: 0x32B8, symBinAddr: 0x63C38, symSize: 0x5F4 }
  - { offset: 0x3B261D, size: 0x8, addend: 0x0, symName: __ZN22llama_memory_recurrent15state_read_dataER15llama_io_read_ij, symObjAddr: 0x38AC, symBinAddr: 0x6422C, symSize: 0x568 }
  - { offset: 0x3B374F, size: 0x8, addend: 0x0, symName: __ZN30llama_memory_recurrent_contextC2E19llama_memory_status, symObjAddr: 0x3E14, symBinAddr: 0x64794, symSize: 0x24 }
  - { offset: 0x3B37B3, size: 0x8, addend: 0x0, symName: __ZN30llama_memory_recurrent_contextC1E19llama_memory_status, symObjAddr: 0x3E38, symBinAddr: 0x647B8, symSize: 0x24 }
  - { offset: 0x3B37DC, size: 0x8, addend: 0x0, symName: __ZN30llama_memory_recurrent_contextC1E19llama_memory_status, symObjAddr: 0x3E38, symBinAddr: 0x647B8, symSize: 0x24 }
  - { offset: 0x3B383B, size: 0x8, addend: 0x0, symName: __ZN30llama_memory_recurrent_contextC2EP22llama_memory_recurrent, symObjAddr: 0x3E5C, symBinAddr: 0x647DC, symSize: 0x2C }
  - { offset: 0x3B389F, size: 0x8, addend: 0x0, symName: __ZN30llama_memory_recurrent_contextC1EP22llama_memory_recurrent, symObjAddr: 0x3E88, symBinAddr: 0x64808, symSize: 0x2C }
  - { offset: 0x3B38C8, size: 0x8, addend: 0x0, symName: __ZN30llama_memory_recurrent_contextC1EP22llama_memory_recurrent, symObjAddr: 0x3E88, symBinAddr: 0x64808, symSize: 0x2C }
  - { offset: 0x3B3927, size: 0x8, addend: 0x0, symName: __ZN30llama_memory_recurrent_contextC2EP22llama_memory_recurrentNSt3__16vectorI12llama_ubatchNS2_9allocatorIS4_EEEE, symObjAddr: 0x3EB4, symBinAddr: 0x64834, symSize: 0x40 }
  - { offset: 0x3B39A2, size: 0x8, addend: 0x0, symName: __ZN30llama_memory_recurrent_contextC1EP22llama_memory_recurrentNSt3__16vectorI12llama_ubatchNS2_9allocatorIS4_EEEE, symObjAddr: 0x3EF4, symBinAddr: 0x64874, symSize: 0x40 }
  - { offset: 0x3B39D3, size: 0x8, addend: 0x0, symName: __ZN30llama_memory_recurrent_contextC1EP22llama_memory_recurrentNSt3__16vectorI12llama_ubatchNS2_9allocatorIS4_EEEE, symObjAddr: 0x3EF4, symBinAddr: 0x64874, symSize: 0x40 }
  - { offset: 0x3B3A49, size: 0x8, addend: 0x0, symName: __ZN30llama_memory_recurrent_contextD2Ev, symObjAddr: 0x3F34, symBinAddr: 0x648B4, symSize: 0xA4 }
  - { offset: 0x3B3CBA, size: 0x8, addend: 0x0, symName: __ZN30llama_memory_recurrent_contextD1Ev, symObjAddr: 0x3FD8, symBinAddr: 0x64958, symSize: 0xA4 }
  - { offset: 0x3B3F48, size: 0x8, addend: 0x0, symName: __ZN30llama_memory_recurrent_contextD0Ev, symObjAddr: 0x407C, symBinAddr: 0x649FC, symSize: 0xA4 }
  - { offset: 0x3B41E2, size: 0x8, addend: 0x0, symName: __ZN30llama_memory_recurrent_context4nextEv, symObjAddr: 0x4120, symBinAddr: 0x64AA0, symSize: 0x38 }
  - { offset: 0x3B4263, size: 0x8, addend: 0x0, symName: __ZN30llama_memory_recurrent_context5applyEv, symObjAddr: 0x4158, symBinAddr: 0x64AD8, symSize: 0x34 }
  - { offset: 0x3B428F, size: 0x8, addend: 0x0, symName: __ZN30llama_memory_recurrent_context5applyEv, symObjAddr: 0x4158, symBinAddr: 0x64AD8, symSize: 0x34 }
  - { offset: 0x3B42D7, size: 0x8, addend: 0x0, symName: __ZNK30llama_memory_recurrent_context10get_statusEv, symObjAddr: 0x418C, symBinAddr: 0x64B0C, symSize: 0x8 }
  - { offset: 0x3B4323, size: 0x8, addend: 0x0, symName: __ZNK30llama_memory_recurrent_context10get_ubatchEv, symObjAddr: 0x4194, symBinAddr: 0x64B14, symSize: 0x10 }
  - { offset: 0x3B4373, size: 0x8, addend: 0x0, symName: __ZNK30llama_memory_recurrent_context8get_n_rsEv, symObjAddr: 0x41A4, symBinAddr: 0x64B24, symSize: 0x20 }
  - { offset: 0x3B439D, size: 0x8, addend: 0x0, symName: __ZNK30llama_memory_recurrent_context8get_headEv, symObjAddr: 0x41C4, symBinAddr: 0x64B44, symSize: 0x1C }
  - { offset: 0x3B43C7, size: 0x8, addend: 0x0, symName: __ZNK30llama_memory_recurrent_context8get_rs_zEv, symObjAddr: 0x41E0, symBinAddr: 0x64B60, symSize: 0x1C }
  - { offset: 0x3B43F1, size: 0x8, addend: 0x0, symName: __ZNK30llama_memory_recurrent_context8get_sizeEv, symObjAddr: 0x41FC, symBinAddr: 0x64B7C, symSize: 0xC }
  - { offset: 0x3B441B, size: 0x8, addend: 0x0, symName: __ZNK30llama_memory_recurrent_context7get_r_lEi, symObjAddr: 0x4208, symBinAddr: 0x64B88, symSize: 0x10 }
  - { offset: 0x3B4472, size: 0x8, addend: 0x0, symName: __ZNK30llama_memory_recurrent_context7get_s_lEi, symObjAddr: 0x4218, symBinAddr: 0x64B98, symSize: 0x10 }
  - { offset: 0x3B44CA, size: 0x8, addend: 0x0, symName: __ZNK30llama_memory_recurrent_context6s_copyEi, symObjAddr: 0x4228, symBinAddr: 0x64BA8, symSize: 0x20 }
  - { offset: 0x3B4521, size: 0x8, addend: 0x0, symName: __ZN22llama_memory_recurrentD1Ev, symObjAddr: 0x4248, symBinAddr: 0x64BC8, symSize: 0x4 }
  - { offset: 0x3B4544, size: 0x8, addend: 0x0, symName: __ZN22llama_memory_recurrentD1Ev, symObjAddr: 0x4248, symBinAddr: 0x64BC8, symSize: 0x4 }
  - { offset: 0x3B4557, size: 0x8, addend: 0x0, symName: __ZN22llama_memory_recurrentD2Ev, symObjAddr: 0x45FC, symBinAddr: 0x64BE0, symSize: 0xF0 }
  - { offset: 0x3B4CEF, size: 0x8, addend: 0x0, symName: __ZN22llama_memory_recurrentD0Ev, symObjAddr: 0x424C, symBinAddr: 0x64BCC, symSize: 0x14 }
  - { offset: 0x3B5C48, size: 0x8, addend: 0x0, symName: __ZNSt3__16vectorIN22llama_memory_recurrent8mem_cellENS_9allocatorIS2_EEE20__throw_length_errorB8ne200100Ev, symObjAddr: 0x490C, symBinAddr: 0x64EF0, symSize: 0x14 }
  - { offset: 0x3B5D62, size: 0x8, addend: 0x0, symName: __ZNSt3__128__exception_guard_exceptionsINS_29_AllocatorDestroyRangeReverseINS_9allocatorIN22llama_memory_recurrent8mem_cellEEEPS4_EEED1B8ne200100Ev, symObjAddr: 0x4994, symBinAddr: 0x64F04, symSize: 0x60 }
  - { offset: 0x3B64CE, size: 0x8, addend: 0x0, symName: __ZNSt3__16vectorIN22llama_memory_recurrent8mem_cellENS_9allocatorIS2_EEE16__init_with_sizeB8ne200100IPS2_S7_EEvT_T0_m, symObjAddr: 0x515C, symBinAddr: 0x650D8, symSize: 0x150 }
  - { offset: 0x3B6764, size: 0x8, addend: 0x0, symName: __ZNSt3__13setIiNS_4lessIiEENS_9allocatorIiEEE6insertB8ne200100INS_21__tree_const_iteratorIiPNS_11__tree_nodeIiPvEElEEEEvT_SD_, symObjAddr: 0x5324, symBinAddr: 0x652A0, symSize: 0xF8 }
  - { offset: 0x3B67AA, size: 0x8, addend: 0x0, symName: __ZNSt3__13setIiNS_4lessIiEENS_9allocatorIiEEE6insertB8ne200100INS_21__tree_const_iteratorIiPNS_11__tree_nodeIiPvEElEEEEvT_SD_, symObjAddr: 0x5324, symBinAddr: 0x652A0, symSize: 0xF8 }
  - { offset: 0x3B6A83, size: 0x8, addend: 0x0, symName: __ZNSt3__128__exception_guard_exceptionsINS_6vectorIN22llama_memory_recurrent8mem_cellENS_9allocatorIS3_EEE16__destroy_vectorEED1B8ne200100Ev, symObjAddr: 0x52AC, symBinAddr: 0x65228, symSize: 0x78 }
  - { offset: 0x3B6AB0, size: 0x8, addend: 0x0, symName: __ZNSt3__128__exception_guard_exceptionsINS_6vectorIN22llama_memory_recurrent8mem_cellENS_9allocatorIS3_EEE16__destroy_vectorEED1B8ne200100Ev, symObjAddr: 0x52AC, symBinAddr: 0x65228, symSize: 0x78 }
  - { offset: 0x3B6E13, size: 0x8, addend: 0x0, symName: __ZNSt3__16__treeIiNS_4lessIiEENS_9allocatorIiEEE12__find_equalIiEERPNS_16__tree_node_baseIPvEENS_21__tree_const_iteratorIiPNS_11__tree_nodeIiS8_EElEERPNS_15__tree_end_nodeISA_EESB_RKT_, symObjAddr: 0x541C, symBinAddr: 0x65398, symSize: 0x1B0 }
  - { offset: 0x3B6E76, size: 0x8, addend: 0x0, symName: __ZNSt3__16__treeIiNS_4lessIiEENS_9allocatorIiEEE12__find_equalIiEERPNS_16__tree_node_baseIPvEENS_21__tree_const_iteratorIiPNS_11__tree_nodeIiS8_EElEERPNS_15__tree_end_nodeISA_EESB_RKT_, symObjAddr: 0x541C, symBinAddr: 0x65398, symSize: 0x1B0 }
  - { offset: 0x3B6E92, size: 0x8, addend: 0x0, symName: __ZNSt3__16__treeIiNS_4lessIiEENS_9allocatorIiEEE12__find_equalIiEERPNS_16__tree_node_baseIPvEENS_21__tree_const_iteratorIiPNS_11__tree_nodeIiS8_EElEERPNS_15__tree_end_nodeISA_EESB_RKT_, symObjAddr: 0x541C, symBinAddr: 0x65398, symSize: 0x1B0 }
  - { offset: 0x3B9051, size: 0x8, addend: 0x0, symName: __Z27llama_memory_status_combine19llama_memory_statusS_, symObjAddr: 0x0, symBinAddr: 0x65548, symSize: 0x38 }
  - { offset: 0x3B9066, size: 0x8, addend: 0x0, symName: __Z27llama_memory_status_combine19llama_memory_statusS_, symObjAddr: 0x0, symBinAddr: 0x65548, symSize: 0x38 }
  - { offset: 0x3B90B2, size: 0x8, addend: 0x0, symName: __Z27llama_memory_status_is_fail19llama_memory_status, symObjAddr: 0x38, symBinAddr: 0x65580, symSize: 0x10 }
  - { offset: 0x3BBC41, size: 0x8, addend: 0x0, symName: __ZN10llama_mmap9SUPPORTEDE, symObjAddr: 0x1B24, symBinAddr: 0x2AE9CA, symSize: 0x0 }
  - { offset: 0x3C1352, size: 0x8, addend: 0x0, symName: __ZN11llama_mlock9SUPPORTEDE, symObjAddr: 0x1B25, symBinAddr: 0x2AE9CB, symSize: 0x0 }
  - { offset: 0x3C159A, size: 0x8, addend: 0x0, symName: __ZN10llama_fileC2EPKcS1_b, symObjAddr: 0x0, symBinAddr: 0x65590, symSize: 0x70 }
  - { offset: 0x3C1683, size: 0x8, addend: 0x0, symName: __ZN10llama_file4implC2EPKcS2_b, symObjAddr: 0x150C, symBinAddr: 0x669F0, symSize: 0xF0 }
  - { offset: 0x3C1A92, size: 0x8, addend: 0x0, symName: __ZN10llama_fileC1EPKcS1_b, symObjAddr: 0x70, symBinAddr: 0x65600, symSize: 0x70 }
  - { offset: 0x3C1D60, size: 0x8, addend: 0x0, symName: __ZN10llama_fileD2Ev, symObjAddr: 0xE0, symBinAddr: 0x65670, symSize: 0x6C }
  - { offset: 0x3C1F7E, size: 0x8, addend: 0x0, symName: __ZN10llama_fileD1Ev, symObjAddr: 0x14C, symBinAddr: 0x656DC, symSize: 0x6C }
  - { offset: 0x3C2196, size: 0x8, addend: 0x0, symName: __ZNK10llama_file4tellEv, symObjAddr: 0x1B8, symBinAddr: 0x65748, symSize: 0x8 }
  - { offset: 0x3C21C2, size: 0x8, addend: 0x0, symName: __ZNK10llama_file4tellEv, symObjAddr: 0x1B8, symBinAddr: 0x65748, symSize: 0x8 }
  - { offset: 0x3C21EB, size: 0x8, addend: 0x0, symName: __ZNK10llama_file4impl4tellEv, symObjAddr: 0x1C0, symBinAddr: 0x65750, symSize: 0x158 }
  - { offset: 0x3C2483, size: 0x8, addend: 0x0, symName: __ZNK10llama_file4sizeEv, symObjAddr: 0x318, symBinAddr: 0x658A8, symSize: 0xC }
  - { offset: 0x3C24A7, size: 0x8, addend: 0x0, symName: __ZNK10llama_file4sizeEv, symObjAddr: 0x318, symBinAddr: 0x658A8, symSize: 0xC }
  - { offset: 0x3C24DE, size: 0x8, addend: 0x0, symName: __ZNK10llama_file14read_alignmentEv, symObjAddr: 0x324, symBinAddr: 0x658B4, symSize: 0xC }
  - { offset: 0x3C250A, size: 0x8, addend: 0x0, symName: __ZNK10llama_file14read_alignmentEv, symObjAddr: 0x324, symBinAddr: 0x658B4, symSize: 0xC }
  - { offset: 0x3C2558, size: 0x8, addend: 0x0, symName: __ZNK10llama_file13has_direct_ioEv, symObjAddr: 0x330, symBinAddr: 0x658C0, symSize: 0x28 }
  - { offset: 0x3C2584, size: 0x8, addend: 0x0, symName: __ZNK10llama_file13has_direct_ioEv, symObjAddr: 0x330, symBinAddr: 0x658C0, symSize: 0x28 }
  - { offset: 0x3C25BE, size: 0x8, addend: 0x0, symName: __ZNK10llama_file7file_idEv, symObjAddr: 0x358, symBinAddr: 0x658E8, symSize: 0x1C }
  - { offset: 0x3C25E2, size: 0x8, addend: 0x0, symName: __ZNK10llama_file7file_idEv, symObjAddr: 0x358, symBinAddr: 0x658E8, symSize: 0x1C }
  - { offset: 0x3C261E, size: 0x8, addend: 0x0, symName: __ZNK10llama_file4seekEmi, symObjAddr: 0x374, symBinAddr: 0x65904, symSize: 0x8 }
  - { offset: 0x3C2666, size: 0x8, addend: 0x0, symName: __ZNK10llama_file4seekEmi, symObjAddr: 0x374, symBinAddr: 0x65904, symSize: 0x8 }
  - { offset: 0x3C269E, size: 0x8, addend: 0x0, symName: __ZNK10llama_file4impl4seekEmi, symObjAddr: 0x37C, symBinAddr: 0x6590C, symSize: 0xEC }
  - { offset: 0x3C288F, size: 0x8, addend: 0x0, symName: __ZN10llama_file8read_rawEPvm, symObjAddr: 0x468, symBinAddr: 0x659F8, symSize: 0x24 }
  - { offset: 0x3C28D7, size: 0x8, addend: 0x0, symName: __ZN10llama_file8read_rawEPvm, symObjAddr: 0x468, symBinAddr: 0x659F8, symSize: 0x24 }
  - { offset: 0x3C2948, size: 0x8, addend: 0x0, symName: __ZN10llama_file4impl18read_aligned_chunkEPvm, symObjAddr: 0x11D8, symBinAddr: 0x66768, symSize: 0x15C }
  - { offset: 0x3C2CA4, size: 0x8, addend: 0x0, symName: __ZN10llama_file4impl15read_raw_unsafeEPvm, symObjAddr: 0x494, symBinAddr: 0x65A24, symSize: 0x378 }
  - { offset: 0x3C307C, size: 0x8, addend: 0x0, symName: __ZN10llama_file15read_raw_unsafeEPvm, symObjAddr: 0x48C, symBinAddr: 0x65A1C, symSize: 0x8 }
  - { offset: 0x3C30C4, size: 0x8, addend: 0x0, symName: __ZN10llama_file15read_raw_unsafeEPvm, symObjAddr: 0x48C, symBinAddr: 0x65A1C, symSize: 0x8 }
  - { offset: 0x3C3113, size: 0x8, addend: 0x0, symName: __ZN10llama_file4impl7init_fpEPKc, symObjAddr: 0x1344, symBinAddr: 0x668C4, symSize: 0x118 }
  - { offset: 0x3C3483, size: 0x8, addend: 0x0, symName: __ZN10llama_file8read_u32Ev, symObjAddr: 0x80C, symBinAddr: 0x65D9C, symSize: 0x64 }
  - { offset: 0x3C3560, size: 0x8, addend: 0x0, symName: __ZNK10llama_file9write_rawEPKvm, symObjAddr: 0x870, symBinAddr: 0x65E00, symSize: 0x8 }
  - { offset: 0x3C35A8, size: 0x8, addend: 0x0, symName: __ZNK10llama_file9write_rawEPKvm, symObjAddr: 0x870, symBinAddr: 0x65E00, symSize: 0x8 }
  - { offset: 0x3C35E0, size: 0x8, addend: 0x0, symName: __ZNK10llama_file4impl9write_rawEPKvm, symObjAddr: 0x878, symBinAddr: 0x65E08, symSize: 0xF0 }
  - { offset: 0x3C37E1, size: 0x8, addend: 0x0, symName: __ZNK10llama_file9write_u32Ej, symObjAddr: 0x968, symBinAddr: 0x65EF8, symSize: 0x2C }
  - { offset: 0x3C392E, size: 0x8, addend: 0x0, symName: __ZN10llama_mmapC2EP10llama_filemb, symObjAddr: 0x994, symBinAddr: 0x65F24, symSize: 0x70 }
  - { offset: 0x3C3A17, size: 0x8, addend: 0x0, symName: __ZN10llama_mmap4implC2EP10llama_filemb, symObjAddr: 0x1610, symBinAddr: 0x66AE0, symSize: 0x298 }
  - { offset: 0x3C4352, size: 0x8, addend: 0x0, symName: __ZN10llama_mmapC1EP10llama_filemb, symObjAddr: 0xA04, symBinAddr: 0x65F94, symSize: 0x70 }
  - { offset: 0x3C4531, size: 0x8, addend: 0x0, symName: __ZN10llama_mmapD2Ev, symObjAddr: 0xA74, symBinAddr: 0x66004, symSize: 0x3C }
  - { offset: 0x3C4612, size: 0x8, addend: 0x0, symName: __ZN10llama_mmap4implD2Ev, symObjAddr: 0x18A8, symBinAddr: 0x66D78, symSize: 0xA4 }
  - { offset: 0x3C4833, size: 0x8, addend: 0x0, symName: __ZN10llama_mmapD1Ev, symObjAddr: 0xAB0, symBinAddr: 0x66040, symSize: 0x3C }
  - { offset: 0x3C495B, size: 0x8, addend: 0x0, symName: __ZNK10llama_mmap4sizeEv, symObjAddr: 0xAEC, symBinAddr: 0x6607C, symSize: 0xC }
  - { offset: 0x3C4987, size: 0x8, addend: 0x0, symName: __ZNK10llama_mmap4sizeEv, symObjAddr: 0xAEC, symBinAddr: 0x6607C, symSize: 0xC }
  - { offset: 0x3C49A2, size: 0x8, addend: 0x0, symName: __ZNK10llama_mmap4addrEv, symObjAddr: 0xAF8, symBinAddr: 0x66088, symSize: 0xC }
  - { offset: 0x3C49CE, size: 0x8, addend: 0x0, symName: __ZNK10llama_mmap4addrEv, symObjAddr: 0xAF8, symBinAddr: 0x66088, symSize: 0xC }
  - { offset: 0x3C49E9, size: 0x8, addend: 0x0, symName: __ZN10llama_mmap14unmap_fragmentEmm, symObjAddr: 0xB04, symBinAddr: 0x66094, symSize: 0x8 }
  - { offset: 0x3C4A31, size: 0x8, addend: 0x0, symName: __ZN10llama_mmap14unmap_fragmentEmm, symObjAddr: 0xB04, symBinAddr: 0x66094, symSize: 0x8 }
  - { offset: 0x3C4A69, size: 0x8, addend: 0x0, symName: __ZN10llama_mmap4impl14unmap_fragmentEmm, symObjAddr: 0xB0C, symBinAddr: 0x6609C, symSize: 0x4AC }
  - { offset: 0x3C63D3, size: 0x8, addend: 0x0, symName: __ZNSt3__16vectorINS_4pairImmEENS_9allocatorIS2_EEE20__throw_length_errorB8ne200100Ev, symObjAddr: 0x145C, symBinAddr: 0x669DC, symSize: 0x14 }
  - { offset: 0x3C64AA, size: 0x8, addend: 0x0, symName: __ZN11llama_mlockC2Ev, symObjAddr: 0xFB8, symBinAddr: 0x66548, symSize: 0x34 }
  - { offset: 0x3C6586, size: 0x8, addend: 0x0, symName: __ZN11llama_mlockC1Ev, symObjAddr: 0xFEC, symBinAddr: 0x6657C, symSize: 0x34 }
  - { offset: 0x3C66F1, size: 0x8, addend: 0x0, symName: __ZN11llama_mlockD2Ev, symObjAddr: 0x1020, symBinAddr: 0x665B0, symSize: 0x34 }
  - { offset: 0x3C6715, size: 0x8, addend: 0x0, symName: __ZN11llama_mlockD2Ev, symObjAddr: 0x1020, symBinAddr: 0x665B0, symSize: 0x34 }
  - { offset: 0x3C6733, size: 0x8, addend: 0x0, symName: __ZN11llama_mlockD2Ev, symObjAddr: 0x1020, symBinAddr: 0x665B0, symSize: 0x34 }
  - { offset: 0x3C6751, size: 0x8, addend: 0x0, symName: __ZN11llama_mlockD2Ev, symObjAddr: 0x1020, symBinAddr: 0x665B0, symSize: 0x34 }
  - { offset: 0x3C67C5, size: 0x8, addend: 0x0, symName: __ZN11llama_mlockD1Ev, symObjAddr: 0x1054, symBinAddr: 0x665E4, symSize: 0x34 }
  - { offset: 0x3C67F5, size: 0x8, addend: 0x0, symName: __ZN11llama_mlockD1Ev, symObjAddr: 0x1054, symBinAddr: 0x665E4, symSize: 0x34 }
  - { offset: 0x3C6813, size: 0x8, addend: 0x0, symName: __ZN11llama_mlockD1Ev, symObjAddr: 0x1054, symBinAddr: 0x665E4, symSize: 0x34 }
  - { offset: 0x3C6831, size: 0x8, addend: 0x0, symName: __ZN11llama_mlockD1Ev, symObjAddr: 0x1054, symBinAddr: 0x665E4, symSize: 0x34 }
  - { offset: 0x3C684F, size: 0x8, addend: 0x0, symName: __ZN11llama_mlockD1Ev, symObjAddr: 0x1054, symBinAddr: 0x665E4, symSize: 0x34 }
  - { offset: 0x3C68E5, size: 0x8, addend: 0x0, symName: __ZN11llama_mlock4initEPv, symObjAddr: 0x1088, symBinAddr: 0x66618, symSize: 0x4C }
  - { offset: 0x3C6921, size: 0x8, addend: 0x0, symName: __ZN11llama_mlock4initEPv, symObjAddr: 0x1088, symBinAddr: 0x66618, symSize: 0x4C }
  - { offset: 0x3C6955, size: 0x8, addend: 0x0, symName: __ZN11llama_mlock7grow_toEm, symObjAddr: 0x10D4, symBinAddr: 0x66664, symSize: 0x8 }
  - { offset: 0x3C6968, size: 0x8, addend: 0x0, symName: __ZN11llama_mlock7grow_toEm, symObjAddr: 0x10D4, symBinAddr: 0x66664, symSize: 0x8 }
  - { offset: 0x3C69A2, size: 0x8, addend: 0x0, symName: __ZN11llama_mlock7grow_toEm, symObjAddr: 0x10D4, symBinAddr: 0x66664, symSize: 0x8 }
  - { offset: 0x3C69D3, size: 0x8, addend: 0x0, symName: __ZN11llama_mlock4impl7grow_toEm, symObjAddr: 0x10DC, symBinAddr: 0x6666C, symSize: 0xF4 }
  - { offset: 0x3C6ACB, size: 0x8, addend: 0x0, symName: __Z14llama_path_maxv, symObjAddr: 0x11D0, symBinAddr: 0x66760, symSize: 0x8 }
  - { offset: 0x3C6B48, size: 0x8, addend: 0x0, symName: __Z14llama_path_maxv, symObjAddr: 0x11D0, symBinAddr: 0x66760, symSize: 0x8 }
  - { offset: 0x3C6F0F, size: 0x8, addend: 0x0, symName: __ZN10llama_mmap4implC2EP10llama_filemb, symObjAddr: 0x1610, symBinAddr: 0x66AE0, symSize: 0x298 }
  - { offset: 0x3E9068, size: 0x8, addend: 0x0, symName: __ZNSt3__120__throw_future_errorB8ne200100ENS_11future_errcE, symObjAddr: 0xBC2C, symBinAddr: 0x71F44, symSize: 0x5C }
  - { offset: 0x3EA16D, size: 0x8, addend: 0x0, symName: '__ZNSt3__114__thread_proxyB8ne200100INS_5tupleIJNS_10unique_ptrINS_15__thread_structENS_14default_deleteIS3_EEEEMNS_19__async_assoc_stateINS_4pairIP11ggml_tensorbEENS_12__async_funcIZN18llama_model_loader13load_all_dataEP12ggml_contextRNS_13unordered_mapIjP19ggml_backend_bufferNS_4hashIjEENS_8equal_toIjEENS_9allocatorINS8_IKjSI_EEEEEEPNS_6vectorINS2_I11llama_mlockNS4_ISU_EEEENSN_ISW_EEEEPFbfPvES10_E3$_0JEEEEEFvvEPS15_EEEEES10_S10_', symObjAddr: 0xBC88, symBinAddr: 0x71FA0, symSize: 0x8C }
  - { offset: 0x3EA539, size: 0x8, addend: 0x0, symName: '__ZNSt3__114__thread_proxyB8ne200100INS_5tupleIJNS_10unique_ptrINS_15__thread_structENS_14default_deleteIS3_EEEEMNS_19__async_assoc_stateINS_4pairIP11ggml_tensorbEENS_12__async_funcIZN18llama_model_loader13load_all_dataEP12ggml_contextRNS_13unordered_mapIjP19ggml_backend_bufferNS_4hashIjEENS_8equal_toIjEENS_9allocatorINS8_IKjSI_EEEEEEPNS_6vectorINS2_I11llama_mlockNS4_ISU_EEEENSN_ISW_EEEEPFbfPvES10_E3$_1JEEEEEFvvEPS15_EEEEES10_S10_', symObjAddr: 0xBF94, symBinAddr: 0x722AC, symSize: 0x8C }
  - { offset: 0x3EF1DC, size: 0x8, addend: 0x0, symName: __ZN18llama_model_loader13load_all_dataEP12ggml_contextRNSt3__113unordered_mapIjP19ggml_backend_bufferNS2_4hashIjEENS2_8equal_toIjEENS2_9allocatorINS2_4pairIKjS5_EEEEEEPNS2_6vectorINS2_10unique_ptrI11llama_mlockNS2_14default_deleteISJ_EEEENSA_ISM_EEEEPFbfPvESQ_, symObjAddr: 0x5E50, symBinAddr: 0x6CB24, symSize: 0x1A48 }
  - { offset: 0x3F395D, size: 0x8, addend: 0x0, symName: __Z23llama_file_version_name10llama_fver, symObjAddr: 0x0, symBinAddr: 0x66E1C, symSize: 0x28 }
  - { offset: 0x3F3A4A, size: 0x8, addend: 0x0, symName: __ZN18llama_model_loader9get_arr_nIjEENSt3__19enable_ifIXsr3std11is_integralIT_EE5valueEbE4typeE6llm_kvRS3_b, symObjAddr: 0x28, symBinAddr: 0x66E44, symSize: 0xA0 }
  - { offset: 0x3F3CD6, size: 0x8, addend: 0x0, symName: __ZN18llama_model_loader9get_arr_nIjEENSt3__19enable_ifIXsr3std11is_integralIT_EE5valueEbE4typeERKNS1_12basic_stringIcNS1_11char_traitsIcEENS1_9allocatorIcEEEERS3_b, symObjAddr: 0xC8, symBinAddr: 0x66EE4, symSize: 0x128 }
  - { offset: 0x3F4047, size: 0x8, addend: 0x0, symName: __ZN8GGUFMeta3GKVINS_9ArrayInfoEE6get_kvEPK12gguf_contexti, symObjAddr: 0x8290, symBinAddr: 0x6EE18, symSize: 0x150 }
  - { offset: 0x3F4283, size: 0x8, addend: 0x0, symName: __ZN18llama_model_loader7get_arrINSt3__16vectorINS1_12basic_stringIcNS1_11char_traitsIcEENS1_9allocatorIcEEEENS6_IS8_EEEEEEb6llm_kvRT_b, symObjAddr: 0x1F0, symBinAddr: 0x6700C, symSize: 0xA0 }
  - { offset: 0x3F450F, size: 0x8, addend: 0x0, symName: __ZN18llama_model_loader7get_arrINSt3__112basic_stringIcNS1_11char_traitsIcEENS1_9allocatorIcEEEEEEbRKS7_RNS1_6vectorIT_NS5_ISB_EEEEb, symObjAddr: 0x290, symBinAddr: 0x670AC, symSize: 0x3B0 }
  - { offset: 0x3F5A3A, size: 0x8, addend: 0x0, symName: __ZNSt3__112__hash_tableINS_17__hash_value_typeINS_12basic_stringIcNS_11char_traitsIcEENS_9allocatorIcEEEE23llama_model_kv_overrideEENS_22__unordered_map_hasherIS7_S9_NS_4hashIS7_EENS_8equal_toIS7_EELb1EEENS_21__unordered_map_equalIS7_S9_SE_SC_Lb1EEENS5_IS9_EEE4findIS7_EENS_15__hash_iteratorIPNS_11__hash_nodeIS9_PvEEEERKT_, symObjAddr: 0x85BC, symBinAddr: 0x6EF68, symSize: 0x1B4 }
  - { offset: 0x3F5A7A, size: 0x8, addend: 0x0, symName: __ZN18llama_model_loader7get_keyIbEEb6llm_kvRT_b, symObjAddr: 0x640, symBinAddr: 0x6745C, symSize: 0xA0 }
  - { offset: 0x3F5D06, size: 0x8, addend: 0x0, symName: __ZN18llama_model_loader7get_keyIbEEbRKNSt3__112basic_stringIcNS1_11char_traitsIcEENS1_9allocatorIcEEEERT_b, symObjAddr: 0x6E0, symBinAddr: 0x674FC, symSize: 0x15C }
  - { offset: 0x3F61C7, size: 0x8, addend: 0x0, symName: __ZNSt3__112__hash_tableINS_17__hash_value_typeINS_12basic_stringIcNS_11char_traitsIcEENS_9allocatorIcEEEE23llama_model_kv_overrideEENS_22__unordered_map_hasherIS7_S9_NS_4hashIS7_EENS_8equal_toIS7_EELb1EEENS_21__unordered_map_equalIS7_S9_SE_SC_Lb1EEENS5_IS9_EEE4findIS7_EENS_15__hash_iteratorIPNS_11__hash_nodeIS9_PvEEEERKT_, symObjAddr: 0x85BC, symBinAddr: 0x6EF68, symSize: 0x1B4 }
  - { offset: 0x3F64D0, size: 0x8, addend: 0x0, symName: __ZN8GGUFMeta3GKVIbE17validate_overrideE28llama_model_kv_override_typePK23llama_model_kv_override, symObjAddr: 0x8CBC, symBinAddr: 0x6F21C, symSize: 0x240 }
  - { offset: 0x3F66B2, size: 0x8, addend: 0x0, symName: __ZN8GGUFMeta3GKVIbE6get_kvEPK12gguf_contexti, symObjAddr: 0x8BBC, symBinAddr: 0x6F11C, symSize: 0x100 }
  - { offset: 0x3F6883, size: 0x8, addend: 0x0, symName: __ZN18llama_model_loader7get_keyIfEEb6llm_kvRT_b, symObjAddr: 0x83C, symBinAddr: 0x67658, symSize: 0xA0 }
  - { offset: 0x3F6B0F, size: 0x8, addend: 0x0, symName: __ZN18llama_model_loader7get_keyIfEEbRKNSt3__112basic_stringIcNS1_11char_traitsIcEENS1_9allocatorIcEEEERT_b, symObjAddr: 0x8DC, symBinAddr: 0x676F8, symSize: 0x160 }
  - { offset: 0x3F6FA8, size: 0x8, addend: 0x0, symName: __ZN8GGUFMeta3GKVIfE17validate_overrideE28llama_model_kv_override_typePK23llama_model_kv_override, symObjAddr: 0x8FFC, symBinAddr: 0x6F55C, symSize: 0x240 }
  - { offset: 0x3F718A, size: 0x8, addend: 0x0, symName: __ZN8GGUFMeta3GKVIfE6get_kvEPK12gguf_contexti, symObjAddr: 0x8EFC, symBinAddr: 0x6F45C, symSize: 0x100 }
  - { offset: 0x3F735B, size: 0x8, addend: 0x0, symName: __ZN18llama_model_loader7get_keyIjEEb6llm_kvRT_b, symObjAddr: 0xA3C, symBinAddr: 0x67858, symSize: 0xA0 }
  - { offset: 0x3F75C4, size: 0x8, addend: 0x0, symName: __ZN18llama_model_loader7get_keyIjEEbRKNSt3__112basic_stringIcNS1_11char_traitsIcEENS1_9allocatorIcEEEERT_b, symObjAddr: 0xADC, symBinAddr: 0x678F8, symSize: 0x15C }
  - { offset: 0x3F7A5D, size: 0x8, addend: 0x0, symName: __ZN8GGUFMeta3GKVIjE17validate_overrideE28llama_model_kv_override_typePK23llama_model_kv_override, symObjAddr: 0x933C, symBinAddr: 0x6F89C, symSize: 0x240 }
  - { offset: 0x3F7C3F, size: 0x8, addend: 0x0, symName: __ZN8GGUFMeta3GKVIjE6get_kvEPK12gguf_contexti, symObjAddr: 0x923C, symBinAddr: 0x6F79C, symSize: 0x100 }
  - { offset: 0x3F7E10, size: 0x8, addend: 0x0, symName: __ZN18llama_model_loader7get_keyINSt3__112basic_stringIcNS1_11char_traitsIcEENS1_9allocatorIcEEEEEEb6llm_kvRT_b, symObjAddr: 0xC38, symBinAddr: 0x67A54, symSize: 0xA0 }
  - { offset: 0x3F809C, size: 0x8, addend: 0x0, symName: __ZN18llama_model_loader7get_keyINSt3__112basic_stringIcNS1_11char_traitsIcEENS1_9allocatorIcEEEEEEbRKS7_RT_b, symObjAddr: 0xCD8, symBinAddr: 0x67AF4, symSize: 0x184 }
  - { offset: 0x3F86EC, size: 0x8, addend: 0x0, symName: __ZN8GGUFMeta3GKVINSt3__112basic_stringIcNS1_11char_traitsIcEENS1_9allocatorIcEEEEE17validate_overrideE28llama_model_kv_override_typePK23llama_model_kv_override, symObjAddr: 0x9700, symBinAddr: 0x6FC60, symSize: 0x240 }
  - { offset: 0x3F88CE, size: 0x8, addend: 0x0, symName: __ZN8GGUFMeta3GKVINSt3__112basic_stringIcNS1_11char_traitsIcEENS1_9allocatorIcEEEEE6get_kvEPK12gguf_contexti, symObjAddr: 0x957C, symBinAddr: 0x6FADC, symSize: 0x184 }
  - { offset: 0x3F8D64, size: 0x8, addend: 0x0, symName: __ZN18llama_model_loader7get_keyI18llama_pooling_typeEEb6llm_kvRT_b, symObjAddr: 0xE5C, symBinAddr: 0x67C78, symSize: 0xA0 }
  - { offset: 0x3F9052, size: 0x8, addend: 0x0, symName: __ZN18llama_model_loader14get_key_or_arrE6llm_kvRjb, symObjAddr: 0xEFC, symBinAddr: 0x67D18, symSize: 0x1FC }
  - { offset: 0x3F9640, size: 0x8, addend: 0x0, symName: __ZN18llama_model_loader14get_key_or_arrINSt3__15arrayIiLm4EEEEEb6llm_kvRT_jb, symObjAddr: 0x10F8, symBinAddr: 0x67F14, symSize: 0xA8 }
  - { offset: 0x3F98E2, size: 0x8, addend: 0x0, symName: __ZN18llama_model_loader14get_key_or_arrIiLm4EEEbRKNSt3__112basic_stringIcNS1_11char_traitsIcEENS1_9allocatorIcEEEERNS1_5arrayIT_XT0_EEEjb, symObjAddr: 0x11A0, symBinAddr: 0x67FBC, symSize: 0x32C }
  - { offset: 0x3F9FB2, size: 0x8, addend: 0x0, symName: __ZN18llama_model_loader7get_arrIiLm4EEEbRKNSt3__112basic_stringIcNS1_11char_traitsIcEENS1_9allocatorIcEEEERNS1_5arrayIT_XT0_EEEb, symObjAddr: 0x9940, symBinAddr: 0x6FEA0, symSize: 0x320 }
  - { offset: 0x3FA653, size: 0x8, addend: 0x0, symName: __ZN18llama_model_loader7get_keyIiEEbRKNSt3__112basic_stringIcNS1_11char_traitsIcEENS1_9allocatorIcEEEERT_b, symObjAddr: 0x4744, symBinAddr: 0x6B418, symSize: 0x15C }
  - { offset: 0x3FAA1F, size: 0x8, addend: 0x0, symName: __ZN18llama_model_loader14get_key_or_arrINSt3__15arrayIjLm512EEEEEb6llm_kvRT_jb, symObjAddr: 0x14CC, symBinAddr: 0x682E8, symSize: 0xA8 }
  - { offset: 0x3FACC1, size: 0x8, addend: 0x0, symName: __ZN18llama_model_loader14get_key_or_arrIjLm512EEEbRKNSt3__112basic_stringIcNS1_11char_traitsIcEENS1_9allocatorIcEEEERNS1_5arrayIT_XT0_EEEjb, symObjAddr: 0x1574, symBinAddr: 0x68390, symSize: 0x34C }
  - { offset: 0x3FB392, size: 0x8, addend: 0x0, symName: __ZN18llama_model_loader7get_arrIjLm512EEEbRKNSt3__112basic_stringIcNS1_11char_traitsIcEENS1_9allocatorIcEEEERNS1_5arrayIT_XT0_EEEb, symObjAddr: 0x9C60, symBinAddr: 0x701C0, symSize: 0x880 }
  - { offset: 0x3FBA2E, size: 0x8, addend: 0x0, symName: __ZN18llama_model_loader14get_key_or_arrINSt3__15arrayIfLm512EEEEEb6llm_kvRT_jb, symObjAddr: 0x18C0, symBinAddr: 0x686DC, symSize: 0xA8 }
  - { offset: 0x3FBCD0, size: 0x8, addend: 0x0, symName: __ZN18llama_model_loader14get_key_or_arrIfLm512EEEbRKNSt3__112basic_stringIcNS1_11char_traitsIcEENS1_9allocatorIcEEEERNS1_5arrayIT_XT0_EEEjb, symObjAddr: 0x1968, symBinAddr: 0x68784, symSize: 0x350 }
  - { offset: 0x3FC3A1, size: 0x8, addend: 0x0, symName: __ZN18llama_model_loader7get_arrIfLm512EEEbRKNSt3__112basic_stringIcNS1_11char_traitsIcEENS1_9allocatorIcEEEERNS1_5arrayIT_XT0_EEEb, symObjAddr: 0xA4E0, symBinAddr: 0x70A40, symSize: 0x2D8 }
  - { offset: 0x3FEF91, size: 0x8, addend: 0x0, symName: __ZN18llama_model_loaderC2ERKNSt3__112basic_stringIcNS0_11char_traitsIcEENS0_9allocatorIcEEEERNS0_6vectorIS6_NS4_IS6_EEEEbbbbPK23llama_model_kv_overridePK32llama_model_tensor_buft_override, symObjAddr: 0x1CB8, symBinAddr: 0x68AD4, symSize: 0x27E8 }
  - { offset: 0x4083D1, size: 0x8, addend: 0x0, symName: __ZNSt3__112__hash_tableINS_17__hash_value_typeINS_12basic_stringIcNS_11char_traitsIcEENS_9allocatorIcEEEE23llama_model_kv_overrideEENS_22__unordered_map_hasherIS7_S9_NS_4hashIS7_EENS_8equal_toIS7_EELb1EEENS_21__unordered_map_equalIS7_S9_SE_SC_Lb1EEENS5_IS9_EEE25__emplace_unique_key_argsIS7_JNS_4pairIKS7_S8_EEEEENSL_INS_15__hash_iteratorIPNS_11__hash_nodeIS9_PvEEEEbEERKT_DpOT0_, symObjAddr: 0xA818, symBinAddr: 0x70D78, symSize: 0x430 }
  - { offset: 0x408D4D, size: 0x8, addend: 0x0, symName: __ZNK18llama_model_loader20weight_name_comparerclERKNSt3__112basic_stringIcNS1_11char_traitsIcEENS1_9allocatorIcEEEES9_, symObjAddr: 0xAE50, symBinAddr: 0x7139C, symSize: 0xF4 }
  - { offset: 0x40900A, size: 0x8, addend: 0x0, symName: __ZN18llama_model_loader19llama_tensor_weightC2EPK10llama_filetPK12gguf_contextP11ggml_tensor, symObjAddr: 0x7E70, symBinAddr: 0x6EB34, symSize: 0x1B8 }
  - { offset: 0x409292, size: 0x8, addend: 0x0, symName: __ZNSt3__16__treeINS_12__value_typeINS_12basic_stringIcNS_11char_traitsIcEENS_9allocatorIcEEEEN18llama_model_loader19llama_tensor_weightEEENS_19__map_value_compareIS7_SA_NS8_20weight_name_comparerELb1EEENS5_ISA_EEE25__emplace_unique_key_argsIS7_JRS7_S9_EEENS_4pairINS_15__tree_iteratorISA_PNS_11__tree_nodeISA_PvEElEEbEERKT_DpOT0_, symObjAddr: 0xAF44, symBinAddr: 0x71490, symSize: 0x158 }
  - { offset: 0x409644, size: 0x8, addend: 0x0, symName: __ZN8GGUFMeta3GKVItE17validate_overrideE28llama_model_kv_override_typePK23llama_model_kv_override, symObjAddr: 0xB3A8, symBinAddr: 0x71748, symSize: 0x240 }
  - { offset: 0x409826, size: 0x8, addend: 0x0, symName: __ZN8GGUFMeta3GKVItE6get_kvEPK12gguf_contexti, symObjAddr: 0xB2A8, symBinAddr: 0x71648, symSize: 0x100 }
  - { offset: 0x409A05, size: 0x8, addend: 0x0, symName: __ZN18llama_model_loader7get_keyItEEbRKNSt3__112basic_stringIcNS1_11char_traitsIcEENS1_9allocatorIcEEEERT_b, symObjAddr: 0x4544, symBinAddr: 0x6B2BC, symSize: 0x15C }
  - { offset: 0x409EE2, size: 0x8, addend: 0x0, symName: __ZNSt3__16__treeINS_12__value_typeI9ggml_typejEENS_19__map_value_compareIS2_S3_NS_4lessIS2_EELb1EEENS_9allocatorIS3_EEE7destroyEPNS_11__tree_nodeIS3_PvEE, symObjAddr: 0xB928, symBinAddr: 0x71CC8, symSize: 0x44 }
  - { offset: 0x40A003, size: 0x8, addend: 0x0, symName: __ZNK18llama_model_loader20weight_name_comparerclERKNSt3__112basic_stringIcNS1_11char_traitsIcEENS1_9allocatorIcEEEES9_, symObjAddr: 0xAE50, symBinAddr: 0x7139C, symSize: 0xF4 }
  - { offset: 0x40A00E, size: 0x8, addend: 0x0, symName: __ZNSt3__16vectorINS_10unique_ptrI10llama_fileNS_14default_deleteIS2_EEEENS_9allocatorIS5_EEE20__throw_length_errorB8ne200100Ev, symObjAddr: 0xAE28, symBinAddr: 0x71388, symSize: 0x14 }
  - { offset: 0x40A03B, size: 0x8, addend: 0x0, symName: __ZNSt3__16vectorIP18ggml_backend_eventNS_9allocatorIS2_EEE12emplace_backIJRS2_EEES7_DpOT_, symObjAddr: 0x8164, symBinAddr: 0x6ECEC, symSize: 0xF0 }
  - { offset: 0x40A1DB, size: 0x8, addend: 0x0, symName: __ZNSt3__110unique_ptrINS_11__tree_nodeINS_12__value_typeINS_12basic_stringIcNS_11char_traitsIcEENS_9allocatorIcEEEEN18llama_model_loader19llama_tensor_weightEEEPvEENS_22__tree_node_destructorINS6_ISD_EEEEED1B8ne200100Ev, symObjAddr: 0xB09C, symBinAddr: 0x715E8, symSize: 0x60 }
  - { offset: 0x40A509, size: 0x8, addend: 0x0, symName: __ZNSt3__16vectorINS_10unique_ptrI12ggml_context20ggml_context_deleterEENS_9allocatorIS4_EEED1B8ne200100Ev, symObjAddr: 0x48A0, symBinAddr: 0x6B574, symSize: 0x70 }
  - { offset: 0x40A700, size: 0x8, addend: 0x0, symName: __ZNSt3__113unordered_mapINS_12basic_stringIcNS_11char_traitsIcEENS_9allocatorIcEEEE23llama_model_kv_overrideNS_4hashIS6_EENS_8equal_toIS6_EENS4_INS_4pairIKS6_S7_EEEEED1B8ne200100Ev, symObjAddr: 0x4910, symBinAddr: 0x6B5E4, symSize: 0x68 }
  - { offset: 0x40AB06, size: 0x8, addend: 0x0, symName: __ZNSt3__16__treeINS_12__value_typeINS_12basic_stringIcNS_11char_traitsIcEENS_9allocatorIcEEEEN18llama_model_loader19llama_tensor_weightEEENS_19__map_value_compareIS7_SA_NS8_20weight_name_comparerELb1EEENS5_ISA_EEE7destroyEPNS_11__tree_nodeISA_PvEE, symObjAddr: 0xA7B8, symBinAddr: 0x70D18, symSize: 0x60 }
  - { offset: 0x40AD4A, size: 0x8, addend: 0x0, symName: __ZNSt3__16vectorINS_10unique_ptrI10llama_mmapNS_14default_deleteIS2_EEEENS_9allocatorIS5_EEED1B8ne200100Ev, symObjAddr: 0x4978, symBinAddr: 0x6B64C, symSize: 0x70 }
  - { offset: 0x40AF67, size: 0x8, addend: 0x0, symName: __ZNSt3__16vectorINS_10unique_ptrI10llama_fileNS_14default_deleteIS2_EEEENS_9allocatorIS5_EEED1B8ne200100Ev, symObjAddr: 0x49E8, symBinAddr: 0x6B6BC, symSize: 0x70 }
  - { offset: 0x40B309, size: 0x8, addend: 0x0, symName: __ZN18llama_model_loader7get_keyItEEbRKNSt3__112basic_stringIcNS1_11char_traitsIcEENS1_9allocatorIcEEEERT_b, symObjAddr: 0x4544, symBinAddr: 0x6B2BC, symSize: 0x15C }
  - { offset: 0x40B417, size: 0x8, addend: 0x0, symName: __ZN8GGUFMeta3GKVIiE17validate_overrideE28llama_model_kv_override_typePK23llama_model_kv_override, symObjAddr: 0xB6E8, symBinAddr: 0x71A88, symSize: 0x240 }
  - { offset: 0x40B5F9, size: 0x8, addend: 0x0, symName: __ZN8GGUFMeta3GKVIiE6get_kvEPK12gguf_contexti, symObjAddr: 0xB5E8, symBinAddr: 0x71988, symSize: 0x100 }
  - { offset: 0x40BD8C, size: 0x8, addend: 0x0, symName: __ZN18llama_model_loaderC1ERKNSt3__112basic_stringIcNS0_11char_traitsIcEENS0_9allocatorIcEEEERNS0_6vectorIS6_NS4_IS6_EEEEbbbbPK23llama_model_kv_overridePK32llama_model_tensor_buft_override, symObjAddr: 0x4A58, symBinAddr: 0x6B72C, symSize: 0xC }
  - { offset: 0x40BE84, size: 0x8, addend: 0x0, symName: __ZNK18llama_model_loader13get_arch_nameEv, symObjAddr: 0x4A64, symBinAddr: 0x6B738, symSize: 0x28 }
  - { offset: 0x40BECA, size: 0x8, addend: 0x0, symName: __ZNK18llama_model_loader13get_arch_nameEv, symObjAddr: 0x4A64, symBinAddr: 0x6B738, symSize: 0x28 }
  - { offset: 0x40BF02, size: 0x8, addend: 0x0, symName: __ZNK18llama_model_loader8get_archEv, symObjAddr: 0x4A8C, symBinAddr: 0x6B760, symSize: 0x8 }
  - { offset: 0x40BFE4, size: 0x8, addend: 0x0, symName: __ZNK18llama_model_loader10get_weightEPKc, symObjAddr: 0x4A94, symBinAddr: 0x6B768, symSize: 0x14C }
  - { offset: 0x40C5B8, size: 0x8, addend: 0x0, symName: __ZNK18llama_model_loader14require_weightEPKc, symObjAddr: 0x4BE0, symBinAddr: 0x6B8B4, symSize: 0xC4 }
  - { offset: 0x40C739, size: 0x8, addend: 0x0, symName: __ZNK18llama_model_loader15get_tensor_metaEPKc, symObjAddr: 0x4CA4, symBinAddr: 0x6B978, symSize: 0x1C }
  - { offset: 0x40C7C0, size: 0x8, addend: 0x0, symName: __ZNK18llama_model_loader19require_tensor_metaERKNSt3__112basic_stringIcNS0_11char_traitsIcEENS0_9allocatorIcEEEE, symObjAddr: 0x4CC0, symBinAddr: 0x6B994, symSize: 0xEC }
  - { offset: 0x40CA53, size: 0x8, addend: 0x0, symName: __ZNK18llama_model_loader17check_tensor_dimsERKNSt3__112basic_stringIcNS0_11char_traitsIcEENS0_9allocatorIcEEEERKNS0_6vectorIxNS4_IxEEEEb, symObjAddr: 0x4DAC, symBinAddr: 0x6BA80, symSize: 0x2E0 }
  - { offset: 0x40D515, size: 0x8, addend: 0x0, symName: __ZN18llama_model_loader13create_tensorEP12ggml_contextRKNSt3__112basic_stringIcNS2_11char_traitsIcEENS2_9allocatorIcEEEERKSt16initializer_listIxEi, symObjAddr: 0x508C, symBinAddr: 0x6BD60, symSize: 0x174 }
  - { offset: 0x40DBA4, size: 0x8, addend: 0x0, symName: __ZNSt3__16vectorIxNS_9allocatorIxEEE20__throw_length_errorB8ne200100Ev, symObjAddr: 0xB9E0, symBinAddr: 0x71D0C, symSize: 0x14 }
  - { offset: 0x40DBBC, size: 0x8, addend: 0x0, symName: __ZNSt3__16vectorINS_10unique_ptrI10llama_mmapNS_14default_deleteIS2_EEEENS_9allocatorIS5_EEE20__throw_length_errorB8ne200100Ev, symObjAddr: 0xB9F4, symBinAddr: 0x71D20, symSize: 0x14 }
  - { offset: 0x40DBC7, size: 0x8, addend: 0x0, symName: __ZN18llama_model_loader21create_tensor_as_viewEP12ggml_contextP11ggml_tensorRKNSt3__112basic_stringIcNS4_11char_traitsIcEENS4_9allocatorIcEEEERKSt16initializer_listIxEmb, symObjAddr: 0x5200, symBinAddr: 0x6BED4, symSize: 0x28C }
  - { offset: 0x40E412, size: 0x8, addend: 0x0, symName: __ZNK18llama_model_loader20done_getting_tensorsEv, symObjAddr: 0x548C, symBinAddr: 0x6C160, symSize: 0xD0 }
  - { offset: 0x40F158, size: 0x8, addend: 0x0, symName: __ZN18llama_model_loader13init_mappingsEbPNSt3__16vectorINS0_10unique_ptrI11llama_mlockNS0_14default_deleteIS3_EEEENS0_9allocatorIS6_EEEE, symObjAddr: 0x555C, symBinAddr: 0x6C230, symSize: 0x52C }
  - { offset: 0x41091F, size: 0x8, addend: 0x0, symName: __ZNSt3__16vectorINS_10unique_ptrI10llama_mmapNS_14default_deleteIS2_EEEENS_9allocatorIS5_EEE20__throw_length_errorB8ne200100Ev, symObjAddr: 0xB9F4, symBinAddr: 0x71D20, symSize: 0x14 }
  - { offset: 0x41094C, size: 0x8, addend: 0x0, symName: __ZNSt3__16vectorINS_10unique_ptrI11llama_mlockNS_14default_deleteIS2_EEEENS_9allocatorIS5_EEE20__throw_length_errorB8ne200100Ev, symObjAddr: 0xBA1C, symBinAddr: 0x71D34, symSize: 0x14 }
  - { offset: 0x410957, size: 0x8, addend: 0x0, symName: __ZNSt3__16vectorINS_10unique_ptrI11llama_mlockNS_14default_deleteIS2_EEEENS_9allocatorIS5_EEE20__throw_length_errorB8ne200100Ev, symObjAddr: 0xBA1C, symBinAddr: 0x71D34, symSize: 0x14 }
  - { offset: 0x41096F, size: 0x8, addend: 0x0, symName: __ZNSt3__16vectorINS_10unique_ptrI10llama_mmapNS_14default_deleteIS2_EEEENS_9allocatorIS5_EEE20__throw_out_of_rangeB8ne200100Ev, symObjAddr: 0xBA30, symBinAddr: 0x71D48, symSize: 0x14 }
  - { offset: 0x41097A, size: 0x8, addend: 0x0, symName: __ZNSt3__110unique_ptrI10llama_mmapNS_14default_deleteIS1_EEED1B8ne200100Ev, symObjAddr: 0x5AC4, symBinAddr: 0x6C798, symSize: 0x3C }
  - { offset: 0x410A12, size: 0x8, addend: 0x0, symName: __ZNSt3__110unique_ptrI11llama_mlockNS_14default_deleteIS1_EEED1B8ne200100Ev, symObjAddr: 0x5A88, symBinAddr: 0x6C75C, symSize: 0x3C }
  - { offset: 0x410BC5, size: 0x8, addend: 0x0, symName: __ZNK18llama_model_loader17get_mapping_rangeEPmS0_PPviP12ggml_context, symObjAddr: 0x5B00, symBinAddr: 0x6C7D4, symSize: 0x134 }
  - { offset: 0x410E49, size: 0x8, addend: 0x0, symName: __ZNK18llama_model_loader13load_data_forEP11ggml_tensor, symObjAddr: 0x5C34, symBinAddr: 0x6C908, symSize: 0x21C }
  - { offset: 0x410E54, size: 0x8, addend: 0x0, symName: __ZNSt3__16vectorINS_10unique_ptrI10llama_mmapNS_14default_deleteIS2_EEEENS_9allocatorIS5_EEE20__throw_out_of_rangeB8ne200100Ev, symObjAddr: 0xBA30, symBinAddr: 0x71D48, symSize: 0x14 }
  - { offset: 0x410E6C, size: 0x8, addend: 0x0, symName: __ZNSt3__16vectorINS_10unique_ptrI10llama_fileNS_14default_deleteIS2_EEEENS_9allocatorIS5_EEE20__throw_out_of_rangeB8ne200100Ev, symObjAddr: 0xBA44, symBinAddr: 0x71D5C, symSize: 0x14 }
  - { offset: 0x410E77, size: 0x8, addend: 0x0, symName: __ZNK18llama_model_loader13load_data_forEP11ggml_tensor, symObjAddr: 0x5C34, symBinAddr: 0x6C908, symSize: 0x21C }
  - { offset: 0x4138CD, size: 0x8, addend: 0x0, symName: __ZNSt3__113__assoc_stateINS_4pairIP11ggml_tensorbEEE4moveEv, symObjAddr: 0xC07C, symBinAddr: 0x72394, symSize: 0xCC }
  - { offset: 0x413ACC, size: 0x8, addend: 0x0, symName: __ZNSt3__16vectorIP18ggml_backend_eventNS_9allocatorIS2_EEE12emplace_backIJRS2_EEES7_DpOT_, symObjAddr: 0x8164, symBinAddr: 0x6ECEC, symSize: 0xF0 }
  - { offset: 0x413EC4, size: 0x8, addend: 0x0, symName: __ZNSt3__16vectorIP19ggml_backend_bufferNS_9allocatorIS2_EEE20__throw_length_errorB8ne200100Ev, symObjAddr: 0x8254, symBinAddr: 0x6EDDC, symSize: 0x14 }
  - { offset: 0x413F15, size: 0x8, addend: 0x0, symName: __ZNSt3__16vectorINS_10unique_ptrI10llama_fileNS_14default_deleteIS2_EEEENS_9allocatorIS5_EEE20__throw_out_of_rangeB8ne200100Ev, symObjAddr: 0xBA44, symBinAddr: 0x71D5C, symSize: 0x14 }
  - { offset: 0x413F2D, size: 0x8, addend: 0x0, symName: '__ZNSt3__119__async_assoc_stateINS_4pairIP11ggml_tensorbEENS_12__async_funcIZN18llama_model_loader13load_all_dataEP12ggml_contextRNS_13unordered_mapIjP19ggml_backend_bufferNS_4hashIjEENS_8equal_toIjEENS_9allocatorINS1_IKjSB_EEEEEEPNS_6vectorINS_10unique_ptrI11llama_mlockNS_14default_deleteISO_EEEENSG_ISR_EEEEPFbfPvESV_E3$_0JEEEED1Ev', symObjAddr: 0xBA58, symBinAddr: 0x71D70, symSize: 0x4C }
  - { offset: 0x413F38, size: 0x8, addend: 0x0, symName: __ZNSt3__16vectorINS_4pairImmEENS_9allocatorIS2_EEE20__throw_out_of_rangeB8ne200100Ev, symObjAddr: 0xC148, symBinAddr: 0x72460, symSize: 0x14 }
  - { offset: 0x413F5B, size: 0x8, addend: 0x0, symName: __ZNSt3__16vectorINS_6futureINS_4pairIP11ggml_tensorbEEEENS_9allocatorIS6_EEE20__throw_length_errorB8ne200100Ev, symObjAddr: 0xBD98, symBinAddr: 0x720B0, symSize: 0x14 }
  - { offset: 0x413F73, size: 0x8, addend: 0x0, symName: __ZNSt3__16vectorINS_10unique_ptrI11llama_mlockNS_14default_deleteIS2_EEEENS_9allocatorIS5_EEE20__throw_out_of_rangeB8ne200100Ev, symObjAddr: 0xBDAC, symBinAddr: 0x720C4, symSize: 0x14 }
  - { offset: 0x413F7E, size: 0x8, addend: 0x0, symName: __ZNSt3__16vectorINS_10unique_ptrI11llama_mlockNS_14default_deleteIS2_EEEENS_9allocatorIS5_EEE20__throw_out_of_rangeB8ne200100Ev, symObjAddr: 0xBDAC, symBinAddr: 0x720C4, symSize: 0x14 }
  - { offset: 0x413F96, size: 0x8, addend: 0x0, symName: '__ZNSt3__119__async_assoc_stateINS_4pairIP11ggml_tensorbEENS_12__async_funcIZN18llama_model_loader13load_all_dataEP12ggml_contextRNS_13unordered_mapIjP19ggml_backend_bufferNS_4hashIjEENS_8equal_toIjEENS_9allocatorINS1_IKjSB_EEEEEEPNS_6vectorINS_10unique_ptrI11llama_mlockNS_14default_deleteISO_EEEENSG_ISR_EEEEPFbfPvESV_E3$_1JEEEED1Ev', symObjAddr: 0xBDC0, symBinAddr: 0x720D8, symSize: 0x4C }
  - { offset: 0x413FA1, size: 0x8, addend: 0x0, symName: __ZNSt3__16vectorI7no_initIhENS_9allocatorIS2_EEE20__throw_length_errorB8ne200100Ev, symObjAddr: 0xC068, symBinAddr: 0x72380, symSize: 0x14 }
  - { offset: 0x413FB9, size: 0x8, addend: 0x0, symName: __ZNSt3__113__assoc_stateINS_4pairIP11ggml_tensorbEEE4moveEv, symObjAddr: 0xC07C, symBinAddr: 0x72394, symSize: 0xCC }
  - { offset: 0x413FC4, size: 0x8, addend: 0x0, symName: __ZNSt3__16vectorIP19ggml_backend_bufferNS_9allocatorIS2_EEE20__throw_length_errorB8ne200100Ev, symObjAddr: 0x8254, symBinAddr: 0x6EDDC, symSize: 0x14 }
  - { offset: 0x413FDC, size: 0x8, addend: 0x0, symName: __ZNSt3__16vectorIPvNS_9allocatorIS1_EEE20__throw_length_errorB8ne200100Ev, symObjAddr: 0x8268, symBinAddr: 0x6EDF0, symSize: 0x14 }
  - { offset: 0x413FE7, size: 0x8, addend: 0x0, symName: __ZNSt3__16vectorIPvNS_9allocatorIS1_EEE20__throw_length_errorB8ne200100Ev, symObjAddr: 0x8268, symBinAddr: 0x6EDF0, symSize: 0x14 }
  - { offset: 0x413FFF, size: 0x8, addend: 0x0, symName: __ZNSt3__16vectorIP18ggml_backend_eventNS_9allocatorIS2_EEE20__throw_length_errorB8ne200100Ev, symObjAddr: 0x827C, symBinAddr: 0x6EE04, symSize: 0x14 }
  - { offset: 0x41400A, size: 0x8, addend: 0x0, symName: '__ZNSt3__110unique_ptrINS_5tupleIJNS0_INS_15__thread_structENS_14default_deleteIS2_EEEEMNS_19__async_assoc_stateINS_4pairIP11ggml_tensorbEENS_12__async_funcIZN18llama_model_loader13load_all_dataEP12ggml_contextRNS_13unordered_mapIjP19ggml_backend_bufferNS_4hashIjEENS_8equal_toIjEENS_9allocatorINS7_IKjSH_EEEEEEPNS_6vectorINS0_I11llama_mlockNS3_IST_EEEENSM_ISV_EEEEPFbfPvESZ_E3$_1JEEEEEFvvEPS14_EEENS3_IS18_EEED1B8ne200100Ev', symObjAddr: 0xC020, symBinAddr: 0x72338, symSize: 0x48 }
  - { offset: 0x4141B2, size: 0x8, addend: 0x0, symName: __ZNSt3__110unique_ptrINS_15__thread_structENS_14default_deleteIS1_EEED1B8ne200100Ev, symObjAddr: 0xBD5C, symBinAddr: 0x72074, symSize: 0x3C }
  - { offset: 0x41424A, size: 0x8, addend: 0x0, symName: '__ZNSt3__110unique_ptrINS_5tupleIJNS0_INS_15__thread_structENS_14default_deleteIS2_EEEEMNS_19__async_assoc_stateINS_4pairIP11ggml_tensorbEENS_12__async_funcIZN18llama_model_loader13load_all_dataEP12ggml_contextRNS_13unordered_mapIjP19ggml_backend_bufferNS_4hashIjEENS_8equal_toIjEENS_9allocatorINS7_IKjSH_EEEEEEPNS_6vectorINS0_I11llama_mlockNS3_IST_EEEENSM_ISV_EEEEPFbfPvESZ_E3$_0JEEEEEFvvEPS14_EEENS3_IS18_EEED1B8ne200100Ev', symObjAddr: 0xBD14, symBinAddr: 0x7202C, symSize: 0x48 }
  - { offset: 0x4143F2, size: 0x8, addend: 0x0, symName: __ZNSt3__16vectorINS_6futureINS_4pairIP11ggml_tensorbEEEENS_9allocatorIS6_EEED1B8ne200100Ev, symObjAddr: 0x7898, symBinAddr: 0x6E56C, symSize: 0x80 }
  - { offset: 0x4145F8, size: 0x8, addend: 0x0, symName: __ZNK18llama_model_loader10ftype_nameEv, symObjAddr: 0x7918, symBinAddr: 0x6E5EC, symSize: 0xC }
  - { offset: 0x414638, size: 0x8, addend: 0x0, symName: __ZL22llama_model_ftype_name11llama_ftype, symObjAddr: 0x7924, symBinAddr: 0x6E5F8, symSize: 0x3EC }
  - { offset: 0x414AC1, size: 0x8, addend: 0x0, symName: __ZNK18llama_model_loader10print_infoEv, symObjAddr: 0x7D10, symBinAddr: 0x6E9E4, symSize: 0x150 }
  - { offset: 0x4152C2, size: 0x8, addend: 0x0, symName: __ZNSt3__16vectorIP18ggml_backend_eventNS_9allocatorIS2_EEE20__throw_length_errorB8ne200100Ev, symObjAddr: 0x827C, symBinAddr: 0x6EE04, symSize: 0x14 }
  - { offset: 0x4152DA, size: 0x8, addend: 0x0, symName: __ZN8GGUFMeta3GKVINS_9ArrayInfoEE6get_kvEPK12gguf_contexti, symObjAddr: 0x8290, symBinAddr: 0x6EE18, symSize: 0x150 }
  - { offset: 0x4163A7, size: 0x8, addend: 0x0, symName: __ZNSt3__112__hash_tableINS_17__hash_value_typeINS_12basic_stringIcNS_11char_traitsIcEENS_9allocatorIcEEEE23llama_model_kv_overrideEENS_22__unordered_map_hasherIS7_S9_NS_4hashIS7_EENS_8equal_toIS7_EELb1EEENS_21__unordered_map_equalIS7_S9_SE_SC_Lb1EEENS5_IS9_EEE11__do_rehashILb1EEEvm, symObjAddr: 0xACA8, symBinAddr: 0x71208, symSize: 0x180 }
  - { offset: 0x416734, size: 0x8, addend: 0x0, symName: __ZNSt3__16vectorINS_10unique_ptrI10llama_fileNS_14default_deleteIS2_EEEENS_9allocatorIS5_EEE20__throw_length_errorB8ne200100Ev, symObjAddr: 0xAE28, symBinAddr: 0x71388, symSize: 0x14 }
  - { offset: 0x416749, size: 0x8, addend: 0x0, symName: __ZNSt3__110unique_ptrINS_11__hash_nodeINS_17__hash_value_typeINS_12basic_stringIcNS_11char_traitsIcEENS_9allocatorIcEEEE23llama_model_kv_overrideEEPvEENS_22__hash_node_destructorINS6_ISC_EEEEED1B8ne200100Ev, symObjAddr: 0xAC48, symBinAddr: 0x711A8, symSize: 0x60 }
  - { offset: 0x416CEE, size: 0x8, addend: 0x0, symName: '__ZNSt3__119__async_assoc_stateINS_4pairIP11ggml_tensorbEENS_12__async_funcIZN18llama_model_loader13load_all_dataEP12ggml_contextRNS_13unordered_mapIjP19ggml_backend_bufferNS_4hashIjEENS_8equal_toIjEENS_9allocatorINS1_IKjSB_EEEEEEPNS_6vectorINS_10unique_ptrI11llama_mlockNS_14default_deleteISO_EEEENSG_ISR_EEEEPFbfPvESV_E3$_0JEEEED1Ev', symObjAddr: 0xBA58, symBinAddr: 0x71D70, symSize: 0x4C }
  - { offset: 0x416D8A, size: 0x8, addend: 0x0, symName: '__ZNSt3__119__async_assoc_stateINS_4pairIP11ggml_tensorbEENS_12__async_funcIZN18llama_model_loader13load_all_dataEP12ggml_contextRNS_13unordered_mapIjP19ggml_backend_bufferNS_4hashIjEENS_8equal_toIjEENS_9allocatorINS1_IKjSB_EEEEEEPNS_6vectorINS_10unique_ptrI11llama_mlockNS_14default_deleteISO_EEEENSG_ISR_EEEEPFbfPvESV_E3$_0JEEEED0Ev', symObjAddr: 0xBAA4, symBinAddr: 0x71DBC, symSize: 0x50 }
  - { offset: 0x416E44, size: 0x8, addend: 0x0, symName: '__ZNSt3__119__async_assoc_stateINS_4pairIP11ggml_tensorbEENS_12__async_funcIZN18llama_model_loader13load_all_dataEP12ggml_contextRNS_13unordered_mapIjP19ggml_backend_bufferNS_4hashIjEENS_8equal_toIjEENS_9allocatorINS1_IKjSB_EEEEEEPNS_6vectorINS_10unique_ptrI11llama_mlockNS_14default_deleteISO_EEEENSG_ISR_EEEEPFbfPvESV_E3$_0JEEEE16__on_zero_sharedEv', symObjAddr: 0xBAF4, symBinAddr: 0x71E0C, symSize: 0x30 }
  - { offset: 0x4170B0, size: 0x8, addend: 0x0, symName: '__ZNSt3__119__async_assoc_stateINS_4pairIP11ggml_tensorbEENS_12__async_funcIZN18llama_model_loader13load_all_dataEP12ggml_contextRNS_13unordered_mapIjP19ggml_backend_bufferNS_4hashIjEENS_8equal_toIjEENS_9allocatorINS1_IKjSB_EEEEEEPNS_6vectorINS_10unique_ptrI11llama_mlockNS_14default_deleteISO_EEEENSG_ISR_EEEEPFbfPvESV_E3$_0JEEEE9__executeEv', symObjAddr: 0xBB24, symBinAddr: 0x71E3C, symSize: 0x108 }
  - { offset: 0x417574, size: 0x8, addend: 0x0, symName: '__ZNSt3__119__async_assoc_stateINS_4pairIP11ggml_tensorbEENS_12__async_funcIZN18llama_model_loader13load_all_dataEP12ggml_contextRNS_13unordered_mapIjP19ggml_backend_bufferNS_4hashIjEENS_8equal_toIjEENS_9allocatorINS1_IKjSB_EEEEEEPNS_6vectorINS_10unique_ptrI11llama_mlockNS_14default_deleteISO_EEEENSG_ISR_EEEEPFbfPvESV_E3$_1JEEEED1Ev', symObjAddr: 0xBDC0, symBinAddr: 0x720D8, symSize: 0x4C }
  - { offset: 0x417610, size: 0x8, addend: 0x0, symName: '__ZNSt3__119__async_assoc_stateINS_4pairIP11ggml_tensorbEENS_12__async_funcIZN18llama_model_loader13load_all_dataEP12ggml_contextRNS_13unordered_mapIjP19ggml_backend_bufferNS_4hashIjEENS_8equal_toIjEENS_9allocatorINS1_IKjSB_EEEEEEPNS_6vectorINS_10unique_ptrI11llama_mlockNS_14default_deleteISO_EEEENSG_ISR_EEEEPFbfPvESV_E3$_1JEEEED0Ev', symObjAddr: 0xBE0C, symBinAddr: 0x72124, symSize: 0x50 }
  - { offset: 0x4176B2, size: 0x8, addend: 0x0, symName: '__ZNSt3__119__async_assoc_stateINS_4pairIP11ggml_tensorbEENS_12__async_funcIZN18llama_model_loader13load_all_dataEP12ggml_contextRNS_13unordered_mapIjP19ggml_backend_bufferNS_4hashIjEENS_8equal_toIjEENS_9allocatorINS1_IKjSB_EEEEEEPNS_6vectorINS_10unique_ptrI11llama_mlockNS_14default_deleteISO_EEEENSG_ISR_EEEEPFbfPvESV_E3$_1JEEEE16__on_zero_sharedEv', symObjAddr: 0xBE5C, symBinAddr: 0x72174, symSize: 0x30 }
  - { offset: 0x417764, size: 0x8, addend: 0x0, symName: '__ZNSt3__119__async_assoc_stateINS_4pairIP11ggml_tensorbEENS_12__async_funcIZN18llama_model_loader13load_all_dataEP12ggml_contextRNS_13unordered_mapIjP19ggml_backend_bufferNS_4hashIjEENS_8equal_toIjEENS_9allocatorINS1_IKjSB_EEEEEEPNS_6vectorINS_10unique_ptrI11llama_mlockNS_14default_deleteISO_EEEENSG_ISR_EEEEPFbfPvESV_E3$_1JEEEE9__executeEv', symObjAddr: 0xBE8C, symBinAddr: 0x721A4, symSize: 0x108 }
  - { offset: 0x43361D, size: 0x8, addend: 0x0, symName: __ZN17llama_model_saverC2ERK11llama_model, symObjAddr: 0x0, symBinAddr: 0x72474, symSize: 0x38 }
  - { offset: 0x43368F, size: 0x8, addend: 0x0, symName: __ZN17llama_model_saverC1ERK11llama_model, symObjAddr: 0x38, symBinAddr: 0x724AC, symSize: 0x38 }
  - { offset: 0x4336FE, size: 0x8, addend: 0x0, symName: __ZN17llama_model_saverD2Ev, symObjAddr: 0x70, symBinAddr: 0x724E4, symSize: 0x2C }
  - { offset: 0x433757, size: 0x8, addend: 0x0, symName: __ZN17llama_model_saverD1Ev, symObjAddr: 0xAC, symBinAddr: 0x72510, symSize: 0x2C }
  - { offset: 0x4338B3, size: 0x8, addend: 0x0, symName: __ZN17llama_model_saver6add_kvE6llm_kvj, symObjAddr: 0xD8, symBinAddr: 0x7253C, symSize: 0x98 }
  - { offset: 0x433B8F, size: 0x8, addend: 0x0, symName: __ZN17llama_model_saver6add_kvE6llm_kvi, symObjAddr: 0x170, symBinAddr: 0x725D4, symSize: 0x98 }
  - { offset: 0x433E6B, size: 0x8, addend: 0x0, symName: __ZN17llama_model_saver6add_kvE6llm_kvf, symObjAddr: 0x208, symBinAddr: 0x7266C, symSize: 0x98 }
  - { offset: 0x434141, size: 0x8, addend: 0x0, symName: __ZN17llama_model_saver6add_kvE6llm_kvb, symObjAddr: 0x2A0, symBinAddr: 0x72704, symSize: 0x98 }
  - { offset: 0x43441D, size: 0x8, addend: 0x0, symName: __ZN17llama_model_saver6add_kvE6llm_kvPKc, symObjAddr: 0x338, symBinAddr: 0x7279C, symSize: 0x98 }
  - { offset: 0x43470C, size: 0x8, addend: 0x0, symName: __ZN17llama_model_saver6add_kvE6llm_kvc, symObjAddr: 0x3D0, symBinAddr: 0x72834, symSize: 0x20 }
  - { offset: 0x434749, size: 0x8, addend: 0x0, symName: __ZN17llama_model_saver6add_kvE6llm_kvRKNSt3__16vectorINS1_12basic_stringIcNS1_11char_traitsIcEENS1_9allocatorIcEEEENS6_IS8_EEEE, symObjAddr: 0x3F0, symBinAddr: 0x72854, symSize: 0x2D4 }
  - { offset: 0x4349F2, size: 0x8, addend: 0x0, symName: __ZN17llama_model_saver6add_kvE6llm_kvRKNSt3__16vectorINS1_12basic_stringIcNS1_11char_traitsIcEENS1_9allocatorIcEEEENS6_IS8_EEEE, symObjAddr: 0x3F0, symBinAddr: 0x72854, symSize: 0x2D4 }
  - { offset: 0x435050, size: 0x8, addend: 0x0, symName: __ZNSt3__16vectorIPKcNS_9allocatorIS2_EEE20__throw_length_errorB8ne200100Ev, symObjAddr: 0x2CC8, symBinAddr: 0x750BC, symSize: 0x14 }
  - { offset: 0x4352EF, size: 0x8, addend: 0x0, symName: __ZN17llama_model_saver10add_tensorEPK11ggml_tensor, symObjAddr: 0x6C4, symBinAddr: 0x72B28, symSize: 0x1A0 }
  - { offset: 0x4356C0, size: 0x8, addend: 0x0, symName: __ZN17llama_model_saver17add_kv_from_modelEv, symObjAddr: 0x864, symBinAddr: 0x72CC8, symSize: 0x1E68 }
  - { offset: 0x4361DA, size: 0x8, addend: 0x0, symName: __ZN17llama_model_saver17add_kv_from_modelEv, symObjAddr: 0x864, symBinAddr: 0x72CC8, symSize: 0x1E68 }
  - { offset: 0x440C0A, size: 0x8, addend: 0x0, symName: __ZN17llama_model_saver6add_kvINSt3__112basic_stringIcNS1_11char_traitsIcEENS1_9allocatorIcEEEEEEv6llm_kvRKT_b, symObjAddr: 0x26CC, symBinAddr: 0x74B30, symSize: 0x148 }
  - { offset: 0x441041, size: 0x8, addend: 0x0, symName: __ZN17llama_model_saver6add_kvINSt3__15arrayIjLm512EEEEEv6llm_kvRKT_b, symObjAddr: 0x2814, symBinAddr: 0x74C78, symSize: 0x13C }
  - { offset: 0x4415F3, size: 0x8, addend: 0x0, symName: __ZN17llama_model_saver22add_tensors_from_modelEv, symObjAddr: 0x29C0, symBinAddr: 0x74DB4, symSize: 0x2EC }
  - { offset: 0x4420CD, size: 0x8, addend: 0x0, symName: __ZN17llama_model_saver4saveERKNSt3__112basic_stringIcNS0_11char_traitsIcEENS0_9allocatorIcEEEE, symObjAddr: 0x2CAC, symBinAddr: 0x750A0, symSize: 0x1C }
  - { offset: 0x444134, size: 0x8, addend: 0x0, symName: __ZL24LLAMA_ROPE_SCALING_TYPES, symObjAddr: 0x52C5F8, symBinAddr: 0x371E10, symSize: 0x0 }
  - { offset: 0x4A28C0, size: 0x8, addend: 0x0, symName: __ZNSt3__111make_uniqueB8ne200100I14llm_build_lfm2JRK11llama_modelRK16llm_graph_paramsELi0EEENS_10unique_ptrIT_NS_14default_deleteIS9_EEEEDpOT0_, symObjAddr: 0x438B8, symBinAddr: 0xB8908, symSize: 0x5C }
  - { offset: 0x4A2966, size: 0x8, addend: 0x0, symName: __ZNSt3__111make_uniqueB8ne200100I14llm_build_phi3ILb1EEJRK11llama_modelRK16llm_graph_paramsELi0EEENS_10unique_ptrIT_NS_14default_deleteISA_EEEEDpOT0_, symObjAddr: 0x420A4, symBinAddr: 0xB70F4, symSize: 0x5C }
  - { offset: 0x4A2A0C, size: 0x8, addend: 0x0, symName: __ZNSt3__111make_uniqueB8ne200100I15llm_build_mambaJRK11llama_modelRK16llm_graph_paramsELi0EEENS_10unique_ptrIT_NS_14default_deleteIS9_EEEEDpOT0_, symObjAddr: 0x4271C, symBinAddr: 0xB776C, symSize: 0x5C }
  - { offset: 0x4A2AB2, size: 0x8, addend: 0x0, symName: __ZNSt3__111make_uniqueB8ne200100I20llm_build_nemotron_hJRK11llama_modelRK16llm_graph_paramsELi0EEENS_10unique_ptrIT_NS_14default_deleteIS9_EEEEDpOT0_, symObjAddr: 0x42F60, symBinAddr: 0xB7FB0, symSize: 0x5C }
  - { offset: 0x4A2B58, size: 0x8, addend: 0x0, symName: __ZNSt3__111make_uniqueB8ne200100I24llm_build_pangu_embeddedJRK11llama_modelRK16llm_graph_paramsELi0EEENS_10unique_ptrIT_NS_14default_deleteIS9_EEEEDpOT0_, symObjAddr: 0x43B3C, symBinAddr: 0xB8B8C, symSize: 0x5C }
  - { offset: 0x4A2BFE, size: 0x8, addend: 0x0, symName: __ZNSt3__111make_uniqueB8ne200100I20llm_build_minimax_m2JRK11llama_modelRK16llm_graph_paramsELi0EEENS_10unique_ptrIT_NS_14default_deleteIS9_EEEEDpOT0_, symObjAddr: 0x43A84, symBinAddr: 0xB8AD4, symSize: 0x5C }
  - { offset: 0x4A2CA4, size: 0x8, addend: 0x0, symName: __ZNSt3__111make_uniqueB8ne200100I25llm_build_openai_moe_iswaJRK11llama_modelRK16llm_graph_paramsELi0EEENS_10unique_ptrIT_NS_14default_deleteIS9_EEEEDpOT0_, symObjAddr: 0x43800, symBinAddr: 0xB8850, symSize: 0x5C }
  - { offset: 0x4A2D4A, size: 0x8, addend: 0x0, symName: __ZNSt3__111make_uniqueB8ne200100I17llm_build_apertusJRK11llama_modelRK16llm_graph_paramsELi0EEENS_10unique_ptrIT_NS_14default_deleteIS9_EEEEDpOT0_, symObjAddr: 0x43A28, symBinAddr: 0xB8A78, symSize: 0x5C }
  - { offset: 0x4A2DF0, size: 0x8, addend: 0x0, symName: __ZNSt3__111make_uniqueB8ne200100I21llm_build_hunyuan_moeJRK11llama_modelRK16llm_graph_paramsELi0EEENS_10unique_ptrIT_NS_14default_deleteIS9_EEEEDpOT0_, symObjAddr: 0x436EC, symBinAddr: 0xB873C, symSize: 0x5C }
  - { offset: 0x4A2E96, size: 0x8, addend: 0x0, symName: __ZNSt3__111make_uniqueB8ne200100I15llm_build_dots1JRK11llama_modelRK16llm_graph_paramsELi0EEENS_10unique_ptrIT_NS_14default_deleteIS9_EEEEDpOT0_, symObjAddr: 0x43520, symBinAddr: 0xB8570, symSize: 0x5C }
  - { offset: 0x4A2F3C, size: 0x8, addend: 0x0, symName: __ZNSt3__111make_uniqueB8ne200100I14llm_build_glm4JRK11llama_modelRK16llm_graph_paramsELi0EEENS_10unique_ptrIT_NS_14default_deleteIS9_EEEEDpOT0_, symObjAddr: 0x42CDC, symBinAddr: 0xB7D2C, symSize: 0x5C }
  - { offset: 0x4A2FE2, size: 0x8, addend: 0x0, symName: __ZNSt3__111make_uniqueB8ne200100I14llm_build_jaisJRK11llama_modelRK16llm_graph_paramsELi0EEENS_10unique_ptrIT_NS_14default_deleteIS9_EEEEDpOT0_, symObjAddr: 0x42EA8, symBinAddr: 0xB7EF8, symSize: 0x5C }
  - { offset: 0x4A3088, size: 0x8, addend: 0x0, symName: __ZNSt3__111make_uniqueB8ne200100I16llm_build_exaoneJRK11llama_modelRK16llm_graph_paramsELi0EEENS_10unique_ptrIT_NS_14default_deleteIS9_EEEEDpOT0_, symObjAddr: 0x42FBC, symBinAddr: 0xB800C, symSize: 0x5C }
  - { offset: 0x4A312E, size: 0x8, addend: 0x0, symName: __ZNSt3__111make_uniqueB8ne200100I19llm_build_llada_moeJRK11llama_modelRK16llm_graph_paramsELi0EEENS_10unique_ptrIT_NS_14default_deleteIS9_EEEEDpOT0_, symObjAddr: 0x41D68, symBinAddr: 0xB6DB8, symSize: 0x5C }
  - { offset: 0x4A31D4, size: 0x8, addend: 0x0, symName: __ZNSt3__111make_uniqueB8ne200100I15llm_build_rwkv7JRK11llama_modelRK16llm_graph_paramsELi0EEENS_10unique_ptrIT_NS_14default_deleteIS9_EEEEDpOT0_, symObjAddr: 0x431E4, symBinAddr: 0xB8234, symSize: 0x5C }
  - { offset: 0x4A327A, size: 0x8, addend: 0x0, symName: __ZNSt3__111make_uniqueB8ne200100I14llm_build_rnd1JRK11llama_modelRK16llm_graph_paramsELi0EEENS_10unique_ptrIT_NS_14default_deleteIS9_EEEEDpOT0_, symObjAddr: 0x41DC4, symBinAddr: 0xB6E14, symSize: 0x5C }
  - { offset: 0x4A3320, size: 0x8, addend: 0x0, symName: __ZNSt3__111make_uniqueB8ne200100I19llm_build_maincoderJRK11llama_modelRK16llm_graph_paramsELi0EEENS_10unique_ptrIT_NS_14default_deleteIS9_EEEEDpOT0_, symObjAddr: 0x417A8, symBinAddr: 0xB67F8, symSize: 0x5C }
  - { offset: 0x4A33C6, size: 0x8, addend: 0x0, symName: __ZNSt3__111make_uniqueB8ne200100I16llm_build_cogvlmJRK11llama_modelRK16llm_graph_paramsELi0EEENS_10unique_ptrIT_NS_14default_deleteIS9_EEEEDpOT0_, symObjAddr: 0x43AE0, symBinAddr: 0xB8B30, symSize: 0x5C }
  - { offset: 0x4A346C, size: 0x8, addend: 0x0, symName: __ZNSt3__111make_uniqueB8ne200100I15llm_build_llamaILb1EEJRK11llama_modelRK16llm_graph_paramsELi0EEENS_10unique_ptrIT_NS_14default_deleteISA_EEEEDpOT0_, symObjAddr: 0x4174C, symBinAddr: 0xB679C, symSize: 0x5C }
  - { offset: 0x4A3512, size: 0x8, addend: 0x0, symName: __ZNSt3__111make_uniqueB8ne200100I18llm_build_glm4_moeJRK11llama_modelRK16llm_graph_paramsELi0EEENS_10unique_ptrIT_NS_14default_deleteIS9_EEEEDpOT0_, symObjAddr: 0x42D38, symBinAddr: 0xB7D88, symSize: 0x5C }
  - { offset: 0x4A35B8, size: 0x8, addend: 0x0, symName: __ZNSt3__111make_uniqueB8ne200100I20llm_build_starcoder2JRK11llama_modelRK16llm_graph_paramsELi0EEENS_10unique_ptrIT_NS_14default_deleteIS9_EEEEDpOT0_, symObjAddr: 0x426C0, symBinAddr: 0xB7710, symSize: 0x5C }
  - { offset: 0x4A365E, size: 0x8, addend: 0x0, symName: __ZNSt3__111make_uniqueB8ne200100I14llm_build_olmoJRK11llama_modelRK16llm_graph_paramsELi0EEENS_10unique_ptrIT_NS_14default_deleteIS9_EEEEDpOT0_, symObjAddr: 0x42944, symBinAddr: 0xB7994, symSize: 0x5C }
  - { offset: 0x4A3704, size: 0x8, addend: 0x0, symName: __ZNSt3__111make_uniqueB8ne200100I15llm_build_olmoeJRK11llama_modelRK16llm_graph_paramsELi0EEENS_10unique_ptrIT_NS_14default_deleteIS9_EEEEDpOT0_, symObjAddr: 0x42A58, symBinAddr: 0xB7AA8, symSize: 0x5C }
  - { offset: 0x4A37AA, size: 0x8, addend: 0x0, symName: __ZNSt3__111make_uniqueB8ne200100I19llm_build_deepseek2JRK11llama_modelRK16llm_graph_paramsELi0EEENS_10unique_ptrIT_NS_14default_deleteIS9_EEEEDpOT0_, symObjAddr: 0x42C24, symBinAddr: 0xB7C74, symSize: 0x5C }
  - { offset: 0x4A3850, size: 0x8, addend: 0x0, symName: __ZNSt3__111make_uniqueB8ne200100I19llm_build_internlm2JRK11llama_modelRK16llm_graph_paramsELi0EEENS_10unique_ptrIT_NS_14default_deleteIS9_EEEEDpOT0_, symObjAddr: 0x423E0, symBinAddr: 0xB7430, symSize: 0x5C }
  - { offset: 0x4A38F6, size: 0x8, addend: 0x0, symName: __ZNSt3__111make_uniqueB8ne200100I24llm_build_granite_hybridJRK11llama_modelRK16llm_graph_paramsELi0EEENS_10unique_ptrIT_NS_14default_deleteIS9_EEEEDpOT0_, symObjAddr: 0x4329C, symBinAddr: 0xB82EC, symSize: 0x5C }
  - { offset: 0x4A399C, size: 0x8, addend: 0x0, symName: __ZNSt3__111make_uniqueB8ne200100I18llm_build_deepseekJRK11llama_modelRK16llm_graph_paramsELi0EEENS_10unique_ptrIT_NS_14default_deleteIS9_EEEEDpOT0_, symObjAddr: 0x42BC8, symBinAddr: 0xB7C18, symSize: 0x5C }
  - { offset: 0x4A3A42, size: 0x8, addend: 0x0, symName: __ZNSt3__111make_uniqueB8ne200100I16llm_build_arwkv7JRK11llama_modelRK16llm_graph_paramsELi0EEENS_10unique_ptrIT_NS_14default_deleteIS9_EEEEDpOT0_, symObjAddr: 0x43240, symBinAddr: 0xB8290, symSize: 0x5C }
  - { offset: 0x4A3AE8, size: 0x8, addend: 0x0, symName: __ZNSt3__111make_uniqueB8ne200100I21llm_build_gemma2_iswaJRK11llama_modelRK16llm_graph_paramsELi0EEENS_10unique_ptrIT_NS_14default_deleteIS9_EEEEDpOT0_, symObjAddr: 0x424F4, symBinAddr: 0xB7544, symSize: 0x5C }
  - { offset: 0x4A3B8E, size: 0x8, addend: 0x0, symName: __ZNSt3__111make_uniqueB8ne200100I17llm_build_openelmJRK11llama_modelRK16llm_graph_paramsELi0EEENS_10unique_ptrIT_NS_14default_deleteIS9_EEEEDpOT0_, symObjAddr: 0x42AB4, symBinAddr: 0xB7B04, symSize: 0x5C }
  - { offset: 0x4A3C34, size: 0x8, addend: 0x0, symName: __ZNSt3__111make_uniqueB8ne200100I15llm_build_orionJRK11llama_modelRK16llm_graph_paramsELi0EEENS_10unique_ptrIT_NS_14default_deleteIS9_EEEEDpOT0_, symObjAddr: 0x42384, symBinAddr: 0xB73D4, symSize: 0x5C }
  - { offset: 0x4A3CDA, size: 0x8, addend: 0x0, symName: __ZNSt3__111make_uniqueB8ne200100I17llm_build_chatglmJRK11llama_modelRK16llm_graph_paramsELi0EEENS_10unique_ptrIT_NS_14default_deleteIS9_EEEEDpOT0_, symObjAddr: 0x42C80, symBinAddr: 0xB7CD0, symSize: 0x5C }
  - { offset: 0x4A3D80, size: 0x8, addend: 0x0, symName: __ZNSt3__111make_uniqueB8ne200100I16llm_build_arcticJRK11llama_modelRK16llm_graph_paramsELi0EEENS_10unique_ptrIT_NS_14default_deleteIS9_EEEEDpOT0_, symObjAddr: 0x42B6C, symBinAddr: 0xB7BBC, symSize: 0x5C }
  - { offset: 0x4A3E26, size: 0x8, addend: 0x0, symName: __ZNSt3__111make_uniqueB8ne200100I17llm_build_exaone4ILb1EEJRK11llama_modelRK16llm_graph_paramsELi0EEENS_10unique_ptrIT_NS_14default_deleteISA_EEEEDpOT0_, symObjAddr: 0x43018, symBinAddr: 0xB8068, symSize: 0x5C }
  - { offset: 0x4A3ECC, size: 0x8, addend: 0x0, symName: __ZNSt3__111make_uniqueB8ne200100I17llm_build_qwen2vlJRK11llama_modelRK16llm_graph_paramsELi0EEENS_10unique_ptrIT_NS_14default_deleteIS9_EEEEDpOT0_, symObjAddr: 0x41E20, symBinAddr: 0xB6E70, symSize: 0x5C }
  - { offset: 0x4A3F72, size: 0x8, addend: 0x0, symName: __ZNSt3__111make_uniqueB8ne200100I22llm_build_ernie4_5_moeJRK11llama_modelRK16llm_graph_paramsELi0EEENS_10unique_ptrIT_NS_14default_deleteIS9_EEEEDpOT0_, symObjAddr: 0x43690, symBinAddr: 0xB86E0, symSize: 0x5C }
  - { offset: 0x4A4018, size: 0x8, addend: 0x0, symName: __ZNSt3__111make_uniqueB8ne200100I23llm_build_hunyuan_denseJRK11llama_modelRK16llm_graph_paramsELi0EEENS_10unique_ptrIT_NS_14default_deleteIS9_EEEEDpOT0_, symObjAddr: 0x43748, symBinAddr: 0xB8798, symSize: 0x5C }
  - { offset: 0x4A40BE, size: 0x8, addend: 0x0, symName: __ZNSt3__111make_uniqueB8ne200100I14llm_build_dbrxJRK11llama_modelRK16llm_graph_paramsELi0EEENS_10unique_ptrIT_NS_14default_deleteIS9_EEEEDpOT0_, symObjAddr: 0x428E8, symBinAddr: 0xB7938, symSize: 0x5C }
  - { offset: 0x4A4164, size: 0x8, addend: 0x0, symName: __ZNSt3__111make_uniqueB8ne200100I15llm_build_olmo2ILb1EEJRK11llama_modelRK16llm_graph_paramsELi0EEENS_10unique_ptrIT_NS_14default_deleteISA_EEEEDpOT0_, symObjAddr: 0x429A0, symBinAddr: 0xB79F0, symSize: 0x5C }
  - { offset: 0x4A420A, size: 0x8, addend: 0x0, symName: __ZNSt3__111make_uniqueB8ne200100I16llm_build_plamo2JRK11llama_modelRK16llm_graph_paramsELi0EEENS_10unique_ptrIT_NS_14default_deleteIS9_EEEEDpOT0_, symObjAddr: 0x421B8, symBinAddr: 0xB7208, symSize: 0x5C }
  - { offset: 0x4A42B0, size: 0x8, addend: 0x0, symName: __ZNSt3__111make_uniqueB8ne200100I13llm_build_plmJRK11llama_modelRK16llm_graph_paramsELi0EEENS_10unique_ptrIT_NS_14default_deleteIS9_EEEEDpOT0_, symObjAddr: 0x433B0, symBinAddr: 0xB8400, symSize: 0x5C }
  - { offset: 0x4A4356, size: 0x8, addend: 0x0, symName: __ZNSt3__111make_uniqueB8ne200100I20llm_build_bailingmoeJRK11llama_modelRK16llm_graph_paramsELi0EEENS_10unique_ptrIT_NS_14default_deleteIS9_EEEEDpOT0_, symObjAddr: 0x4340C, symBinAddr: 0xB845C, symSize: 0x5C }
  - { offset: 0x4A43FC, size: 0x8, addend: 0x0, symName: __ZNSt3__111make_uniqueB8ne200100I16llm_build_xverseJRK11llama_modelRK16llm_graph_paramsELi0EEENS_10unique_ptrIT_NS_14default_deleteIS9_EEEEDpOT0_, symObjAddr: 0x427D4, symBinAddr: 0xB7824, symSize: 0x5C }
  - { offset: 0x4A44A2, size: 0x8, addend: 0x0, symName: __ZNSt3__111make_uniqueB8ne200100I15llm_build_plamoJRK11llama_modelRK16llm_graph_paramsELi0EEENS_10unique_ptrIT_NS_14default_deleteIS9_EEEEDpOT0_, symObjAddr: 0x4215C, symBinAddr: 0xB71AC, symSize: 0x5C }
  - { offset: 0x4A4548, size: 0x8, addend: 0x0, symName: __ZNSt3__111make_uniqueB8ne200100I16llm_build_plamo3ILb1EEJRK11llama_modelRK16llm_graph_paramsELi0EEENS_10unique_ptrIT_NS_14default_deleteISA_EEEEDpOT0_, symObjAddr: 0x42214, symBinAddr: 0xB7264, symSize: 0x5C }
  - { offset: 0x4A45EE, size: 0x8, addend: 0x0, symName: __ZNSt3__111make_uniqueB8ne200100I19llm_build_codeshellJRK11llama_modelRK16llm_graph_paramsELi0EEENS_10unique_ptrIT_NS_14default_deleteIS9_EEEEDpOT0_, symObjAddr: 0x42328, symBinAddr: 0xB7378, symSize: 0x5C }
  - { offset: 0x4A4694, size: 0x8, addend: 0x0, symName: __ZNSt3__111make_uniqueB8ne200100I14llm_build_qwenJRK11llama_modelRK16llm_graph_paramsELi0EEENS_10unique_ptrIT_NS_14default_deleteIS9_EEEEDpOT0_, symObjAddr: 0x41BF8, symBinAddr: 0xB6C48, symSize: 0x5C }
  - { offset: 0x4A473A, size: 0x8, addend: 0x0, symName: __ZNSt3__111make_uniqueB8ne200100I21llm_build_kimi_linearJRK11llama_modelRK16llm_graph_paramsELi0EEENS_10unique_ptrIT_NS_14default_deleteIS9_EEEEDpOT0_, symObjAddr: 0x43D64, symBinAddr: 0xB8DB4, symSize: 0x5C }
  - { offset: 0x4A47E0, size: 0x8, addend: 0x0, symName: __ZNSt3__111make_uniqueB8ne200100I21llm_build_step35_iswaJRK11llama_modelRK16llm_graph_paramsELi0EEENS_10unique_ptrIT_NS_14default_deleteIS9_EEEEDpOT0_, symObjAddr: 0x43DC0, symBinAddr: 0xB8E10, symSize: 0x5C }
  - { offset: 0x4A4886, size: 0x8, addend: 0x0, symName: __ZNSt3__111make_uniqueB8ne200100I18llm_build_stablelmJRK11llama_modelRK16llm_graph_paramsELi0EEENS_10unique_ptrIT_NS_14default_deleteIS9_EEEEDpOT0_, symObjAddr: 0x41B9C, symBinAddr: 0xB6BEC, symSize: 0x5C }
  - { offset: 0x4A492C, size: 0x8, addend: 0x0, symName: __ZNSt3__111make_uniqueB8ne200100I16llm_build_refactJRK11llama_modelRK16llm_graph_paramsELi0EEENS_10unique_ptrIT_NS_14default_deleteIS9_EEEEDpOT0_, symObjAddr: 0x419D0, symBinAddr: 0xB6A20, symSize: 0x5C }
  - { offset: 0x4A49D2, size: 0x8, addend: 0x0, symName: __ZNSt3__111make_uniqueB8ne200100I19llm_build_command_rJRK11llama_modelRK16llm_graph_paramsELi0EEENS_10unique_ptrIT_NS_14default_deleteIS9_EEEEDpOT0_, symObjAddr: 0x42830, symBinAddr: 0xB7880, symSize: 0x5C }
  - { offset: 0x4A4A78, size: 0x8, addend: 0x0, symName: __ZNSt3__111make_uniqueB8ne200100I16llm_build_gemma3ILb1EEJRK11llama_modelRK16llm_graph_paramsELi0EEENS_10unique_ptrIT_NS_14default_deleteISA_EEEEDpOT0_, symObjAddr: 0x42550, symBinAddr: 0xB75A0, symSize: 0x5C }
  - { offset: 0x4A4B1E, size: 0x8, addend: 0x0, symName: __ZNSt3__111make_uniqueB8ne200100I18llm_build_nemotronJRK11llama_modelRK16llm_graph_paramsELi0EEENS_10unique_ptrIT_NS_14default_deleteIS9_EEEEDpOT0_, symObjAddr: 0x42F04, symBinAddr: 0xB7F54, symSize: 0x5C }
  - { offset: 0x4A4BC4, size: 0x8, addend: 0x0, symName: __ZNSt3__111make_uniqueB8ne200100I17llm_build_gptneoxJRK11llama_modelRK16llm_graph_paramsELi0EEENS_10unique_ptrIT_NS_14default_deleteIS9_EEEEDpOT0_, symObjAddr: 0x42B10, symBinAddr: 0xB7B60, symSize: 0x5C }
  - { offset: 0x4A4C6A, size: 0x8, addend: 0x0, symName: __ZNSt3__111make_uniqueB8ne200100I18llm_build_neo_bertJRK11llama_modelRK16llm_graph_paramsELi0EEENS_10unique_ptrIT_NS_14default_deleteIS9_EEEEDpOT0_, symObjAddr: 0x41A88, symBinAddr: 0xB6AD8, symSize: 0x5C }
  - { offset: 0x4A4D10, size: 0x8, addend: 0x0, symName: __ZNSt3__111make_uniqueB8ne200100I15llm_build_qwen2JRK11llama_modelRK16llm_graph_paramsELi0EEENS_10unique_ptrIT_NS_14default_deleteIS9_EEEEDpOT0_, symObjAddr: 0x41C54, symBinAddr: 0xB6CA4, symSize: 0x5C }
  - { offset: 0x4A4DB6, size: 0x8, addend: 0x0, symName: __ZNSt3__111make_uniqueB8ne200100I18llm_build_minicpm3JRK11llama_modelRK16llm_graph_paramsELi0EEENS_10unique_ptrIT_NS_14default_deleteIS9_EEEEDpOT0_, symObjAddr: 0x4243C, symBinAddr: 0xB748C, symSize: 0x5C }
  - { offset: 0x4A4E5C, size: 0x8, addend: 0x0, symName: __ZNSt3__111make_uniqueB8ne200100I21llm_build_modern_bertJRK11llama_modelRK16llm_graph_paramsELi0EEENS_10unique_ptrIT_NS_14default_deleteIS9_EEEEDpOT0_, symObjAddr: 0x41A2C, symBinAddr: 0xB6A7C, symSize: 0x5C }
  - { offset: 0x4A4F02, size: 0x8, addend: 0x0, symName: __ZNSt3__111make_uniqueB8ne200100I19llm_build_qwen3nextJRK11llama_modelRK16llm_graph_paramsELi0EEENS_10unique_ptrIT_NS_14default_deleteIS9_EEEEDpOT0_, symObjAddr: 0x43B98, symBinAddr: 0xB8BE8, symSize: 0x5C }
  - { offset: 0x4A4FA8, size: 0x8, addend: 0x0, symName: __ZNSt3__111make_uniqueB8ne200100I18llm_build_baichuanJRK11llama_modelRK16llm_graph_paramsELi0EEENS_10unique_ptrIT_NS_14default_deleteIS9_EEEEDpOT0_, symObjAddr: 0x41860, symBinAddr: 0xB68B0, symSize: 0x5C }
  - { offset: 0x4A504E, size: 0x8, addend: 0x0, symName: __ZNSt3__111make_uniqueB8ne200100I16llm_build_falconJRK11llama_modelRK16llm_graph_paramsELi0EEENS_10unique_ptrIT_NS_14default_deleteIS9_EEEEDpOT0_, symObjAddr: 0x418BC, symBinAddr: 0xB690C, symSize: 0x5C }
  - { offset: 0x4A50F4, size: 0x8, addend: 0x0, symName: __ZNSt3__111make_uniqueB8ne200100I19llm_build_qwen35moeJRK11llama_modelRK16llm_graph_paramsELi0EEENS_10unique_ptrIT_NS_14default_deleteIS9_EEEEDpOT0_, symObjAddr: 0x43C50, symBinAddr: 0xB8CA0, symSize: 0x5C }
  - { offset: 0x4A519A, size: 0x8, addend: 0x0, symName: __ZNSt3__111make_uniqueB8ne200100I14llm_build_phi2JRK11llama_modelRK16llm_graph_paramsELi0EEENS_10unique_ptrIT_NS_14default_deleteIS9_EEEEDpOT0_, symObjAddr: 0x42048, symBinAddr: 0xB7098, symSize: 0x5C }
  - { offset: 0x4A5240, size: 0x8, addend: 0x0, symName: __ZNSt3__111make_uniqueB8ne200100I14llm_build_deciJRK11llama_modelRK16llm_graph_paramsELi0EEENS_10unique_ptrIT_NS_14default_deleteIS9_EEEEDpOT0_, symObjAddr: 0x41804, symBinAddr: 0xB6854, symSize: 0x5C }
  - { offset: 0x4A52E6, size: 0x8, addend: 0x0, symName: __ZNSt3__111make_uniqueB8ne200100I15llm_build_jambaJRK11llama_modelRK16llm_graph_paramsELi0EEENS_10unique_ptrIT_NS_14default_deleteIS9_EEEEDpOT0_, symObjAddr: 0x42778, symBinAddr: 0xB77C8, symSize: 0x5C }
  - { offset: 0x4A538C, size: 0x8, addend: 0x0, symName: __ZNSt3__111make_uniqueB8ne200100I14llm_build_gpt2JRK11llama_modelRK16llm_graph_paramsELi0EEENS_10unique_ptrIT_NS_14default_deleteIS9_EEEEDpOT0_, symObjAddr: 0x422CC, symBinAddr: 0xB731C, symSize: 0x5C }
  - { offset: 0x4A5432, size: 0x8, addend: 0x0, symName: __ZNSt3__111make_uniqueB8ne200100I20llm_build_qwen3vlmoeJRK11llama_modelRK16llm_graph_paramsELi0EEENS_10unique_ptrIT_NS_14default_deleteIS9_EEEEDpOT0_, symObjAddr: 0x41FEC, symBinAddr: 0xB703C, symSize: 0x5C }
  - { offset: 0x4A54D8, size: 0x8, addend: 0x0, symName: __ZNSt3__111make_uniqueB8ne200100I20llm_build_llama_iswaJRK11llama_modelRK16llm_graph_paramsELi0EEENS_10unique_ptrIT_NS_14default_deleteIS9_EEEEDpOT0_, symObjAddr: 0x416F0, symBinAddr: 0xB6740, symSize: 0x5C }
  - { offset: 0x4A557E, size: 0x8, addend: 0x0, symName: __ZNSt3__111make_uniqueB8ne200100I15llm_build_llamaILb0EEJRK11llama_modelRK16llm_graph_paramsELi0EEENS_10unique_ptrIT_NS_14default_deleteISA_EEEEDpOT0_, symObjAddr: 0x41694, symBinAddr: 0xB66E4, symSize: 0x5C }
  - { offset: 0x4A5624, size: 0x8, addend: 0x0, symName: __ZNSt3__111make_uniqueB8ne200100I20llm_build_mimo2_iswaJRK11llama_modelRK16llm_graph_paramsELi0EEENS_10unique_ptrIT_NS_14default_deleteIS9_EEEEDpOT0_, symObjAddr: 0x43D08, symBinAddr: 0xB8D58, symSize: 0x5C }
  - { offset: 0x4A56CA, size: 0x8, addend: 0x0, symName: __ZNSt3__111make_uniqueB8ne200100I14llm_build_grokJRK11llama_modelRK16llm_graph_paramsELi0EEENS_10unique_ptrIT_NS_14default_deleteIS9_EEEEDpOT0_, symObjAddr: 0x41918, symBinAddr: 0xB6968, symSize: 0x5C }
  - { offset: 0x4A5770, size: 0x8, addend: 0x0, symName: __ZNSt3__111make_uniqueB8ne200100I16llm_build_qwen35JRK11llama_modelRK16llm_graph_paramsELi0EEENS_10unique_ptrIT_NS_14default_deleteIS9_EEEEDpOT0_, symObjAddr: 0x43BF4, symBinAddr: 0xB8C44, symSize: 0x5C }
  - { offset: 0x4A5816, size: 0x8, addend: 0x0, symName: __ZNSt3__111make_uniqueB8ne200100I13llm_build_mptJRK11llama_modelRK16llm_graph_paramsELi0EEENS_10unique_ptrIT_NS_14default_deleteIS9_EEEEDpOT0_, symObjAddr: 0x41B40, symBinAddr: 0xB6B90, symSize: 0x5C }
  - { offset: 0x4A58BC, size: 0x8, addend: 0x0, symName: __ZNSt3__111make_uniqueB8ne200100I19llm_build_starcoderJRK11llama_modelRK16llm_graph_paramsELi0EEENS_10unique_ptrIT_NS_14default_deleteIS9_EEEEDpOT0_, symObjAddr: 0x41974, symBinAddr: 0xB69C4, symSize: 0x5C }
  - { offset: 0x4A5962, size: 0x8, addend: 0x0, symName: __ZNSt3__111make_uniqueB8ne200100I15llm_build_bloomJRK11llama_modelRK16llm_graph_paramsELi0EEENS_10unique_ptrIT_NS_14default_deleteIS9_EEEEDpOT0_, symObjAddr: 0x41AE4, symBinAddr: 0xB6B34, symSize: 0x5C }
  - { offset: 0x4A5A08, size: 0x8, addend: 0x0, symName: __ZNSt3__111make_uniqueB8ne200100I15llm_build_qwen3JRK11llama_modelRK16llm_graph_paramsELi0EEENS_10unique_ptrIT_NS_14default_deleteIS9_EEEEDpOT0_, symObjAddr: 0x41ED8, symBinAddr: 0xB6F28, symSize: 0x5C }
  - { offset: 0x4A5AAE, size: 0x8, addend: 0x0, symName: __ZNSt3__111make_uniqueB8ne200100I18llm_build_qwen2moeJRK11llama_modelRK16llm_graph_paramsELi0EEENS_10unique_ptrIT_NS_14default_deleteIS9_EEEEDpOT0_, symObjAddr: 0x41E7C, symBinAddr: 0xB6ECC, symSize: 0x5C }
  - { offset: 0x4A5B54, size: 0x8, addend: 0x0, symName: __ZNSt3__111make_uniqueB8ne200100I17llm_build_qwen3vlJRK11llama_modelRK16llm_graph_paramsELi0EEENS_10unique_ptrIT_NS_14default_deleteIS9_EEEEDpOT0_, symObjAddr: 0x41F90, symBinAddr: 0xB6FE0, symSize: 0x5C }
  - { offset: 0x4A5BFA, size: 0x8, addend: 0x0, symName: __ZNSt3__111make_uniqueB8ne200100I15llm_build_rwkv6JRK11llama_modelRK16llm_graph_paramsELi0EEENS_10unique_ptrIT_NS_14default_deleteIS9_EEEEDpOT0_, symObjAddr: 0x4312C, symBinAddr: 0xB817C, symSize: 0x5C }
  - { offset: 0x4A5CA0, size: 0x8, addend: 0x0, symName: __ZNSt3__111make_uniqueB8ne200100I22llm_build_gemma3n_iswaJRK11llama_modelRK16llm_graph_paramsELi0EEENS_10unique_ptrIT_NS_14default_deleteIS9_EEEEDpOT0_, symObjAddr: 0x42608, symBinAddr: 0xB7658, symSize: 0x5C }
  - { offset: 0x4A5D46, size: 0x8, addend: 0x0, symName: __ZNSt3__111make_uniqueB8ne200100I21llm_build_bailingmoe2JRK11llama_modelRK16llm_graph_paramsELi0EEENS_10unique_ptrIT_NS_14default_deleteIS9_EEEEDpOT0_, symObjAddr: 0x43468, symBinAddr: 0xB84B8, symSize: 0x5C }
  - { offset: 0x4A5DEC, size: 0x8, addend: 0x0, symName: __ZNSt3__111make_uniqueB8ne200100I18llm_build_qwen3moeJRK11llama_modelRK16llm_graph_paramsELi0EEENS_10unique_ptrIT_NS_14default_deleteIS9_EEEEDpOT0_, symObjAddr: 0x41F34, symBinAddr: 0xB6F84, symSize: 0x5C }
  - { offset: 0x4A5E92, size: 0x8, addend: 0x0, symName: __ZNSt3__111make_uniqueB8ne200100I18llm_build_grovemoeJRK11llama_modelRK16llm_graph_paramsELi0EEENS_10unique_ptrIT_NS_14default_deleteIS9_EEEEDpOT0_, symObjAddr: 0x439CC, symBinAddr: 0xB8A1C, symSize: 0x5C }
  - { offset: 0x4A5F38, size: 0x8, addend: 0x0, symName: __ZNSt3__111make_uniqueB8ne200100I16llm_build_bitnetJRK11llama_modelRK16llm_graph_paramsELi0EEENS_10unique_ptrIT_NS_14default_deleteIS9_EEEEDpOT0_, symObjAddr: 0x42D94, symBinAddr: 0xB7DE4, symSize: 0x5C }
  - { offset: 0x4A5FDE, size: 0x8, addend: 0x0, symName: __ZNSt3__111make_uniqueB8ne200100I18llm_build_seed_ossJRK11llama_modelRK16llm_graph_paramsELi0EEENS_10unique_ptrIT_NS_14default_deleteIS9_EEEEDpOT0_, symObjAddr: 0x434C4, symBinAddr: 0xB8514, symSize: 0x5C }
  - { offset: 0x4A6084, size: 0x8, addend: 0x0, symName: __ZNSt3__111make_uniqueB8ne200100I15llm_build_lladaJRK11llama_modelRK16llm_graph_paramsELi0EEENS_10unique_ptrIT_NS_14default_deleteIS9_EEEEDpOT0_, symObjAddr: 0x41D0C, symBinAddr: 0xB6D5C, symSize: 0x5C }
  - { offset: 0x4A612A, size: 0x8, addend: 0x0, symName: __ZNSt3__111make_uniqueB8ne200100I15llm_build_gemmaJRK11llama_modelRK16llm_graph_paramsELi0EEENS_10unique_ptrIT_NS_14default_deleteIS9_EEEEDpOT0_, symObjAddr: 0x42498, symBinAddr: 0xB74E8, symSize: 0x5C }
  - { offset: 0x4A61D0, size: 0x8, addend: 0x0, symName: __ZNSt3__111make_uniqueB8ne200100I19llm_build_falcon_h1JRK11llama_modelRK16llm_graph_paramsELi0EEENS_10unique_ptrIT_NS_14default_deleteIS9_EEEEDpOT0_, symObjAddr: 0x4385C, symBinAddr: 0xB88AC, symSize: 0x5C }
  - { offset: 0x4A6276, size: 0x8, addend: 0x0, symName: __ZNSt3__111make_uniqueB8ne200100I17llm_build_smollm3JRK11llama_modelRK16llm_graph_paramsELi0EEENS_10unique_ptrIT_NS_14default_deleteIS9_EEEEDpOT0_, symObjAddr: 0x437A4, symBinAddr: 0xB87F4, symSize: 0x5C }
  - { offset: 0x4A631C, size: 0x8, addend: 0x0, symName: __ZNSt3__111make_uniqueB8ne200100I22llm_build_smallthinkerILb1EEJRK11llama_modelRK16llm_graph_paramsELi0EEENS_10unique_ptrIT_NS_14default_deleteISA_EEEEDpOT0_, symObjAddr: 0x43914, symBinAddr: 0xB8964, symSize: 0x5C }
  - { offset: 0x4A63C2, size: 0x8, addend: 0x0, symName: __ZNSt3__111make_uniqueB8ne200100I16llm_build_t5_decJRK11llama_modelRK16llm_graph_paramsELi0EEENS_10unique_ptrIT_NS_14default_deleteIS9_EEEEDpOT0_, symObjAddr: 0x42E4C, symBinAddr: 0xB7E9C, symSize: 0x5C }
  - { offset: 0x4A6468, size: 0x8, addend: 0x0, symName: __ZNSt3__111make_uniqueB8ne200100I25llm_build_gemma_embeddingJRK11llama_modelRK16llm_graph_paramsELi0EEENS_10unique_ptrIT_NS_14default_deleteIS9_EEEEDpOT0_, symObjAddr: 0x42664, symBinAddr: 0xB76B4, symSize: 0x5C }
  - { offset: 0x4A650E, size: 0x8, addend: 0x0, symName: __ZNSt3__111make_uniqueB8ne200100I22llm_build_cohere2_iswaJRK11llama_modelRK16llm_graph_paramsELi0EEENS_10unique_ptrIT_NS_14default_deleteIS9_EEEEDpOT0_, symObjAddr: 0x4288C, symBinAddr: 0xB78DC, symSize: 0x5C }
  - { offset: 0x4A65B4, size: 0x8, addend: 0x0, symName: __ZNSt3__111make_uniqueB8ne200100I15llm_build_afmoeJRK11llama_modelRK16llm_graph_paramsELi0EEENS_10unique_ptrIT_NS_14default_deleteIS9_EEEEDpOT0_, symObjAddr: 0x435D8, symBinAddr: 0xB8628, symSize: 0x5C }
  - { offset: 0x4A665A, size: 0x8, addend: 0x0, symName: __ZNSt3__111make_uniqueB8ne200100I15llm_build_arceeJRK11llama_modelRK16llm_graph_paramsELi0EEENS_10unique_ptrIT_NS_14default_deleteIS9_EEEEDpOT0_, symObjAddr: 0x4357C, symBinAddr: 0xB85CC, symSize: 0x5C }
  - { offset: 0x4A6700, size: 0x8, addend: 0x0, symName: __ZNSt3__111make_uniqueB8ne200100I26llm_build_wavtokenizer_decJRK11llama_modelRK16llm_graph_paramsELi0EEENS_10unique_ptrIT_NS_14default_deleteIS9_EEEEDpOT0_, symObjAddr: 0x43354, symBinAddr: 0xB83A4, symSize: 0x5C }
  - { offset: 0x4A67A6, size: 0x8, addend: 0x0, symName: __ZNSt3__111make_uniqueB8ne200100I19llm_build_chameleonJRK11llama_modelRK16llm_graph_paramsELi0EEENS_10unique_ptrIT_NS_14default_deleteIS9_EEEEDpOT0_, symObjAddr: 0x432F8, symBinAddr: 0xB8348, symSize: 0x5C }
  - { offset: 0x4A684C, size: 0x8, addend: 0x0, symName: __ZNSt3__111make_uniqueB8ne200100I20llm_build_rwkv6qwen2JRK11llama_modelRK16llm_graph_paramsELi0EEENS_10unique_ptrIT_NS_14default_deleteIS9_EEEEDpOT0_, symObjAddr: 0x43188, symBinAddr: 0xB81D8, symSize: 0x5C }
  - { offset: 0x4A68F2, size: 0x8, addend: 0x0, symName: __ZNSt3__111make_uniqueB8ne200100I20llm_build_exaone_moeJRK11llama_modelRK16llm_graph_paramsELi0EEENS_10unique_ptrIT_NS_14default_deleteIS9_EEEEDpOT0_, symObjAddr: 0x430D0, symBinAddr: 0xB8120, symSize: 0x5C }
  - { offset: 0x4A6998, size: 0x8, addend: 0x0, symName: __ZNSt3__111make_uniqueB8ne200100I15llm_build_dreamJRK11llama_modelRK16llm_graph_paramsELi0EEENS_10unique_ptrIT_NS_14default_deleteIS9_EEEEDpOT0_, symObjAddr: 0x41CB0, symBinAddr: 0xB6D00, symSize: 0x5C }
  - { offset: 0x4A6A3E, size: 0x8, addend: 0x0, symName: __ZNSt3__111make_uniqueB8ne200100I18llm_build_ernie4_5JRK11llama_modelRK16llm_graph_paramsELi0EEENS_10unique_ptrIT_NS_14default_deleteIS9_EEEEDpOT0_, symObjAddr: 0x43634, symBinAddr: 0xB8684, symSize: 0x5C }
  - { offset: 0x4A6AE4, size: 0x8, addend: 0x0, symName: __ZNSt3__111make_uniqueB8ne200100I18llm_build_mistral3JRK11llama_modelRK16llm_graph_paramsELi0EEENS_10unique_ptrIT_NS_14default_deleteIS9_EEEEDpOT0_, symObjAddr: 0x43CAC, symBinAddr: 0xB8CFC, symSize: 0x5C }
  - { offset: 0x4A6B8A, size: 0x8, addend: 0x0, symName: __ZNSt3__111make_uniqueB8ne200100I14llm_build_phi3ILb0EEJRK11llama_modelRK16llm_graph_paramsELi0EEENS_10unique_ptrIT_NS_14default_deleteISA_EEEEDpOT0_, symObjAddr: 0x42100, symBinAddr: 0xB7150, symSize: 0x5C }
  - { offset: 0x4A6C30, size: 0x8, addend: 0x0, symName: __ZNSt3__111make_uniqueB8ne200100I17llm_build_exaone4ILb0EEJRK11llama_modelRK16llm_graph_paramsELi0EEENS_10unique_ptrIT_NS_14default_deleteISA_EEEEDpOT0_, symObjAddr: 0x43074, symBinAddr: 0xB80C4, symSize: 0x5C }
  - { offset: 0x4A6CD6, size: 0x8, addend: 0x0, symName: __ZNSt3__111make_uniqueB8ne200100I15llm_build_olmo2ILb0EEJRK11llama_modelRK16llm_graph_paramsELi0EEENS_10unique_ptrIT_NS_14default_deleteISA_EEEEDpOT0_, symObjAddr: 0x429FC, symBinAddr: 0xB7A4C, symSize: 0x5C }
  - { offset: 0x4A6D7C, size: 0x8, addend: 0x0, symName: __ZNSt3__111make_uniqueB8ne200100I16llm_build_gemma3ILb0EEJRK11llama_modelRK16llm_graph_paramsELi0EEENS_10unique_ptrIT_NS_14default_deleteISA_EEEEDpOT0_, symObjAddr: 0x425AC, symBinAddr: 0xB75FC, symSize: 0x5C }
  - { offset: 0x4A6E22, size: 0x8, addend: 0x0, symName: __ZNSt3__111make_uniqueB8ne200100I22llm_build_smallthinkerILb0EEJRK11llama_modelRK16llm_graph_paramsELi0EEENS_10unique_ptrIT_NS_14default_deleteISA_EEEEDpOT0_, symObjAddr: 0x43970, symBinAddr: 0xB89C0, symSize: 0x5C }
  - { offset: 0x4A6EC8, size: 0x8, addend: 0x0, symName: __ZNSt3__111make_uniqueB8ne200100I16llm_build_plamo3ILb0EEJRK11llama_modelRK16llm_graph_paramsELi0EEENS_10unique_ptrIT_NS_14default_deleteISA_EEEEDpOT0_, symObjAddr: 0x42270, symBinAddr: 0xB72C0, symSize: 0x5C }
  - { offset: 0x4A6F6E, size: 0x8, addend: 0x0, symName: __ZNSt3__111make_uniqueB8ne200100I16llm_build_t5_encJRK11llama_modelRK16llm_graph_paramsELi0EEENS_10unique_ptrIT_NS_14default_deleteIS9_EEEEDpOT0_, symObjAddr: 0x42DF0, symBinAddr: 0xB7E40, symSize: 0x5C }
  - { offset: 0x4B6FDF, size: 0x8, addend: 0x0, symName: __ZN11llama_model12load_tensorsER18llama_model_loader, symObjAddr: 0x678C, symBinAddr: 0x7B7DC, symSize: 0x36EF4 }
  - { offset: 0x5514F0, size: 0x8, addend: 0x0, symName: __ZNK11llama_model10print_infoEv, symObjAddr: 0x3EAF8, symBinAddr: 0xB3B48, symSize: 0x12AC }
  - { offset: 0x554873, size: 0x8, addend: 0x0, symName: __ZNK11llama_model13create_memoryERK19llama_memory_paramsRK13llama_cparams, symObjAddr: 0x40538, symBinAddr: 0xB5588, symSize: 0x5A4 }
  - { offset: 0x55D8C6, size: 0x8, addend: 0x0, symName: __Z13llm_type_name8llm_type, symObjAddr: 0x0, symBinAddr: 0x750D0, symSize: 0x28 }
  - { offset: 0x55D968, size: 0x8, addend: 0x0, symName: __ZNSt3__13mapI23llama_rope_scaling_typePKcNS_4lessIS1_EENS_9allocatorINS_4pairIKS1_S3_EEEEED1B8ne200100Ev, symObjAddr: 0x28, symBinAddr: 0x750F8, symSize: 0x28 }
  - { offset: 0x55DA1C, size: 0x8, addend: 0x0, symName: __ZNSt3__16__treeINS_12__value_typeI23llama_rope_scaling_typePKcEENS_19__map_value_compareIS2_S5_NS_4lessIS2_EELb1EEENS_9allocatorIS5_EEE7destroyEPNS_11__tree_nodeIS5_PvEE, symObjAddr: 0x50964, symBinAddr: 0xBD870, symSize: 0x44 }
  - { offset: 0x55DE23, size: 0x8, addend: 0x0, symName: __Z28llama_rope_scaling_type_name23llama_rope_scaling_type, symObjAddr: 0x50, symBinAddr: 0x75120, symSize: 0xE0 }
  - { offset: 0x55E14C, size: 0x8, addend: 0x0, symName: __ZN11llama_modelC2ERK18llama_model_params, symObjAddr: 0x130, symBinAddr: 0x75200, symSize: 0x2FC }
  - { offset: 0x55E6A4, size: 0x8, addend: 0x0, symName: __ZN11llama_modelC2ERK18llama_model_params, symObjAddr: 0x130, symBinAddr: 0x75200, symSize: 0x2FC }
  - { offset: 0x55ED67, size: 0x8, addend: 0x0, symName: __ZNSt3__113unordered_setIP18llama_adapter_loraNS_4hashIS2_EENS_8equal_toIS2_EENS_9allocatorIS2_EEED1B8ne200100Ev, symObjAddr: 0x42C, symBinAddr: 0x754FC, symSize: 0x48 }
  - { offset: 0x55EFFA, size: 0x8, addend: 0x0, symName: __ZNSt3__16vectorINS_4pairINS_12basic_stringIcNS_11char_traitsIcEENS_9allocatorIcEEEEP11ggml_tensorEENS5_ISA_EEED1B8ne200100Ev, symObjAddr: 0x474, symBinAddr: 0x75544, symSize: 0x70 }
  - { offset: 0x55F286, size: 0x8, addend: 0x0, symName: __ZNSt3__113unordered_mapINS_12basic_stringIcNS_11char_traitsIcEENS_9allocatorIcEEEES6_NS_4hashIS6_EENS_8equal_toIS6_EENS4_INS_4pairIKS6_S6_EEEEED1B8ne200100Ev, symObjAddr: 0x4E4, symBinAddr: 0x755B4, symSize: 0x84 }
  - { offset: 0x56000F, size: 0x8, addend: 0x0, symName: __ZN11llama_modelC1ERK18llama_model_params, symObjAddr: 0x5D8, symBinAddr: 0x75638, symSize: 0x4 }
  - { offset: 0x56004C, size: 0x8, addend: 0x0, symName: __ZN11llama_modelC1ERK18llama_model_params, symObjAddr: 0x5D8, symBinAddr: 0x75638, symSize: 0x4 }
  - { offset: 0x56018B, size: 0x8, addend: 0x0, symName: __ZN11llama_modelD2Ev, symObjAddr: 0x5DC, symBinAddr: 0x7563C, symSize: 0x1C4 }
  - { offset: 0x5612B6, size: 0x8, addend: 0x0, symName: __ZN11llama_model4implD2Ev, symObjAddr: 0x509A8, symBinAddr: 0xBD8B4, symSize: 0x16C }
  - { offset: 0x5626A1, size: 0x8, addend: 0x0, symName: __ZN11llama_modelD1Ev, symObjAddr: 0x7B0, symBinAddr: 0x75800, symSize: 0x4 }
  - { offset: 0x5626C4, size: 0x8, addend: 0x0, symName: __ZN11llama_modelD1Ev, symObjAddr: 0x7B0, symBinAddr: 0x75800, symSize: 0x4 }
  - { offset: 0x5626F3, size: 0x8, addend: 0x0, symName: __ZN11llama_model10load_statsER18llama_model_loader, symObjAddr: 0x7B4, symBinAddr: 0x75804, symSize: 0x10 }
  - { offset: 0x56272B, size: 0x8, addend: 0x0, symName: __ZN11llama_model10load_statsER18llama_model_loader, symObjAddr: 0x7B4, symBinAddr: 0x75804, symSize: 0x10 }
  - { offset: 0x56279C, size: 0x8, addend: 0x0, symName: __ZN11llama_model9load_archER18llama_model_loader, symObjAddr: 0x7C4, symBinAddr: 0x75814, symSize: 0x174 }
  - { offset: 0x562E6F, size: 0x8, addend: 0x0, symName: __ZN11llama_model12load_hparamsER18llama_model_loader, symObjAddr: 0x938, symBinAddr: 0x75988, symSize: 0x5BF8 }
  - { offset: 0x5659B9, size: 0x8, addend: 0x0, symName: _llama_model_rope_type, symObjAddr: 0x6680, symBinAddr: 0x7B6D0, symSize: 0xBC }
  - { offset: 0x5659E7, size: 0x8, addend: 0x0, symName: __ZN11llama_model10load_vocabER18llama_model_loader, symObjAddr: 0x673C, symBinAddr: 0x7B78C, symSize: 0x50 }
  - { offset: 0x565A0F, size: 0x8, addend: 0x0, symName: __ZNK11llama_model9arch_nameEv, symObjAddr: 0x6530, symBinAddr: 0x7B580, symSize: 0xA8 }
  - { offset: 0x565C78, size: 0x8, addend: 0x0, symName: __ZNK11llama_model9type_nameEv, symObjAddr: 0x65D8, symBinAddr: 0x7B628, symSize: 0xA8 }
  - { offset: 0x565C83, size: 0x8, addend: 0x0, symName: __ZNK11llama_model9type_nameEv, symObjAddr: 0x65D8, symBinAddr: 0x7B628, symSize: 0xA8 }
  - { offset: 0x565EEC, size: 0x8, addend: 0x0, symName: _llama_model_rope_type, symObjAddr: 0x6680, symBinAddr: 0x7B6D0, symSize: 0xBC }
  - { offset: 0x565EF7, size: 0x8, addend: 0x0, symName: __ZN11llama_model10load_vocabER18llama_model_loader, symObjAddr: 0x673C, symBinAddr: 0x7B78C, symSize: 0x50 }
  - { offset: 0x5695F3, size: 0x8, addend: 0x0, symName: __ZNSt3__16vectorINS_4pairIP19ggml_backend_deviceP24ggml_backend_buffer_typeEENS_9allocatorIS6_EEE18__insert_with_sizeB8ne200100INS_11__wrap_iterIPS6_EESD_EESD_NSB_IPKS6_EET_T0_l, symObjAddr: 0x51930, symBinAddr: 0xBDB18, symSize: 0x540 }
  - { offset: 0x56A181, size: 0x8, addend: 0x0, symName: __ZNSt3__16vectorIN11llama_model4impl9layer_devENS_9allocatorIS3_EEE8__appendEm, symObjAddr: 0x51E84, symBinAddr: 0xBE058, symSize: 0x120 }
  - { offset: 0x56A55F, size: 0x8, addend: 0x0, symName: __ZNSt3__16vectorIN11llama_model4impl9layer_devENS_9allocatorIS3_EEE20__throw_length_errorB8ne200100Ev, symObjAddr: 0x51FA4, symBinAddr: 0xBE178, symSize: 0x14 }
  - { offset: 0x56A57B, size: 0x8, addend: 0x0, symName: '__ZZN11llama_model12load_tensorsER18llama_model_loaderENK3$_1clEi', symObjAddr: 0x3D6B4, symBinAddr: 0xB2704, symSize: 0x1B8 }
  - { offset: 0x56A8D4, size: 0x8, addend: 0x0, symName: __ZNSt3__16vectorI11llama_layerNS_9allocatorIS1_EEE6resizeEm, symObjAddr: 0x3D86C, symBinAddr: 0xB28BC, symSize: 0x44 }
  - { offset: 0x56A8EC, size: 0x8, addend: 0x0, symName: __ZNSt3__16vectorI11llama_layerNS_9allocatorIS1_EEE8__appendEm, symObjAddr: 0x52020, symBinAddr: 0xBE1F4, symSize: 0x1A4 }
  - { offset: 0x56AD01, size: 0x8, addend: 0x0, symName: __ZNSt3__16vectorI11llama_layerNS_9allocatorIS1_EEE20__throw_length_errorB8ne200100Ev, symObjAddr: 0x521C4, symBinAddr: 0xBE398, symSize: 0x14 }
  - { offset: 0x56AD3F, size: 0x8, addend: 0x0, symName: '__ZZN11llama_model12load_tensorsER18llama_model_loaderENK3$_3clERK11LLM_TN_IMPLRKSt16initializer_listIxEi', symObjAddr: 0x3D8B0, symBinAddr: 0xB2900, symSize: 0xAF4 }
  - { offset: 0x56CE95, size: 0x8, addend: 0x0, symName: __ZNSt3__16vectorI11llama_layerNS_9allocatorIS1_EEE6resizeEm, symObjAddr: 0x3D86C, symBinAddr: 0xB28BC, symSize: 0x44 }
  - { offset: 0x56CEC9, size: 0x8, addend: 0x0, symName: __ZNSt3__16vectorI11llama_layerNS_9allocatorIS1_EEE6resizeEm, symObjAddr: 0x3D86C, symBinAddr: 0xB28BC, symSize: 0x44 }
  - { offset: 0x56CF5F, size: 0x8, addend: 0x0, symName: __ZNSt3__16vectorINS_4pairIP12ggml_contextNS_13unordered_mapIjP19ggml_backend_bufferNS_4hashIjEENS_8equal_toIjEENS_9allocatorINS1_IKjS6_EEEEEEEENSB_ISG_EEE7reserveEm, symObjAddr: 0x3E3A4, symBinAddr: 0xB33F4, symSize: 0x108 }
  - { offset: 0x56D540, size: 0x8, addend: 0x0, symName: __ZNSt3__114__split_bufferINS_4pairINS_10unique_ptrI12ggml_context20ggml_context_deleterEENS_6vectorINS2_I19ggml_backend_buffer27ggml_backend_buffer_deleterEENS_9allocatorIS9_EEEEEERNSA_ISD_EEE17__destruct_at_endB8ne200100EPSD_, symObjAddr: 0x523D0, symBinAddr: 0xBE590, symSize: 0xB4 }
  - { offset: 0x56D874, size: 0x8, addend: 0x0, symName: __ZNSt3__112__hash_tableINS_17__hash_value_typeIjP19ggml_backend_bufferEENS_22__unordered_map_hasherIjS4_NS_4hashIjEENS_8equal_toIjEELb1EEENS_21__unordered_map_equalIjS4_S9_S7_Lb1EEENS_9allocatorIS4_EEE11__do_rehashILb1EEEvm, symObjAddr: 0x524CC, symBinAddr: 0xBE68C, symSize: 0x180 }
  - { offset: 0x56DC40, size: 0x8, addend: 0x0, symName: __ZNSt3__112__hash_tableINS_17__hash_value_typeIjP19ggml_backend_bufferEENS_22__unordered_map_hasherIjS4_NS_4hashIjEENS_8equal_toIjEELb1EEENS_21__unordered_map_equalIjS4_S9_S7_Lb1EEENS_9allocatorIS4_EEE25__emplace_unique_key_argsIjJRjRS3_EEENS_4pairINS_15__hash_iteratorIPNS_11__hash_nodeIS4_PvEEEEbEERKT_DpOT0_, symObjAddr: 0x52660, symBinAddr: 0xBE80C, symSize: 0x304 }
  - { offset: 0x56E43C, size: 0x8, addend: 0x0, symName: __ZNSt3__16vectorINS_4pairINS_10unique_ptrI12ggml_context20ggml_context_deleterEENS0_INS2_I19ggml_backend_buffer27ggml_backend_buffer_deleterEENS_9allocatorIS8_EEEEEENS9_ISC_EEE24__emplace_back_slow_pathIJS5_SB_EEEPSC_DpOT_, symObjAddr: 0x52978, symBinAddr: 0xBEB10, symSize: 0x11C }
  - { offset: 0x56E91A, size: 0x8, addend: 0x0, symName: __ZNSt3__16vectorINS_4pairIP12ggml_contextNS_13unordered_mapIjP19ggml_backend_bufferNS_4hashIjEENS_8equal_toIjEENS_9allocatorINS1_IKjS6_EEEEEEEENSB_ISG_EEE24__emplace_back_slow_pathIJRS3_RSF_EEEPSG_DpOT_, symObjAddr: 0x52A94, symBinAddr: 0xBEC2C, symSize: 0x170 }
  - { offset: 0x56E947, size: 0x8, addend: 0x0, symName: __ZNSt3__113unordered_mapIjP19ggml_backend_bufferNS_4hashIjEENS_8equal_toIjEENS_9allocatorINS_4pairIKjS2_EEEEEC2ERKSC_, symObjAddr: 0x52C04, symBinAddr: 0xBED9C, symSize: 0x140 }
  - { offset: 0x56ECDF, size: 0x8, addend: 0x0, symName: __ZNSt3__16vectorINS_4pairIP12ggml_contextNS_13unordered_mapIjP19ggml_backend_bufferNS_4hashIjEENS_8equal_toIjEENS_9allocatorINS1_IKjS6_EEEEEEEENSB_ISG_EEE24__emplace_back_slow_pathIJRS3_RSF_EEEPSG_DpOT_, symObjAddr: 0x52A94, symBinAddr: 0xBEC2C, symSize: 0x170 }
  - { offset: 0x56F43B, size: 0x8, addend: 0x0, symName: __ZNSt3__16__treeINS_12__value_typeIP24ggml_backend_buffer_typeNS_10unique_ptrI12ggml_context20ggml_context_deleterEEEENS_19__map_value_compareIS3_S8_ZN11llama_model12load_tensorsER18llama_model_loaderE28ggml_backend_buft_comparatorLb1EEENS_9allocatorIS8_EEE7destroyEPNS_11__tree_nodeIS8_PvEE, symObjAddr: 0x51FB8, symBinAddr: 0xBE18C, symSize: 0x54 }
  - { offset: 0x56F623, size: 0x8, addend: 0x0, symName: __ZNSt3__16vectorINS_4pairINS_12basic_stringIcNS_11char_traitsIcEENS_9allocatorIcEEEEP11ggml_tensorEENS5_ISA_EEE20__throw_length_errorB8ne200100Ev, symObjAddr: 0x530AC, symBinAddr: 0xBF244, symSize: 0x14 }
  - { offset: 0x56F658, size: 0x8, addend: 0x0, symName: __ZNSt3__16vectorINS_4pairIP19ggml_backend_deviceP24ggml_backend_buffer_typeEENS_9allocatorIS6_EEE20__throw_length_errorB8ne200100Ev, symObjAddr: 0x44644, symBinAddr: 0xB946C, symSize: 0x14 }
  - { offset: 0x56F685, size: 0x8, addend: 0x0, symName: __ZNSt3__112__hash_tableINS_17__hash_value_typeIjP19ggml_backend_bufferEENS_22__unordered_map_hasherIjS4_NS_4hashIjEENS_8equal_toIjEELb1EEENS_21__unordered_map_equalIjS4_S9_S7_Lb1EEENS_9allocatorIS4_EEE25__emplace_unique_key_argsIjJRjRS3_EEENS_4pairINS_15__hash_iteratorIPNS_11__hash_nodeIS4_PvEEEEbEERKT_DpOT0_, symObjAddr: 0x52660, symBinAddr: 0xBE80C, symSize: 0x304 }
  - { offset: 0x56F69A, size: 0x8, addend: 0x0, symName: __ZNSt3__16vectorINS_4pairIP12ggml_contextNS_13unordered_mapIjP19ggml_backend_bufferNS_4hashIjEENS_8equal_toIjEENS_9allocatorINS1_IKjS6_EEEEEEEENSB_ISG_EEE20__throw_length_errorB8ne200100Ev, symObjAddr: 0x521EC, symBinAddr: 0xBE3AC, symSize: 0x14 }
  - { offset: 0x56F6AF, size: 0x8, addend: 0x0, symName: __ZNSt3__16vectorINS_4pairINS_10unique_ptrI12ggml_context20ggml_context_deleterEENS0_INS2_I19ggml_backend_buffer27ggml_backend_buffer_deleterEENS_9allocatorIS8_EEEEEENS9_ISC_EEE24__emplace_back_slow_pathIJS5_SB_EEEPSC_DpOT_, symObjAddr: 0x52978, symBinAddr: 0xBEB10, symSize: 0x11C }
  - { offset: 0x56F6BA, size: 0x8, addend: 0x0, symName: __ZNSt3__16vectorINS_4pairINS_10unique_ptrI12ggml_context20ggml_context_deleterEENS0_INS2_I19ggml_backend_buffer27ggml_backend_buffer_deleterEENS_9allocatorIS8_EEEEEENS9_ISC_EEE20__throw_length_errorB8ne200100Ev, symObjAddr: 0x523BC, symBinAddr: 0xBE57C, symSize: 0x14 }
  - { offset: 0x56F6D2, size: 0x8, addend: 0x0, symName: __ZNSt3__114__split_bufferINS_4pairINS_10unique_ptrI12ggml_context20ggml_context_deleterEENS_6vectorINS2_I19ggml_backend_buffer27ggml_backend_buffer_deleterEENS_9allocatorIS9_EEEEEERNSA_ISD_EEE17__destruct_at_endB8ne200100EPSD_, symObjAddr: 0x523D0, symBinAddr: 0xBE590, symSize: 0xB4 }
  - { offset: 0x56F6E7, size: 0x8, addend: 0x0, symName: __ZNSt3__16vectorIN11llama_model4impl9layer_devENS_9allocatorIS3_EEE8__appendEm, symObjAddr: 0x51E84, symBinAddr: 0xBE058, symSize: 0x120 }
  - { offset: 0x56F6F2, size: 0x8, addend: 0x0, symName: __ZNSt3__16vectorINS_10unique_ptrI19ggml_backend_buffer27ggml_backend_buffer_deleterEENS_9allocatorIS4_EEED1B8ne200100Ev, symObjAddr: 0x3E4AC, symBinAddr: 0xB34FC, symSize: 0x70 }
  - { offset: 0x56F8E0, size: 0x8, addend: 0x0, symName: __ZNSt3__113unordered_mapIjP19ggml_backend_bufferNS_4hashIjEENS_8equal_toIjEENS_9allocatorINS_4pairIKjS2_EEEEED1B8ne200100Ev, symObjAddr: 0x3E51C, symBinAddr: 0xB356C, symSize: 0x48 }
  - { offset: 0x56FB74, size: 0x8, addend: 0x0, symName: __ZNSt3__114__split_bufferINS_4pairINS_12basic_stringIcNS_11char_traitsIcEENS_9allocatorIcEEEEP11ggml_tensorEERNS5_ISA_EEED1Ev, symObjAddr: 0x53048, symBinAddr: 0xBF1E0, symSize: 0x64 }
  - { offset: 0x56FDA7, size: 0x8, addend: 0x0, symName: __ZNSt3__16vectorINS_4pairIP12ggml_contextNS_13unordered_mapIjP19ggml_backend_bufferNS_4hashIjEENS_8equal_toIjEENS_9allocatorINS1_IKjS6_EEEEEEEENSB_ISG_EEED1B8ne200100Ev, symObjAddr: 0x3E564, symBinAddr: 0xB35B4, symSize: 0x88 }
  - { offset: 0x5701F5, size: 0x8, addend: 0x0, symName: __ZNK11llama_model12n_gpu_layersEv, symObjAddr: 0x3D680, symBinAddr: 0xB26D0, symSize: 0x20 }
  - { offset: 0x570217, size: 0x8, addend: 0x0, symName: __ZNK11llama_model9n_devicesEv, symObjAddr: 0x3D6A0, symBinAddr: 0xB26F0, symSize: 0x14 }
  - { offset: 0x57023B, size: 0x8, addend: 0x0, symName: __ZNK11llama_model9n_devicesEv, symObjAddr: 0x3D6A0, symBinAddr: 0xB26F0, symSize: 0x14 }
  - { offset: 0x570362, size: 0x8, addend: 0x0, symName: __ZNSt3__16vectorIP19ggml_backend_deviceNS_9allocatorIS2_EEE20__throw_out_of_rangeB8ne200100Ev, symObjAddr: 0x446F4, symBinAddr: 0xB9480, symSize: 0x14 }
  - { offset: 0x57037A, size: 0x8, addend: 0x0, symName: __ZL18select_weight_buftRK13llama_hparamsP11ggml_tensor7ggml_opRKNSt3__16vectorINS5_4pairIP19ggml_backend_deviceP24ggml_backend_buffer_typeEENS5_9allocatorISC_EEEE, symObjAddr: 0x44708, symBinAddr: 0xB9494, symSize: 0x6D4 }
  - { offset: 0x570CA8, size: 0x8, addend: 0x0, symName: __ZNSt3__111basic_regexIcNS_12regex_traitsIcEEEC2B8ne200100EPKcNS_15regex_constants18syntax_option_typeE, symObjAddr: 0x44E38, symBinAddr: 0xB9B68, symSize: 0xC8 }
  - { offset: 0x571247, size: 0x8, addend: 0x0, symName: __ZL18select_weight_buftRK13llama_hparamsP11ggml_tensor7ggml_opRKNSt3__16vectorINS5_4pairIP19ggml_backend_deviceP24ggml_backend_buffer_typeEENS5_9allocatorISC_EEEE, symObjAddr: 0x44708, symBinAddr: 0xB9494, symSize: 0x6D4 }
  - { offset: 0x571DF2, size: 0x8, addend: 0x0, symName: __ZNSt3__16vectorIN11llama_model4impl9layer_devENS_9allocatorIS3_EEE20__throw_out_of_rangeB8ne200100Ev, symObjAddr: 0x5200C, symBinAddr: 0xBE1E0, symSize: 0x14 }
  - { offset: 0x571E0A, size: 0x8, addend: 0x0, symName: __ZNSt3__16vectorI11llama_layerNS_9allocatorIS1_EEE8__appendEm, symObjAddr: 0x52020, symBinAddr: 0xBE1F4, symSize: 0x1A4 }
  - { offset: 0x57201C, size: 0x8, addend: 0x0, symName: __ZNSt3__16vectorINS_4pairIP12ggml_contextNS_13unordered_mapIjP19ggml_backend_bufferNS_4hashIjEENS_8equal_toIjEENS_9allocatorINS1_IKjS6_EEEEEEEENSB_ISG_EEE26__swap_out_circular_bufferERNS_14__split_bufferISG_RSH_EE, symObjAddr: 0x52200, symBinAddr: 0xBE3C0, symSize: 0x140 }
  - { offset: 0x572640, size: 0x8, addend: 0x0, symName: __ZNSt3__16vectorINS_4pairIP12ggml_contextNS_13unordered_mapIjP19ggml_backend_bufferNS_4hashIjEENS_8equal_toIjEENS_9allocatorINS1_IKjS6_EEEEEEEENSB_ISG_EEE20__throw_length_errorB8ne200100Ev, symObjAddr: 0x521EC, symBinAddr: 0xBE3AC, symSize: 0x14 }
  - { offset: 0x572658, size: 0x8, addend: 0x0, symName: __ZNSt3__16vectorINS_4pairIP12ggml_contextNS_13unordered_mapIjP19ggml_backend_bufferNS_4hashIjEENS_8equal_toIjEENS_9allocatorINS1_IKjS6_EEEEEEEENSB_ISG_EEE26__swap_out_circular_bufferERNS_14__split_bufferISG_RSH_EE, symObjAddr: 0x52200, symBinAddr: 0xBE3C0, symSize: 0x140 }
  - { offset: 0x572663, size: 0x8, addend: 0x0, symName: __ZNSt3__114__split_bufferINS_4pairIP12ggml_contextNS_13unordered_mapIjP19ggml_backend_bufferNS_4hashIjEENS_8equal_toIjEENS_9allocatorINS1_IKjS6_EEEEEEEERNSB_ISG_EEED1Ev, symObjAddr: 0x52340, symBinAddr: 0xBE500, symSize: 0x7C }
  - { offset: 0x572AC9, size: 0x8, addend: 0x0, symName: __ZNK11llama_model4descEv, symObjAddr: 0x3E5EC, symBinAddr: 0xB363C, symSize: 0x2C }
  - { offset: 0x572AED, size: 0x8, addend: 0x0, symName: __ZNK11llama_model4descEv, symObjAddr: 0x3E5EC, symBinAddr: 0xB363C, symSize: 0x2C }
  - { offset: 0x572C83, size: 0x8, addend: 0x0, symName: __ZNSt3__16vectorINS_4pairIP19ggml_backend_deviceP24ggml_backend_buffer_typeEENS_9allocatorIS6_EEE18__insert_with_sizeB8ne200100INS_11__wrap_iterIPS6_EESD_EESD_NSB_IPKS6_EET_T0_l, symObjAddr: 0x51930, symBinAddr: 0xBDB18, symSize: 0x540 }
  - { offset: 0x572C8E, size: 0x8, addend: 0x0, symName: __ZNK11llama_model4sizeEv, symObjAddr: 0x3E618, symBinAddr: 0xB3668, symSize: 0xC }
  - { offset: 0x572CB2, size: 0x8, addend: 0x0, symName: __ZNK11llama_model4sizeEv, symObjAddr: 0x3E618, symBinAddr: 0xB3668, symSize: 0xC }
  - { offset: 0x572CD1, size: 0x8, addend: 0x0, symName: __ZNK11llama_model9n_tensorsEv, symObjAddr: 0x3E624, symBinAddr: 0xB3674, symSize: 0x14 }
  - { offset: 0x572CFD, size: 0x8, addend: 0x0, symName: __ZNK11llama_model9n_tensorsEv, symObjAddr: 0x3E624, symBinAddr: 0xB3674, symSize: 0x14 }
  - { offset: 0x572D1C, size: 0x8, addend: 0x0, symName: __ZNK11llama_model10split_modeEv, symObjAddr: 0x3E638, symBinAddr: 0xB3688, symSize: 0xC }
  - { offset: 0x573652, size: 0x8, addend: 0x0, symName: __ZNK11llama_model16memory_breakdownEv, symObjAddr: 0x3E644, symBinAddr: 0xB3694, symSize: 0x4A8 }
  - { offset: 0x57435F, size: 0x8, addend: 0x0, symName: __ZNK11llama_model10n_elementsEv, symObjAddr: 0x3EAEC, symBinAddr: 0xB3B3C, symSize: 0xC }
  - { offset: 0x574383, size: 0x8, addend: 0x0, symName: __ZNK11llama_model10n_elementsEv, symObjAddr: 0x3EAEC, symBinAddr: 0xB3B3C, symSize: 0xC }
  - { offset: 0x575061, size: 0x8, addend: 0x0, symName: '__ZZNK11llama_model10print_infoEvENK3$_6clERKNSt3__18functionIFjjEEEj', symObjAddr: 0x3FDA4, symBinAddr: 0xB4DF4, symSize: 0x2E4 }
  - { offset: 0x576010, size: 0x8, addend: 0x0, symName: __ZNK11llama_model9dev_layerEi, symObjAddr: 0x40088, symBinAddr: 0xB50D8, symSize: 0x30 }
  - { offset: 0x57604C, size: 0x8, addend: 0x0, symName: __ZNK11llama_model9dev_layerEi, symObjAddr: 0x40088, symBinAddr: 0xB50D8, symSize: 0x30 }
  - { offset: 0x5760AD, size: 0x8, addend: 0x0, symName: __ZNK11llama_model10dev_outputEv, symObjAddr: 0x400B8, symBinAddr: 0xB5108, symSize: 0xC }
  - { offset: 0x5760B8, size: 0x8, addend: 0x0, symName: __ZNK11llama_model10dev_outputEv, symObjAddr: 0x400B8, symBinAddr: 0xB5108, symSize: 0xC }
  - { offset: 0x5760E4, size: 0x8, addend: 0x0, symName: __ZNK11llama_model10dev_outputEv, symObjAddr: 0x400B8, symBinAddr: 0xB5108, symSize: 0xC }
  - { offset: 0x57617F, size: 0x8, addend: 0x0, symName: __ZNK11llama_model11select_buftEi, symObjAddr: 0x400C4, symBinAddr: 0xB5114, symSize: 0x2E0 }
  - { offset: 0x576AF4, size: 0x8, addend: 0x0, symName: __ZNK11llama_model20has_tensor_overridesEv, symObjAddr: 0x403A4, symBinAddr: 0xB53F4, symSize: 0xC }
  - { offset: 0x576B20, size: 0x8, addend: 0x0, symName: __ZNK11llama_model20has_tensor_overridesEv, symObjAddr: 0x403A4, symBinAddr: 0xB53F4, symSize: 0xC }
  - { offset: 0x576B6B, size: 0x8, addend: 0x0, symName: __ZNK11llama_model10get_tensorEPKc, symObjAddr: 0x403B0, symBinAddr: 0xB5400, symSize: 0xC0 }
  - { offset: 0x576E29, size: 0x8, addend: 0x0, symName: __ZNK11llama_model18get_rope_freq_baseERK13llama_cparamsi, symObjAddr: 0x40470, symBinAddr: 0xB54C0, symSize: 0x44 }
  - { offset: 0x576E73, size: 0x8, addend: 0x0, symName: __ZNK11llama_model19get_rope_freq_scaleERK13llama_cparamsi, symObjAddr: 0x404B4, symBinAddr: 0xB5504, symSize: 0x44 }
  - { offset: 0x576EDF, size: 0x8, addend: 0x0, symName: __ZNK11llama_model16get_rope_factorsERK13llama_cparamsi, symObjAddr: 0x404F8, symBinAddr: 0xB5548, symSize: 0x40 }
  - { offset: 0x576F37, size: 0x8, addend: 0x0, symName: __ZNK11llama_model16get_rope_factorsERK13llama_cparamsi, symObjAddr: 0x404F8, symBinAddr: 0xB5548, symSize: 0x40 }
  - { offset: 0x57718E, size: 0x8, addend: 0x0, symName: '__ZNSt3__18functionIFbiEEaSIZNK11llama_model13create_memoryERK19llama_memory_paramsRK13llama_cparamsE3$_2vEERS2_OT_', symObjAddr: 0x40C14, symBinAddr: 0xB5C64, symSize: 0x9C }
  - { offset: 0x577390, size: 0x8, addend: 0x0, symName: '__ZNSt3__18functionIFbiEEaSIZNK11llama_model13create_memoryERK19llama_memory_paramsRK13llama_cparamsE3$_3vEERS2_OT_', symObjAddr: 0x40CB0, symBinAddr: 0xB5D00, symSize: 0x9C }
  - { offset: 0x577592, size: 0x8, addend: 0x0, symName: '__ZNSt3__18functionIFiiEEaSIZNK11llama_model13create_memoryERK19llama_memory_paramsRK13llama_cparamsE3$_4vEERS2_OT_', symObjAddr: 0x40D4C, symBinAddr: 0xB5D9C, symSize: 0x9C }
  - { offset: 0x577794, size: 0x8, addend: 0x0, symName: '__ZNSt3__18functionIFbiEEaSIZNK11llama_model13create_memoryERK19llama_memory_paramsRK13llama_cparamsE3$_0vEERS2_OT_', symObjAddr: 0x40ADC, symBinAddr: 0xB5B2C, symSize: 0x9C }
  - { offset: 0x577988, size: 0x8, addend: 0x0, symName: '__ZNSt3__18functionIFbiEEaSIZNK11llama_model13create_memoryERK19llama_memory_paramsRK13llama_cparamsE3$_1vEERS2_OT_', symObjAddr: 0x40B78, symBinAddr: 0xB5BC8, symSize: 0x9C }
  - { offset: 0x577D6A, size: 0x8, addend: 0x0, symName: __ZNSt3__110__function12__value_funcIFbiEE4swapB8ne200100ERS3_, symObjAddr: 0x536D0, symBinAddr: 0xBF824, symSize: 0x1A0 }
  - { offset: 0x5785EA, size: 0x8, addend: 0x0, symName: __ZNSt3__110__function12__value_funcIFiiEE4swapB8ne200100ERS3_, symObjAddr: 0x53C70, symBinAddr: 0xBFDC4, symSize: 0x1A0 }
  - { offset: 0x578814, size: 0x8, addend: 0x0, symName: __ZNK11llama_model11build_graphERK16llm_graph_params, symObjAddr: 0x40DE8, symBinAddr: 0xB5E38, symSize: 0x8AC }
  - { offset: 0x57C0F5, size: 0x8, addend: 0x0, symName: _llama_model_default_params, symObjAddr: 0x43E1C, symBinAddr: 0xB8E6C, symSize: 0x2C }
  - { offset: 0x57C121, size: 0x8, addend: 0x0, symName: _llama_model_get_vocab, symObjAddr: 0x43E48, symBinAddr: 0xB8E98, symSize: 0xC }
  - { offset: 0x57C181, size: 0x8, addend: 0x0, symName: _llama_free_model, symObjAddr: 0x43E54, symBinAddr: 0xB8EA4, symSize: 0x1C }
  - { offset: 0x57C1A9, size: 0x8, addend: 0x0, symName: _llama_free_model, symObjAddr: 0x43E54, symBinAddr: 0xB8EA4, symSize: 0x1C }
  - { offset: 0x57C1EF, size: 0x8, addend: 0x0, symName: _llama_model_free, symObjAddr: 0x43E70, symBinAddr: 0xB8EC0, symSize: 0x1C }
  - { offset: 0x57C236, size: 0x8, addend: 0x0, symName: _llama_model_n_ctx_train, symObjAddr: 0x43E8C, symBinAddr: 0xB8EDC, symSize: 0x8 }
  - { offset: 0x57C254, size: 0x8, addend: 0x0, symName: _llama_model_n_embd, symObjAddr: 0x43E94, symBinAddr: 0xB8EE4, symSize: 0x8 }
  - { offset: 0x57C272, size: 0x8, addend: 0x0, symName: _llama_model_n_embd_inp, symObjAddr: 0x43E9C, symBinAddr: 0xB8EEC, symSize: 0x8 }
  - { offset: 0x57C29E, size: 0x8, addend: 0x0, symName: _llama_model_n_embd_out, symObjAddr: 0x43EA4, symBinAddr: 0xB8EF4, symSize: 0x8 }
  - { offset: 0x57C2CA, size: 0x8, addend: 0x0, symName: _llama_model_n_layer, symObjAddr: 0x43EAC, symBinAddr: 0xB8EFC, symSize: 0x8 }
  - { offset: 0x57C2E8, size: 0x8, addend: 0x0, symName: _llama_model_n_head, symObjAddr: 0x43EB4, symBinAddr: 0xB8F04, symSize: 0xC }
  - { offset: 0x57C306, size: 0x8, addend: 0x0, symName: _llama_model_n_head_kv, symObjAddr: 0x43EC0, symBinAddr: 0xB8F10, symSize: 0xC }
  - { offset: 0x57C332, size: 0x8, addend: 0x0, symName: _llama_model_n_swa, symObjAddr: 0x43ECC, symBinAddr: 0xB8F1C, symSize: 0x8 }
  - { offset: 0x57C35E, size: 0x8, addend: 0x0, symName: _llama_model_n_cls_out, symObjAddr: 0x43ED4, symBinAddr: 0xB8F24, symSize: 0x8 }
  - { offset: 0x57C3AC, size: 0x8, addend: 0x0, symName: _llama_model_cls_label, symObjAddr: 0x43EDC, symBinAddr: 0xB8F2C, symSize: 0x4C }
  - { offset: 0x57C4BE, size: 0x8, addend: 0x0, symName: _llama_n_ctx_train, symObjAddr: 0x43F28, symBinAddr: 0xB8F78, symSize: 0x8 }
  - { offset: 0x57C4EC, size: 0x8, addend: 0x0, symName: _llama_n_ctx_train, symObjAddr: 0x43F28, symBinAddr: 0xB8F78, symSize: 0x8 }
  - { offset: 0x57C522, size: 0x8, addend: 0x0, symName: _llama_n_embd, symObjAddr: 0x43F30, symBinAddr: 0xB8F80, symSize: 0x8 }
  - { offset: 0x57C550, size: 0x8, addend: 0x0, symName: _llama_n_embd, symObjAddr: 0x43F30, symBinAddr: 0xB8F80, symSize: 0x8 }
  - { offset: 0x57C586, size: 0x8, addend: 0x0, symName: _llama_n_layer, symObjAddr: 0x43F38, symBinAddr: 0xB8F88, symSize: 0x8 }
  - { offset: 0x57C5B4, size: 0x8, addend: 0x0, symName: _llama_n_layer, symObjAddr: 0x43F38, symBinAddr: 0xB8F88, symSize: 0x8 }
  - { offset: 0x57C5EA, size: 0x8, addend: 0x0, symName: _llama_n_head, symObjAddr: 0x43F40, symBinAddr: 0xB8F90, symSize: 0xC }
  - { offset: 0x57C618, size: 0x8, addend: 0x0, symName: _llama_n_head, symObjAddr: 0x43F40, symBinAddr: 0xB8F90, symSize: 0xC }
  - { offset: 0x57C635, size: 0x8, addend: 0x0, symName: _llama_model_rope_freq_scale_train, symObjAddr: 0x43F4C, symBinAddr: 0xB8F9C, symSize: 0x8 }
  - { offset: 0x57C687, size: 0x8, addend: 0x0, symName: _llama_model_meta_val_str, symObjAddr: 0x43F54, symBinAddr: 0xB8FA4, symSize: 0x140 }
  - { offset: 0x57CEB1, size: 0x8, addend: 0x0, symName: _llama_model_meta_count, symObjAddr: 0x44094, symBinAddr: 0xB90E4, symSize: 0xC }
  - { offset: 0x57CF1F, size: 0x8, addend: 0x0, symName: _llama_model_meta_key_str, symObjAddr: 0x440A0, symBinAddr: 0xB90F0, symSize: 0x20 }
  - { offset: 0x57CFFF, size: 0x8, addend: 0x0, symName: _llama_model_meta_key_by_index, symObjAddr: 0x440C0, symBinAddr: 0xB9110, symSize: 0x88 }
  - { offset: 0x57D23D, size: 0x8, addend: 0x0, symName: _llama_model_meta_val_str_by_index, symObjAddr: 0x44148, symBinAddr: 0xB9198, symSize: 0x88 }
  - { offset: 0x57D44B, size: 0x8, addend: 0x0, symName: _llama_model_desc, symObjAddr: 0x441D0, symBinAddr: 0xB9220, symSize: 0xAC }
  - { offset: 0x57D701, size: 0x8, addend: 0x0, symName: _llama_model_size, symObjAddr: 0x4427C, symBinAddr: 0xB92CC, symSize: 0xC }
  - { offset: 0x57D72F, size: 0x8, addend: 0x0, symName: _llama_model_size, symObjAddr: 0x4427C, symBinAddr: 0xB92CC, symSize: 0xC }
  - { offset: 0x57D74B, size: 0x8, addend: 0x0, symName: _llama_model_size, symObjAddr: 0x4427C, symBinAddr: 0xB92CC, symSize: 0xC }
  - { offset: 0x57D76B, size: 0x8, addend: 0x0, symName: _llama_model_chat_template, symObjAddr: 0x44288, symBinAddr: 0xB92D8, symSize: 0x134 }
  - { offset: 0x57DAC8, size: 0x8, addend: 0x0, symName: _llama_model_n_params, symObjAddr: 0x443BC, symBinAddr: 0xB940C, symSize: 0xC }
  - { offset: 0x57DAF6, size: 0x8, addend: 0x0, symName: _llama_model_n_params, symObjAddr: 0x443BC, symBinAddr: 0xB940C, symSize: 0xC }
  - { offset: 0x57DB12, size: 0x8, addend: 0x0, symName: _llama_model_n_params, symObjAddr: 0x443BC, symBinAddr: 0xB940C, symSize: 0xC }
  - { offset: 0x57DB32, size: 0x8, addend: 0x0, symName: _llama_model_has_encoder, symObjAddr: 0x443C8, symBinAddr: 0xB9418, symSize: 0x14 }
  - { offset: 0x57DB5E, size: 0x8, addend: 0x0, symName: _llama_model_has_decoder, symObjAddr: 0x443DC, symBinAddr: 0xB942C, symSize: 0x10 }
  - { offset: 0x57DB8A, size: 0x8, addend: 0x0, symName: _llama_model_decoder_start_token, symObjAddr: 0x443EC, symBinAddr: 0xB943C, symSize: 0xC }
  - { offset: 0x57DBB6, size: 0x8, addend: 0x0, symName: _llama_model_is_recurrent, symObjAddr: 0x443F8, symBinAddr: 0xB9448, symSize: 0x8 }
  - { offset: 0x57DBF0, size: 0x8, addend: 0x0, symName: _llama_model_is_hybrid, symObjAddr: 0x44400, symBinAddr: 0xB9450, symSize: 0x8 }
  - { offset: 0x57DC2A, size: 0x8, addend: 0x0, symName: _llama_model_is_diffusion, symObjAddr: 0x44408, symBinAddr: 0xB9458, symSize: 0x8 }
  - { offset: 0x57DC7A, size: 0x8, addend: 0x0, symName: __Z29llama_internal_get_tensor_mapPK11llama_model, symObjAddr: 0x44410, symBinAddr: 0xB9460, symSize: 0xC }
  - { offset: 0x57E817, size: 0x8, addend: 0x0, symName: __ZNSt3__111basic_regexIcNS_12regex_traitsIcEEE7__parseIPKcEET_S7_S7_, symObjAddr: 0x44F5C, symBinAddr: 0xB9C30, symSize: 0x340 }
  - { offset: 0x57F778, size: 0x8, addend: 0x0, symName: __ZNSt3__111basic_regexIcNS_12regex_traitsIcEEE13__parse_egrepIPKcEET_S7_S7_, symObjAddr: 0x45908, symBinAddr: 0xBA590, symSize: 0x1A0 }
  - { offset: 0x57FCC5, size: 0x8, addend: 0x0, symName: __ZNSt3__111basic_regexIcNS_12regex_traitsIcEEE24__parse_extended_reg_expIPKcEET_S7_S7_, symObjAddr: 0x4560C, symBinAddr: 0xBA294, symSize: 0x15C }
  - { offset: 0x57FFE5, size: 0x8, addend: 0x0, symName: __ZNSt3__111basic_regexIcNS_12regex_traitsIcEEE12__parse_grepIPKcEET_S7_S7_, symObjAddr: 0x45768, symBinAddr: 0xBA3F0, symSize: 0x1A0 }
  - { offset: 0x57FFF9, size: 0x8, addend: 0x0, symName: __ZNSt3__111basic_regexIcNS_12regex_traitsIcEEE21__parse_basic_reg_expIPKcEET_S7_S7_, symObjAddr: 0x45494, symBinAddr: 0xBA11C, symSize: 0x178 }
  - { offset: 0x580355, size: 0x8, addend: 0x0, symName: __ZNSt3__111basic_regexIcNS_12regex_traitsIcEEE24__parse_extended_reg_expIPKcEET_S7_S7_, symObjAddr: 0x4560C, symBinAddr: 0xBA294, symSize: 0x15C }
  - { offset: 0x580369, size: 0x8, addend: 0x0, symName: __ZNSt3__111basic_regexIcNS_12regex_traitsIcEEE12__parse_grepIPKcEET_S7_S7_, symObjAddr: 0x45768, symBinAddr: 0xBA3F0, symSize: 0x1A0 }
  - { offset: 0x5808B6, size: 0x8, addend: 0x0, symName: __ZNSt3__111basic_regexIcNS_12regex_traitsIcEEE19__parse_alternativeIPKcEET_S7_S7_, symObjAddr: 0x45CEC, symBinAddr: 0xBA730, symSize: 0xA0 }
  - { offset: 0x5809FB, size: 0x8, addend: 0x0, symName: __ZNSt3__111basic_regexIcNS_12regex_traitsIcEEE16__parse_ecma_expIPKcEET_S7_S7_, symObjAddr: 0x452E8, symBinAddr: 0xB9F70, symSize: 0x1AC }
  - { offset: 0x580DED, size: 0x8, addend: 0x0, symName: __ZNSt3__111basic_regexIcNS_12regex_traitsIcEEE12__parse_termIPKcEET_S7_S7_, symObjAddr: 0x45D8C, symBinAddr: 0xBA7D0, symSize: 0x94 }
  - { offset: 0x581088, size: 0x8, addend: 0x0, symName: __ZNSt3__111basic_regexIcNS_12regex_traitsIcEEE18__parse_nondupl_REIPKcEET_S7_S7_, symObjAddr: 0x4CFBC, symBinAddr: 0xBCC44, symSize: 0x2F8 }
  - { offset: 0x581714, size: 0x8, addend: 0x0, symName: __ZNSt3__111basic_regexIcNS_12regex_traitsIcEEE22__parse_RE_dupl_symbolIPKcEET_S7_S7_PNS_16__owns_one_stateIcEEjj, symObjAddr: 0x4D2B4, symBinAddr: 0xBCF3C, symSize: 0x274 }
  - { offset: 0x581728, size: 0x8, addend: 0x0, symName: __ZNSt3__111basic_regexIcNS_12regex_traitsIcEEE22__parse_RE_dupl_symbolIPKcEET_S7_S7_PNS_16__owns_one_stateIcEEjj, symObjAddr: 0x4D2B4, symBinAddr: 0xBCF3C, symSize: 0x274 }
  - { offset: 0x581CD7, size: 0x8, addend: 0x0, symName: __ZNSt3__111basic_regexIcNS_12regex_traitsIcEEE22__parse_ERE_expressionIPKcEET_S7_S7_, symObjAddr: 0x4D658, symBinAddr: 0xBD1B0, symSize: 0x1F0 }
  - { offset: 0x58205F, size: 0x8, addend: 0x0, symName: __ZNSt3__111basic_regexIcNS_12regex_traitsIcEEE33__parse_one_char_or_coll_elem_EREIPKcEET_S7_S7_, symObjAddr: 0x4D848, symBinAddr: 0xBD3A0, symSize: 0x158 }
  - { offset: 0x582145, size: 0x8, addend: 0x0, symName: __ZNSt3__111basic_regexIcNS_12regex_traitsIcEEE23__parse_ERE_dupl_symbolIPKcEET_S7_S7_PNS_16__owns_one_stateIcEEjj, symObjAddr: 0x463D4, symBinAddr: 0xBAE18, symSize: 0x3E4 }
  - { offset: 0x5826E4, size: 0x8, addend: 0x0, symName: __ZNSt3__111basic_regexIcNS_12regex_traitsIcEEE17__parse_assertionIPKcEET_S7_S7_, symObjAddr: 0x45E20, symBinAddr: 0xBA864, symSize: 0x37C }
  - { offset: 0x582CFA, size: 0x8, addend: 0x0, symName: __ZNSt3__111basic_regexIcNS_12regex_traitsIcEEE12__parse_atomIPKcEET_S7_S7_, symObjAddr: 0x4619C, symBinAddr: 0xBABE0, symSize: 0x238 }
  - { offset: 0x58305B, size: 0x8, addend: 0x0, symName: __ZNSt3__111basic_regexIcNS_12regex_traitsIcEEE23__parse_ERE_dupl_symbolIPKcEET_S7_S7_PNS_16__owns_one_stateIcEEjj, symObjAddr: 0x463D4, symBinAddr: 0xBAE18, symSize: 0x3E4 }
  - { offset: 0x5834EA, size: 0x8, addend: 0x0, symName: __ZNSt3__111basic_regexIcNS_12regex_traitsIcEEE26__parse_bracket_expressionIPKcEET_S7_S7_, symObjAddr: 0x4804C, symBinAddr: 0xBB37C, symSize: 0x160 }
  - { offset: 0x5836BE, size: 0x8, addend: 0x0, symName: __ZNSt3__111basic_regexIcNS_12regex_traitsIcEEE19__parse_atom_escapeIPKcEET_S7_S7_, symObjAddr: 0x47ECC, symBinAddr: 0xBB1FC, symSize: 0x180 }
  - { offset: 0x58384A, size: 0x8, addend: 0x0, symName: __ZNSt3__111basic_regexIcNS_12regex_traitsIcEEE26__parse_bracket_expressionIPKcEET_S7_S7_, symObjAddr: 0x4804C, symBinAddr: 0xBB37C, symSize: 0x160 }
  - { offset: 0x58385E, size: 0x8, addend: 0x0, symName: __ZNSt3__111basic_regexIcNS_12regex_traitsIcEEE25__parse_pattern_characterIPKcEET_S7_S7_, symObjAddr: 0x481F8, symBinAddr: 0xBB4DC, symSize: 0x7C }
  - { offset: 0x587BED, size: 0x8, addend: 0x0, symName: __ZNSt3__111basic_regexIcNS_12regex_traitsIcEEE30__parse_character_class_escapeIPKcEET_S7_S7_, symObjAddr: 0x48350, symBinAddr: 0xBB558, symSize: 0x25C }
  - { offset: 0x588048, size: 0x8, addend: 0x0, symName: __ZNSt3__111basic_regexIcNS_12regex_traitsIcEEE24__parse_character_escapeIPKcEET_S7_S7_PNS_12basic_stringIcNS_11char_traitsIcEENS_9allocatorIcEEEE, symObjAddr: 0x485AC, symBinAddr: 0xBB7B4, symSize: 0x40C }
  - { offset: 0x588B5A, size: 0x8, addend: 0x0, symName: __ZNSt3__111basic_regexIcNS_12regex_traitsIcEEE23__parse_expression_termIPKcEET_S7_S7_PNS_20__bracket_expressionIcS2_EE, symObjAddr: 0x4A6E4, symBinAddr: 0xBBBC0, symSize: 0x54C }
  - { offset: 0x58AEC1, size: 0x8, addend: 0x0, symName: __ZNSt3__111basic_regexIcNS_12regex_traitsIcEEE25__parse_equivalence_classIPKcEET_S7_S7_PNS_20__bracket_expressionIcS2_EE, symObjAddr: 0x4AC30, symBinAddr: 0xBC10C, symSize: 0x270 }
  - { offset: 0x58B935, size: 0x8, addend: 0x0, symName: __ZNSt3__111basic_regexIcNS_12regex_traitsIcEEE18__parse_awk_escapeIPKcEET_S7_S7_PNS_12basic_stringIcNS_11char_traitsIcEENS_9allocatorIcEEEE, symObjAddr: 0x4B0F4, symBinAddr: 0xBC5D0, symSize: 0x2E4 }
  - { offset: 0x58BA5A, size: 0x8, addend: 0x0, symName: __ZNSt3__111basic_regexIcNS_12regex_traitsIcEEE24__parse_collating_symbolIPKcEET_S7_S7_RNS_12basic_stringIcNS_11char_traitsIcEENS_9allocatorIcEEEE, symObjAddr: 0x4AEA0, symBinAddr: 0xBC37C, symSize: 0xD0 }
  - { offset: 0x58BDD0, size: 0x8, addend: 0x0, symName: __ZNSt3__111basic_regexIcNS_12regex_traitsIcEEE20__parse_class_escapeIPKcEET_S7_S7_RNS_12basic_stringIcNS_11char_traitsIcEENS_9allocatorIcEEEEPNS_20__bracket_expressionIcS2_EE, symObjAddr: 0x4AF70, symBinAddr: 0xBC44C, symSize: 0x184 }
  - { offset: 0x58BDDB, size: 0x8, addend: 0x0, symName: __ZNKSt3__112regex_traitsIcE20__lookup_collatenameIPKcEENS_12basic_stringIcNS_11char_traitsIcEENS_9allocatorIcEEEET_SB_c, symObjAddr: 0x4BA7C, symBinAddr: 0xBC8B4, symSize: 0x23C }
  - { offset: 0x58C8D6, size: 0x8, addend: 0x0, symName: __ZNKSt3__112regex_traitsIcE18__lookup_classnameIPKcEEjT_S5_bc, symObjAddr: 0x4C070, symBinAddr: 0xBCAF0, symSize: 0x154 }
  - { offset: 0x58D5D5, size: 0x8, addend: 0x0, symName: __ZNSt3__111basic_regexIcNS_12regex_traitsIcEEE20__parse_class_escapeIPKcEET_S7_S7_RNS_12basic_stringIcNS_11char_traitsIcEENS_9allocatorIcEEEEPNS_20__bracket_expressionIcS2_EE, symObjAddr: 0x4AF70, symBinAddr: 0xBC44C, symSize: 0x184 }
  - { offset: 0x58D76D, size: 0x8, addend: 0x0, symName: __ZNSt3__111basic_regexIcNS_12regex_traitsIcEEE18__parse_awk_escapeIPKcEET_S7_S7_PNS_12basic_stringIcNS_11char_traitsIcEENS_9allocatorIcEEEE, symObjAddr: 0x4B0F4, symBinAddr: 0xBC5D0, symSize: 0x2E4 }
  - { offset: 0x5908D0, size: 0x8, addend: 0x0, symName: __ZNSt3__111basic_regexIcNS_12regex_traitsIcEEE22__parse_ERE_expressionIPKcEET_S7_S7_, symObjAddr: 0x4D658, symBinAddr: 0xBD1B0, symSize: 0x1F0 }
  - { offset: 0x5908DB, size: 0x8, addend: 0x0, symName: __ZNSt3__111basic_regexIcNS_12regex_traitsIcEEE33__parse_one_char_or_coll_elem_EREIPKcEET_S7_S7_, symObjAddr: 0x4D848, symBinAddr: 0xBD3A0, symSize: 0x158 }
  - { offset: 0x590AC4, size: 0x8, addend: 0x0, symName: __ZNSt3__111basic_regexIcNS_12regex_traitsIcEEE23__parse_QUOTED_CHAR_EREIPKcEET_S7_S7_, symObjAddr: 0x4D9A0, symBinAddr: 0xBD4F8, symSize: 0xD8 }
  - { offset: 0x596CD3, size: 0x8, addend: 0x0, symName: __ZNSt3__13mapI23llama_rope_scaling_typePKcNS_4lessIS1_EENS_9allocatorINS_4pairIKS1_S3_EEEEEC2B8ne200100ESt16initializer_listIS9_ERKS5_, symObjAddr: 0x506C4, symBinAddr: 0xBD5D0, symSize: 0xF0 }
  - { offset: 0x597055, size: 0x8, addend: 0x0, symName: __ZNSt3__16__treeINS_12__value_typeI23llama_rope_scaling_typePKcEENS_19__map_value_compareIS2_S5_NS_4lessIS2_EELb1EEENS_9allocatorIS5_EEE12__find_equalIS2_EERPNS_16__tree_node_baseIPvEENS_21__tree_const_iteratorIS5_PNS_11__tree_nodeIS5_SF_EElEERPNS_15__tree_end_nodeISH_EESI_RKT_, symObjAddr: 0x507B4, symBinAddr: 0xBD6C0, symSize: 0x1B0 }
  - { offset: 0x5970B8, size: 0x8, addend: 0x0, symName: __ZNSt3__16__treeINS_12__value_typeI23llama_rope_scaling_typePKcEENS_19__map_value_compareIS2_S5_NS_4lessIS2_EELb1EEENS_9allocatorIS5_EEE12__find_equalIS2_EERPNS_16__tree_node_baseIPvEENS_21__tree_const_iteratorIS5_PNS_11__tree_nodeIS5_SF_EElEERPNS_15__tree_end_nodeISH_EESI_RKT_, symObjAddr: 0x507B4, symBinAddr: 0xBD6C0, symSize: 0x1B0 }
  - { offset: 0x5970D4, size: 0x8, addend: 0x0, symName: __ZNSt3__16__treeINS_12__value_typeI23llama_rope_scaling_typePKcEENS_19__map_value_compareIS2_S5_NS_4lessIS2_EELb1EEENS_9allocatorIS5_EEE12__find_equalIS2_EERPNS_16__tree_node_baseIPvEENS_21__tree_const_iteratorIS5_PNS_11__tree_nodeIS5_SF_EElEERPNS_15__tree_end_nodeISH_EESI_RKT_, symObjAddr: 0x507B4, symBinAddr: 0xBD6C0, symSize: 0x1B0 }
  - { offset: 0x59799B, size: 0x8, addend: 0x0, symName: __ZNSt3__16__treeINS_12__value_typeIP19ggml_backend_deviceNS_6vectorINS_4pairIS3_P24ggml_backend_buffer_typeEENS_9allocatorIS8_EEEEEENS_19__map_value_compareIS3_SC_NS_4lessIS3_EELb1EEENS9_ISC_EEE7destroyEPNS_11__tree_nodeISC_PvEE, symObjAddr: 0x50B14, symBinAddr: 0xBDA20, symSize: 0x50 }
  - { offset: 0x597C51, size: 0x8, addend: 0x0, symName: __ZNSt3__16vectorINS_4pairINS_10unique_ptrI12ggml_context20ggml_context_deleterEENS0_INS2_I19ggml_backend_buffer27ggml_backend_buffer_deleterEENS_9allocatorIS8_EEEEEENS9_ISC_EEE22__base_destruct_at_endB8ne200100EPSC_, symObjAddr: 0x50B64, symBinAddr: 0xBDA70, symSize: 0xA8 }
  - { offset: 0x59A187, size: 0x8, addend: 0x0, symName: __ZNSt3__16vectorIN11llama_model4impl9layer_devENS_9allocatorIS3_EEE20__throw_length_errorB8ne200100Ev, symObjAddr: 0x51FA4, symBinAddr: 0xBE178, symSize: 0x14 }
  - { offset: 0x59A19F, size: 0x8, addend: 0x0, symName: __ZNSt3__16__treeINS_12__value_typeIP24ggml_backend_buffer_typeNS_10unique_ptrI12ggml_context20ggml_context_deleterEEEENS_19__map_value_compareIS3_S8_ZN11llama_model12load_tensorsER18llama_model_loaderE28ggml_backend_buft_comparatorLb1EEENS_9allocatorIS8_EEE7destroyEPNS_11__tree_nodeIS8_PvEE, symObjAddr: 0x51FB8, symBinAddr: 0xBE18C, symSize: 0x54 }
  - { offset: 0x59A560, size: 0x8, addend: 0x0, symName: __ZNSt3__16vectorI11llama_layerNS_9allocatorIS1_EEE20__throw_length_errorB8ne200100Ev, symObjAddr: 0x521C4, symBinAddr: 0xBE398, symSize: 0x14 }
  - { offset: 0x59A7EB, size: 0x8, addend: 0x0, symName: __ZNSt3__112__hash_tableINS_17__hash_value_typeIjP19ggml_backend_bufferEENS_22__unordered_map_hasherIjS4_NS_4hashIjEENS_8equal_toIjEELb1EEENS_21__unordered_map_equalIjS4_S9_S7_Lb1EEENS_9allocatorIS4_EEED1Ev, symObjAddr: 0x52484, symBinAddr: 0xBE644, symSize: 0x48 }
  - { offset: 0x59B0DD, size: 0x8, addend: 0x0, symName: __ZNSt3__112__hash_tableINS_17__hash_value_typeIjP19ggml_backend_bufferEENS_22__unordered_map_hasherIjS4_NS_4hashIjEENS_8equal_toIjEELb1EEENS_21__unordered_map_equalIjS4_S9_S7_Lb1EEENS_9allocatorIS4_EEE25__emplace_unique_key_argsIjJRKNS_4pairIKjS3_EEEEENSH_INS_15__hash_iteratorIPNS_11__hash_nodeIS4_PvEEEEbEERKT_DpOT0_, symObjAddr: 0x52D44, symBinAddr: 0xBEEDC, symSize: 0x304 }
  - { offset: 0x59B935, size: 0x8, addend: 0x0, symName: '__ZNSt3__110__function6__funcIZNK11llama_model10print_infoEvE3$_0NS_9allocatorIS3_EEFjjEED1Ev', symObjAddr: 0x53104, symBinAddr: 0xBF258, symSize: 0x4 }
  - { offset: 0x59B961, size: 0x8, addend: 0x0, symName: '__ZNSt3__110__function6__funcIZNK11llama_model10print_infoEvE3$_0NS_9allocatorIS3_EEFjjEED0Ev', symObjAddr: 0x53108, symBinAddr: 0xBF25C, symSize: 0x4 }
  - { offset: 0x59BA18, size: 0x8, addend: 0x0, symName: '__ZNKSt3__110__function6__funcIZNK11llama_model10print_infoEvE3$_0NS_9allocatorIS3_EEFjjEE7__cloneEv', symObjAddr: 0x5310C, symBinAddr: 0xBF260, symSize: 0x34 }
  - { offset: 0x59BB6A, size: 0x8, addend: 0x0, symName: '__ZNKSt3__110__function6__funcIZNK11llama_model10print_infoEvE3$_0NS_9allocatorIS3_EEFjjEE7__cloneEPNS0_6__baseIS6_EE', symObjAddr: 0x53140, symBinAddr: 0xBF294, symSize: 0x14 }
  - { offset: 0x59BBD7, size: 0x8, addend: 0x0, symName: '__ZNSt3__110__function6__funcIZNK11llama_model10print_infoEvE3$_0NS_9allocatorIS3_EEFjjEE7destroyEv', symObjAddr: 0x53154, symBinAddr: 0xBF2A8, symSize: 0x4 }
  - { offset: 0x59BC2C, size: 0x8, addend: 0x0, symName: '__ZNSt3__110__function6__funcIZNK11llama_model10print_infoEvE3$_0NS_9allocatorIS3_EEFjjEE18destroy_deallocateEv', symObjAddr: 0x53158, symBinAddr: 0xBF2AC, symSize: 0x4 }
  - { offset: 0x59BC61, size: 0x8, addend: 0x0, symName: '__ZNSt3__110__function6__funcIZNK11llama_model10print_infoEvE3$_0NS_9allocatorIS3_EEFjjEE18destroy_deallocateEv', symObjAddr: 0x53158, symBinAddr: 0xBF2AC, symSize: 0x4 }
  - { offset: 0x59BC84, size: 0x8, addend: 0x0, symName: '__ZNSt3__110__function6__funcIZNK11llama_model10print_infoEvE3$_0NS_9allocatorIS3_EEFjjEE18destroy_deallocateEv', symObjAddr: 0x53158, symBinAddr: 0xBF2AC, symSize: 0x4 }
  - { offset: 0x59BCB7, size: 0x8, addend: 0x0, symName: '__ZNSt3__110__function6__funcIZNK11llama_model10print_infoEvE3$_0NS_9allocatorIS3_EEFjjEE18destroy_deallocateEv', symObjAddr: 0x53158, symBinAddr: 0xBF2AC, symSize: 0x4 }
  - { offset: 0x59BD5A, size: 0x8, addend: 0x0, symName: '__ZNSt3__110__function6__funcIZNK11llama_model10print_infoEvE3$_0NS_9allocatorIS3_EEFjjEEclEOj', symObjAddr: 0x5315C, symBinAddr: 0xBF2B0, symSize: 0x10 }
  - { offset: 0x59BE03, size: 0x8, addend: 0x0, symName: '__ZNKSt3__110__function6__funcIZNK11llama_model10print_infoEvE3$_0NS_9allocatorIS3_EEFjjEE6targetERKSt9type_info', symObjAddr: 0x5316C, symBinAddr: 0xBF2C0, symSize: 0x64 }
  - { offset: 0x59BEB7, size: 0x8, addend: 0x0, symName: '__ZNKSt3__110__function6__funcIZNK11llama_model10print_infoEvE3$_0NS_9allocatorIS3_EEFjjEE11target_typeEv', symObjAddr: 0x531D0, symBinAddr: 0xBF324, symSize: 0xC }
  - { offset: 0x59BEDA, size: 0x8, addend: 0x0, symName: '__ZNSt3__110__function6__funcIZNK11llama_model10print_infoEvE3$_1NS_9allocatorIS3_EEFjjEED1Ev', symObjAddr: 0x531DC, symBinAddr: 0xBF330, symSize: 0x4 }
  - { offset: 0x59BF06, size: 0x8, addend: 0x0, symName: '__ZNSt3__110__function6__funcIZNK11llama_model10print_infoEvE3$_1NS_9allocatorIS3_EEFjjEED0Ev', symObjAddr: 0x531E0, symBinAddr: 0xBF334, symSize: 0x4 }
  - { offset: 0x59BFBD, size: 0x8, addend: 0x0, symName: '__ZNKSt3__110__function6__funcIZNK11llama_model10print_infoEvE3$_1NS_9allocatorIS3_EEFjjEE7__cloneEv', symObjAddr: 0x531E4, symBinAddr: 0xBF338, symSize: 0x34 }
  - { offset: 0x59C10F, size: 0x8, addend: 0x0, symName: '__ZNKSt3__110__function6__funcIZNK11llama_model10print_infoEvE3$_1NS_9allocatorIS3_EEFjjEE7__cloneEPNS0_6__baseIS6_EE', symObjAddr: 0x53218, symBinAddr: 0xBF36C, symSize: 0x14 }
  - { offset: 0x59C17C, size: 0x8, addend: 0x0, symName: '__ZNSt3__110__function6__funcIZNK11llama_model10print_infoEvE3$_1NS_9allocatorIS3_EEFjjEE7destroyEv', symObjAddr: 0x5322C, symBinAddr: 0xBF380, symSize: 0x4 }
  - { offset: 0x59C1D1, size: 0x8, addend: 0x0, symName: '__ZNSt3__110__function6__funcIZNK11llama_model10print_infoEvE3$_1NS_9allocatorIS3_EEFjjEE18destroy_deallocateEv', symObjAddr: 0x53230, symBinAddr: 0xBF384, symSize: 0x4 }
  - { offset: 0x59C206, size: 0x8, addend: 0x0, symName: '__ZNSt3__110__function6__funcIZNK11llama_model10print_infoEvE3$_1NS_9allocatorIS3_EEFjjEE18destroy_deallocateEv', symObjAddr: 0x53230, symBinAddr: 0xBF384, symSize: 0x4 }
  - { offset: 0x59C229, size: 0x8, addend: 0x0, symName: '__ZNSt3__110__function6__funcIZNK11llama_model10print_infoEvE3$_1NS_9allocatorIS3_EEFjjEE18destroy_deallocateEv', symObjAddr: 0x53230, symBinAddr: 0xBF384, symSize: 0x4 }
  - { offset: 0x59C25C, size: 0x8, addend: 0x0, symName: '__ZNSt3__110__function6__funcIZNK11llama_model10print_infoEvE3$_1NS_9allocatorIS3_EEFjjEE18destroy_deallocateEv', symObjAddr: 0x53230, symBinAddr: 0xBF384, symSize: 0x4 }
  - { offset: 0x59C2FF, size: 0x8, addend: 0x0, symName: '__ZNSt3__110__function6__funcIZNK11llama_model10print_infoEvE3$_1NS_9allocatorIS3_EEFjjEEclEOj', symObjAddr: 0x53234, symBinAddr: 0xBF388, symSize: 0x10 }
  - { offset: 0x59C3A8, size: 0x8, addend: 0x0, symName: '__ZNKSt3__110__function6__funcIZNK11llama_model10print_infoEvE3$_1NS_9allocatorIS3_EEFjjEE6targetERKSt9type_info', symObjAddr: 0x53244, symBinAddr: 0xBF398, symSize: 0x64 }
  - { offset: 0x59C45C, size: 0x8, addend: 0x0, symName: '__ZNKSt3__110__function6__funcIZNK11llama_model10print_infoEvE3$_1NS_9allocatorIS3_EEFjjEE11target_typeEv', symObjAddr: 0x532A8, symBinAddr: 0xBF3FC, symSize: 0xC }
  - { offset: 0x59C47F, size: 0x8, addend: 0x0, symName: '__ZNSt3__110__function6__funcIZNK11llama_model10print_infoEvE3$_2NS_9allocatorIS3_EEFjjEED1Ev', symObjAddr: 0x532B4, symBinAddr: 0xBF408, symSize: 0x4 }
  - { offset: 0x59C4AB, size: 0x8, addend: 0x0, symName: '__ZNSt3__110__function6__funcIZNK11llama_model10print_infoEvE3$_2NS_9allocatorIS3_EEFjjEED0Ev', symObjAddr: 0x532B8, symBinAddr: 0xBF40C, symSize: 0x4 }
  - { offset: 0x59C562, size: 0x8, addend: 0x0, symName: '__ZNKSt3__110__function6__funcIZNK11llama_model10print_infoEvE3$_2NS_9allocatorIS3_EEFjjEE7__cloneEv', symObjAddr: 0x532BC, symBinAddr: 0xBF410, symSize: 0x34 }
  - { offset: 0x59C6B4, size: 0x8, addend: 0x0, symName: '__ZNKSt3__110__function6__funcIZNK11llama_model10print_infoEvE3$_2NS_9allocatorIS3_EEFjjEE7__cloneEPNS0_6__baseIS6_EE', symObjAddr: 0x532F0, symBinAddr: 0xBF444, symSize: 0x14 }
  - { offset: 0x59C721, size: 0x8, addend: 0x0, symName: '__ZNSt3__110__function6__funcIZNK11llama_model10print_infoEvE3$_2NS_9allocatorIS3_EEFjjEE7destroyEv', symObjAddr: 0x53304, symBinAddr: 0xBF458, symSize: 0x4 }
  - { offset: 0x59C776, size: 0x8, addend: 0x0, symName: '__ZNSt3__110__function6__funcIZNK11llama_model10print_infoEvE3$_2NS_9allocatorIS3_EEFjjEE18destroy_deallocateEv', symObjAddr: 0x53308, symBinAddr: 0xBF45C, symSize: 0x4 }
  - { offset: 0x59C7AB, size: 0x8, addend: 0x0, symName: '__ZNSt3__110__function6__funcIZNK11llama_model10print_infoEvE3$_2NS_9allocatorIS3_EEFjjEE18destroy_deallocateEv', symObjAddr: 0x53308, symBinAddr: 0xBF45C, symSize: 0x4 }
  - { offset: 0x59C7CE, size: 0x8, addend: 0x0, symName: '__ZNSt3__110__function6__funcIZNK11llama_model10print_infoEvE3$_2NS_9allocatorIS3_EEFjjEE18destroy_deallocateEv', symObjAddr: 0x53308, symBinAddr: 0xBF45C, symSize: 0x4 }
  - { offset: 0x59C801, size: 0x8, addend: 0x0, symName: '__ZNSt3__110__function6__funcIZNK11llama_model10print_infoEvE3$_2NS_9allocatorIS3_EEFjjEE18destroy_deallocateEv', symObjAddr: 0x53308, symBinAddr: 0xBF45C, symSize: 0x4 }
  - { offset: 0x59C8A4, size: 0x8, addend: 0x0, symName: '__ZNSt3__110__function6__funcIZNK11llama_model10print_infoEvE3$_2NS_9allocatorIS3_EEFjjEEclEOj', symObjAddr: 0x5330C, symBinAddr: 0xBF460, symSize: 0x10 }
  - { offset: 0x59C94D, size: 0x8, addend: 0x0, symName: '__ZNKSt3__110__function6__funcIZNK11llama_model10print_infoEvE3$_2NS_9allocatorIS3_EEFjjEE6targetERKSt9type_info', symObjAddr: 0x5331C, symBinAddr: 0xBF470, symSize: 0x64 }
  - { offset: 0x59CA01, size: 0x8, addend: 0x0, symName: '__ZNKSt3__110__function6__funcIZNK11llama_model10print_infoEvE3$_2NS_9allocatorIS3_EEFjjEE11target_typeEv', symObjAddr: 0x53380, symBinAddr: 0xBF4D4, symSize: 0xC }
  - { offset: 0x59CA24, size: 0x8, addend: 0x0, symName: '__ZNSt3__110__function6__funcIZNK11llama_model10print_infoEvE3$_3NS_9allocatorIS3_EEFjjEED1Ev', symObjAddr: 0x5338C, symBinAddr: 0xBF4E0, symSize: 0x4 }
  - { offset: 0x59CA50, size: 0x8, addend: 0x0, symName: '__ZNSt3__110__function6__funcIZNK11llama_model10print_infoEvE3$_3NS_9allocatorIS3_EEFjjEED0Ev', symObjAddr: 0x53390, symBinAddr: 0xBF4E4, symSize: 0x4 }
  - { offset: 0x59CB07, size: 0x8, addend: 0x0, symName: '__ZNKSt3__110__function6__funcIZNK11llama_model10print_infoEvE3$_3NS_9allocatorIS3_EEFjjEE7__cloneEv', symObjAddr: 0x53394, symBinAddr: 0xBF4E8, symSize: 0x34 }
  - { offset: 0x59CC59, size: 0x8, addend: 0x0, symName: '__ZNKSt3__110__function6__funcIZNK11llama_model10print_infoEvE3$_3NS_9allocatorIS3_EEFjjEE7__cloneEPNS0_6__baseIS6_EE', symObjAddr: 0x533C8, symBinAddr: 0xBF51C, symSize: 0x14 }
  - { offset: 0x59CCC6, size: 0x8, addend: 0x0, symName: '__ZNSt3__110__function6__funcIZNK11llama_model10print_infoEvE3$_3NS_9allocatorIS3_EEFjjEE7destroyEv', symObjAddr: 0x533DC, symBinAddr: 0xBF530, symSize: 0x4 }
  - { offset: 0x59CD1B, size: 0x8, addend: 0x0, symName: '__ZNSt3__110__function6__funcIZNK11llama_model10print_infoEvE3$_3NS_9allocatorIS3_EEFjjEE18destroy_deallocateEv', symObjAddr: 0x533E0, symBinAddr: 0xBF534, symSize: 0x4 }
  - { offset: 0x59CD50, size: 0x8, addend: 0x0, symName: '__ZNSt3__110__function6__funcIZNK11llama_model10print_infoEvE3$_3NS_9allocatorIS3_EEFjjEE18destroy_deallocateEv', symObjAddr: 0x533E0, symBinAddr: 0xBF534, symSize: 0x4 }
  - { offset: 0x59CD73, size: 0x8, addend: 0x0, symName: '__ZNSt3__110__function6__funcIZNK11llama_model10print_infoEvE3$_3NS_9allocatorIS3_EEFjjEE18destroy_deallocateEv', symObjAddr: 0x533E0, symBinAddr: 0xBF534, symSize: 0x4 }
  - { offset: 0x59CDA6, size: 0x8, addend: 0x0, symName: '__ZNSt3__110__function6__funcIZNK11llama_model10print_infoEvE3$_3NS_9allocatorIS3_EEFjjEE18destroy_deallocateEv', symObjAddr: 0x533E0, symBinAddr: 0xBF534, symSize: 0x4 }
  - { offset: 0x59CE49, size: 0x8, addend: 0x0, symName: '__ZNSt3__110__function6__funcIZNK11llama_model10print_infoEvE3$_3NS_9allocatorIS3_EEFjjEEclEOj', symObjAddr: 0x533E4, symBinAddr: 0xBF538, symSize: 0x10 }
  - { offset: 0x59CEF2, size: 0x8, addend: 0x0, symName: '__ZNKSt3__110__function6__funcIZNK11llama_model10print_infoEvE3$_3NS_9allocatorIS3_EEFjjEE6targetERKSt9type_info', symObjAddr: 0x533F4, symBinAddr: 0xBF548, symSize: 0x64 }
  - { offset: 0x59CFA6, size: 0x8, addend: 0x0, symName: '__ZNKSt3__110__function6__funcIZNK11llama_model10print_infoEvE3$_3NS_9allocatorIS3_EEFjjEE11target_typeEv', symObjAddr: 0x53458, symBinAddr: 0xBF5AC, symSize: 0xC }
  - { offset: 0x59CFC9, size: 0x8, addend: 0x0, symName: '__ZNSt3__110__function6__funcIZNK11llama_model10print_infoEvE3$_4NS_9allocatorIS3_EEFjjEED1Ev', symObjAddr: 0x53464, symBinAddr: 0xBF5B8, symSize: 0x4 }
  - { offset: 0x59CFF5, size: 0x8, addend: 0x0, symName: '__ZNSt3__110__function6__funcIZNK11llama_model10print_infoEvE3$_4NS_9allocatorIS3_EEFjjEED0Ev', symObjAddr: 0x53468, symBinAddr: 0xBF5BC, symSize: 0x4 }
  - { offset: 0x59D0AC, size: 0x8, addend: 0x0, symName: '__ZNKSt3__110__function6__funcIZNK11llama_model10print_infoEvE3$_4NS_9allocatorIS3_EEFjjEE7__cloneEv', symObjAddr: 0x5346C, symBinAddr: 0xBF5C0, symSize: 0x34 }
  - { offset: 0x59D1FE, size: 0x8, addend: 0x0, symName: '__ZNKSt3__110__function6__funcIZNK11llama_model10print_infoEvE3$_4NS_9allocatorIS3_EEFjjEE7__cloneEPNS0_6__baseIS6_EE', symObjAddr: 0x534A0, symBinAddr: 0xBF5F4, symSize: 0x14 }
  - { offset: 0x59D26B, size: 0x8, addend: 0x0, symName: '__ZNSt3__110__function6__funcIZNK11llama_model10print_infoEvE3$_4NS_9allocatorIS3_EEFjjEE7destroyEv', symObjAddr: 0x534B4, symBinAddr: 0xBF608, symSize: 0x4 }
  - { offset: 0x59D2C0, size: 0x8, addend: 0x0, symName: '__ZNSt3__110__function6__funcIZNK11llama_model10print_infoEvE3$_4NS_9allocatorIS3_EEFjjEE18destroy_deallocateEv', symObjAddr: 0x534B8, symBinAddr: 0xBF60C, symSize: 0x4 }
  - { offset: 0x59D2F5, size: 0x8, addend: 0x0, symName: '__ZNSt3__110__function6__funcIZNK11llama_model10print_infoEvE3$_4NS_9allocatorIS3_EEFjjEE18destroy_deallocateEv', symObjAddr: 0x534B8, symBinAddr: 0xBF60C, symSize: 0x4 }
  - { offset: 0x59D318, size: 0x8, addend: 0x0, symName: '__ZNSt3__110__function6__funcIZNK11llama_model10print_infoEvE3$_4NS_9allocatorIS3_EEFjjEE18destroy_deallocateEv', symObjAddr: 0x534B8, symBinAddr: 0xBF60C, symSize: 0x4 }
  - { offset: 0x59D34B, size: 0x8, addend: 0x0, symName: '__ZNSt3__110__function6__funcIZNK11llama_model10print_infoEvE3$_4NS_9allocatorIS3_EEFjjEE18destroy_deallocateEv', symObjAddr: 0x534B8, symBinAddr: 0xBF60C, symSize: 0x4 }
  - { offset: 0x59D3EE, size: 0x8, addend: 0x0, symName: '__ZNSt3__110__function6__funcIZNK11llama_model10print_infoEvE3$_4NS_9allocatorIS3_EEFjjEEclEOj', symObjAddr: 0x534BC, symBinAddr: 0xBF610, symSize: 0x10 }
  - { offset: 0x59D497, size: 0x8, addend: 0x0, symName: '__ZNKSt3__110__function6__funcIZNK11llama_model10print_infoEvE3$_4NS_9allocatorIS3_EEFjjEE6targetERKSt9type_info', symObjAddr: 0x534CC, symBinAddr: 0xBF620, symSize: 0x64 }
  - { offset: 0x59D54B, size: 0x8, addend: 0x0, symName: '__ZNKSt3__110__function6__funcIZNK11llama_model10print_infoEvE3$_4NS_9allocatorIS3_EEFjjEE11target_typeEv', symObjAddr: 0x53530, symBinAddr: 0xBF684, symSize: 0xC }
  - { offset: 0x59D56E, size: 0x8, addend: 0x0, symName: '__ZNSt3__110__function6__funcIZNK11llama_model10print_infoEvE3$_5NS_9allocatorIS3_EEFjjEED1Ev', symObjAddr: 0x5353C, symBinAddr: 0xBF690, symSize: 0x4 }
  - { offset: 0x59D59A, size: 0x8, addend: 0x0, symName: '__ZNSt3__110__function6__funcIZNK11llama_model10print_infoEvE3$_5NS_9allocatorIS3_EEFjjEED0Ev', symObjAddr: 0x53540, symBinAddr: 0xBF694, symSize: 0x4 }
  - { offset: 0x59D651, size: 0x8, addend: 0x0, symName: '__ZNKSt3__110__function6__funcIZNK11llama_model10print_infoEvE3$_5NS_9allocatorIS3_EEFjjEE7__cloneEv', symObjAddr: 0x53544, symBinAddr: 0xBF698, symSize: 0x34 }
  - { offset: 0x59D7A3, size: 0x8, addend: 0x0, symName: '__ZNKSt3__110__function6__funcIZNK11llama_model10print_infoEvE3$_5NS_9allocatorIS3_EEFjjEE7__cloneEPNS0_6__baseIS6_EE', symObjAddr: 0x53578, symBinAddr: 0xBF6CC, symSize: 0x14 }
  - { offset: 0x59D810, size: 0x8, addend: 0x0, symName: '__ZNSt3__110__function6__funcIZNK11llama_model10print_infoEvE3$_5NS_9allocatorIS3_EEFjjEE7destroyEv', symObjAddr: 0x5358C, symBinAddr: 0xBF6E0, symSize: 0x4 }
  - { offset: 0x59D865, size: 0x8, addend: 0x0, symName: '__ZNSt3__110__function6__funcIZNK11llama_model10print_infoEvE3$_5NS_9allocatorIS3_EEFjjEE18destroy_deallocateEv', symObjAddr: 0x53590, symBinAddr: 0xBF6E4, symSize: 0x4 }
  - { offset: 0x59D89A, size: 0x8, addend: 0x0, symName: '__ZNSt3__110__function6__funcIZNK11llama_model10print_infoEvE3$_5NS_9allocatorIS3_EEFjjEE18destroy_deallocateEv', symObjAddr: 0x53590, symBinAddr: 0xBF6E4, symSize: 0x4 }
  - { offset: 0x59D8BD, size: 0x8, addend: 0x0, symName: '__ZNSt3__110__function6__funcIZNK11llama_model10print_infoEvE3$_5NS_9allocatorIS3_EEFjjEE18destroy_deallocateEv', symObjAddr: 0x53590, symBinAddr: 0xBF6E4, symSize: 0x4 }
  - { offset: 0x59D8F0, size: 0x8, addend: 0x0, symName: '__ZNSt3__110__function6__funcIZNK11llama_model10print_infoEvE3$_5NS_9allocatorIS3_EEFjjEE18destroy_deallocateEv', symObjAddr: 0x53590, symBinAddr: 0xBF6E4, symSize: 0x4 }
  - { offset: 0x59D993, size: 0x8, addend: 0x0, symName: '__ZNSt3__110__function6__funcIZNK11llama_model10print_infoEvE3$_5NS_9allocatorIS3_EEFjjEEclEOj', symObjAddr: 0x53594, symBinAddr: 0xBF6E8, symSize: 0x10 }
  - { offset: 0x59DA3C, size: 0x8, addend: 0x0, symName: '__ZNKSt3__110__function6__funcIZNK11llama_model10print_infoEvE3$_5NS_9allocatorIS3_EEFjjEE6targetERKSt9type_info', symObjAddr: 0x535A4, symBinAddr: 0xBF6F8, symSize: 0x64 }
  - { offset: 0x59DAF0, size: 0x8, addend: 0x0, symName: '__ZNKSt3__110__function6__funcIZNK11llama_model10print_infoEvE3$_5NS_9allocatorIS3_EEFjjEE11target_typeEv', symObjAddr: 0x53608, symBinAddr: 0xBF75C, symSize: 0xC }
  - { offset: 0x59DB13, size: 0x8, addend: 0x0, symName: '__ZNSt3__110__function6__funcIZNK11llama_model13create_memoryERK19llama_memory_paramsRK13llama_cparamsE3$_0NS_9allocatorIS9_EEFbiEED1Ev', symObjAddr: 0x53614, symBinAddr: 0xBF768, symSize: 0x4 }
  - { offset: 0x59DB3F, size: 0x8, addend: 0x0, symName: '__ZNSt3__110__function6__funcIZNK11llama_model13create_memoryERK19llama_memory_paramsRK13llama_cparamsE3$_0NS_9allocatorIS9_EEFbiEED0Ev', symObjAddr: 0x53618, symBinAddr: 0xBF76C, symSize: 0x4 }
  - { offset: 0x59DBF6, size: 0x8, addend: 0x0, symName: '__ZNKSt3__110__function6__funcIZNK11llama_model13create_memoryERK19llama_memory_paramsRK13llama_cparamsE3$_0NS_9allocatorIS9_EEFbiEE7__cloneEv', symObjAddr: 0x5361C, symBinAddr: 0xBF770, symSize: 0x24 }
  - { offset: 0x59DD44, size: 0x8, addend: 0x0, symName: '__ZNKSt3__110__function6__funcIZNK11llama_model13create_memoryERK19llama_memory_paramsRK13llama_cparamsE3$_0NS_9allocatorIS9_EEFbiEE7__cloneEPNS0_6__baseISC_EE', symObjAddr: 0x53640, symBinAddr: 0xBF794, symSize: 0x10 }
  - { offset: 0x59DD77, size: 0x8, addend: 0x0, symName: '__ZNKSt3__110__function6__funcIZNK11llama_model13create_memoryERK19llama_memory_paramsRK13llama_cparamsE3$_0NS_9allocatorIS9_EEFbiEE7__cloneEPNS0_6__baseISC_EE', symObjAddr: 0x53640, symBinAddr: 0xBF794, symSize: 0x10 }
  - { offset: 0x59DD93, size: 0x8, addend: 0x0, symName: '__ZNKSt3__110__function6__funcIZNK11llama_model13create_memoryERK19llama_memory_paramsRK13llama_cparamsE3$_0NS_9allocatorIS9_EEFbiEE7__cloneEPNS0_6__baseISC_EE', symObjAddr: 0x53640, symBinAddr: 0xBF794, symSize: 0x10 }
  - { offset: 0x59DDAF, size: 0x8, addend: 0x0, symName: '__ZNSt3__110__function6__funcIZNK11llama_model13create_memoryERK19llama_memory_paramsRK13llama_cparamsE3$_0NS_9allocatorIS9_EEFbiEE7destroyEv', symObjAddr: 0x53650, symBinAddr: 0xBF7A4, symSize: 0x4 }
  - { offset: 0x59DE04, size: 0x8, addend: 0x0, symName: '__ZNSt3__110__function6__funcIZNK11llama_model13create_memoryERK19llama_memory_paramsRK13llama_cparamsE3$_0NS_9allocatorIS9_EEFbiEE18destroy_deallocateEv', symObjAddr: 0x53654, symBinAddr: 0xBF7A8, symSize: 0x4 }
  - { offset: 0x59DE39, size: 0x8, addend: 0x0, symName: '__ZNSt3__110__function6__funcIZNK11llama_model13create_memoryERK19llama_memory_paramsRK13llama_cparamsE3$_0NS_9allocatorIS9_EEFbiEE18destroy_deallocateEv', symObjAddr: 0x53654, symBinAddr: 0xBF7A8, symSize: 0x4 }
  - { offset: 0x59DE5C, size: 0x8, addend: 0x0, symName: '__ZNSt3__110__function6__funcIZNK11llama_model13create_memoryERK19llama_memory_paramsRK13llama_cparamsE3$_0NS_9allocatorIS9_EEFbiEE18destroy_deallocateEv', symObjAddr: 0x53654, symBinAddr: 0xBF7A8, symSize: 0x4 }
  - { offset: 0x59DE8F, size: 0x8, addend: 0x0, symName: '__ZNSt3__110__function6__funcIZNK11llama_model13create_memoryERK19llama_memory_paramsRK13llama_cparamsE3$_0NS_9allocatorIS9_EEFbiEE18destroy_deallocateEv', symObjAddr: 0x53654, symBinAddr: 0xBF7A8, symSize: 0x4 }
  - { offset: 0x59DEB7, size: 0x8, addend: 0x0, symName: '__ZNSt3__110__function6__funcIZNK11llama_model13create_memoryERK19llama_memory_paramsRK13llama_cparamsE3$_0NS_9allocatorIS9_EEFbiEEclEOi', symObjAddr: 0x53658, symBinAddr: 0xBF7AC, symSize: 0x8 }
  - { offset: 0x59DEE6, size: 0x8, addend: 0x0, symName: '__ZNKSt3__110__function6__funcIZNK11llama_model13create_memoryERK19llama_memory_paramsRK13llama_cparamsE3$_0NS_9allocatorIS9_EEFbiEE6targetERKSt9type_info', symObjAddr: 0x53660, symBinAddr: 0xBF7B4, symSize: 0x64 }
  - { offset: 0x59DF9A, size: 0x8, addend: 0x0, symName: '__ZNKSt3__110__function6__funcIZNK11llama_model13create_memoryERK19llama_memory_paramsRK13llama_cparamsE3$_0NS_9allocatorIS9_EEFbiEE11target_typeEv', symObjAddr: 0x536C4, symBinAddr: 0xBF818, symSize: 0xC }
  - { offset: 0x59DFC3, size: 0x8, addend: 0x0, symName: '__ZNSt3__110__function6__funcIZNK11llama_model13create_memoryERK19llama_memory_paramsRK13llama_cparamsE3$_1NS_9allocatorIS9_EEFbiEED1Ev', symObjAddr: 0x53870, symBinAddr: 0xBF9C4, symSize: 0x4 }
  - { offset: 0x59DFEF, size: 0x8, addend: 0x0, symName: '__ZNSt3__110__function6__funcIZNK11llama_model13create_memoryERK19llama_memory_paramsRK13llama_cparamsE3$_1NS_9allocatorIS9_EEFbiEED0Ev', symObjAddr: 0x53874, symBinAddr: 0xBF9C8, symSize: 0x4 }
  - { offset: 0x59E0A6, size: 0x8, addend: 0x0, symName: '__ZNKSt3__110__function6__funcIZNK11llama_model13create_memoryERK19llama_memory_paramsRK13llama_cparamsE3$_1NS_9allocatorIS9_EEFbiEE7__cloneEv', symObjAddr: 0x53878, symBinAddr: 0xBF9CC, symSize: 0x24 }
  - { offset: 0x59E1F4, size: 0x8, addend: 0x0, symName: '__ZNKSt3__110__function6__funcIZNK11llama_model13create_memoryERK19llama_memory_paramsRK13llama_cparamsE3$_1NS_9allocatorIS9_EEFbiEE7__cloneEPNS0_6__baseISC_EE', symObjAddr: 0x5389C, symBinAddr: 0xBF9F0, symSize: 0x10 }
  - { offset: 0x59E227, size: 0x8, addend: 0x0, symName: '__ZNKSt3__110__function6__funcIZNK11llama_model13create_memoryERK19llama_memory_paramsRK13llama_cparamsE3$_1NS_9allocatorIS9_EEFbiEE7__cloneEPNS0_6__baseISC_EE', symObjAddr: 0x5389C, symBinAddr: 0xBF9F0, symSize: 0x10 }
  - { offset: 0x59E243, size: 0x8, addend: 0x0, symName: '__ZNKSt3__110__function6__funcIZNK11llama_model13create_memoryERK19llama_memory_paramsRK13llama_cparamsE3$_1NS_9allocatorIS9_EEFbiEE7__cloneEPNS0_6__baseISC_EE', symObjAddr: 0x5389C, symBinAddr: 0xBF9F0, symSize: 0x10 }
  - { offset: 0x59E25F, size: 0x8, addend: 0x0, symName: '__ZNSt3__110__function6__funcIZNK11llama_model13create_memoryERK19llama_memory_paramsRK13llama_cparamsE3$_1NS_9allocatorIS9_EEFbiEE7destroyEv', symObjAddr: 0x538AC, symBinAddr: 0xBFA00, symSize: 0x4 }
  - { offset: 0x59E2B4, size: 0x8, addend: 0x0, symName: '__ZNSt3__110__function6__funcIZNK11llama_model13create_memoryERK19llama_memory_paramsRK13llama_cparamsE3$_1NS_9allocatorIS9_EEFbiEE18destroy_deallocateEv', symObjAddr: 0x538B0, symBinAddr: 0xBFA04, symSize: 0x4 }
  - { offset: 0x59E2E9, size: 0x8, addend: 0x0, symName: '__ZNSt3__110__function6__funcIZNK11llama_model13create_memoryERK19llama_memory_paramsRK13llama_cparamsE3$_1NS_9allocatorIS9_EEFbiEE18destroy_deallocateEv', symObjAddr: 0x538B0, symBinAddr: 0xBFA04, symSize: 0x4 }
  - { offset: 0x59E30C, size: 0x8, addend: 0x0, symName: '__ZNSt3__110__function6__funcIZNK11llama_model13create_memoryERK19llama_memory_paramsRK13llama_cparamsE3$_1NS_9allocatorIS9_EEFbiEE18destroy_deallocateEv', symObjAddr: 0x538B0, symBinAddr: 0xBFA04, symSize: 0x4 }
  - { offset: 0x59E33F, size: 0x8, addend: 0x0, symName: '__ZNSt3__110__function6__funcIZNK11llama_model13create_memoryERK19llama_memory_paramsRK13llama_cparamsE3$_1NS_9allocatorIS9_EEFbiEE18destroy_deallocateEv', symObjAddr: 0x538B0, symBinAddr: 0xBFA04, symSize: 0x4 }
  - { offset: 0x59E367, size: 0x8, addend: 0x0, symName: '__ZNSt3__110__function6__funcIZNK11llama_model13create_memoryERK19llama_memory_paramsRK13llama_cparamsE3$_1NS_9allocatorIS9_EEFbiEEclEOi', symObjAddr: 0x538B4, symBinAddr: 0xBFA08, symSize: 0x8 }
  - { offset: 0x59E396, size: 0x8, addend: 0x0, symName: '__ZNKSt3__110__function6__funcIZNK11llama_model13create_memoryERK19llama_memory_paramsRK13llama_cparamsE3$_1NS_9allocatorIS9_EEFbiEE6targetERKSt9type_info', symObjAddr: 0x538BC, symBinAddr: 0xBFA10, symSize: 0x64 }
  - { offset: 0x59E44A, size: 0x8, addend: 0x0, symName: '__ZNKSt3__110__function6__funcIZNK11llama_model13create_memoryERK19llama_memory_paramsRK13llama_cparamsE3$_1NS_9allocatorIS9_EEFbiEE11target_typeEv', symObjAddr: 0x53920, symBinAddr: 0xBFA74, symSize: 0xC }
  - { offset: 0x59E46D, size: 0x8, addend: 0x0, symName: '__ZNSt3__110__function6__funcIZNK11llama_model13create_memoryERK19llama_memory_paramsRK13llama_cparamsE3$_2NS_9allocatorIS9_EEFbiEED1Ev', symObjAddr: 0x5392C, symBinAddr: 0xBFA80, symSize: 0x4 }
  - { offset: 0x59E499, size: 0x8, addend: 0x0, symName: '__ZNSt3__110__function6__funcIZNK11llama_model13create_memoryERK19llama_memory_paramsRK13llama_cparamsE3$_2NS_9allocatorIS9_EEFbiEED0Ev', symObjAddr: 0x53930, symBinAddr: 0xBFA84, symSize: 0x4 }
  - { offset: 0x59E550, size: 0x8, addend: 0x0, symName: '__ZNKSt3__110__function6__funcIZNK11llama_model13create_memoryERK19llama_memory_paramsRK13llama_cparamsE3$_2NS_9allocatorIS9_EEFbiEE7__cloneEv', symObjAddr: 0x53934, symBinAddr: 0xBFA88, symSize: 0x34 }
  - { offset: 0x59E6A2, size: 0x8, addend: 0x0, symName: '__ZNKSt3__110__function6__funcIZNK11llama_model13create_memoryERK19llama_memory_paramsRK13llama_cparamsE3$_2NS_9allocatorIS9_EEFbiEE7__cloneEPNS0_6__baseISC_EE', symObjAddr: 0x53968, symBinAddr: 0xBFABC, symSize: 0x14 }
  - { offset: 0x59E70F, size: 0x8, addend: 0x0, symName: '__ZNSt3__110__function6__funcIZNK11llama_model13create_memoryERK19llama_memory_paramsRK13llama_cparamsE3$_2NS_9allocatorIS9_EEFbiEE7destroyEv', symObjAddr: 0x5397C, symBinAddr: 0xBFAD0, symSize: 0x4 }
  - { offset: 0x59E764, size: 0x8, addend: 0x0, symName: '__ZNSt3__110__function6__funcIZNK11llama_model13create_memoryERK19llama_memory_paramsRK13llama_cparamsE3$_2NS_9allocatorIS9_EEFbiEE18destroy_deallocateEv', symObjAddr: 0x53980, symBinAddr: 0xBFAD4, symSize: 0x4 }
  - { offset: 0x59E799, size: 0x8, addend: 0x0, symName: '__ZNSt3__110__function6__funcIZNK11llama_model13create_memoryERK19llama_memory_paramsRK13llama_cparamsE3$_2NS_9allocatorIS9_EEFbiEE18destroy_deallocateEv', symObjAddr: 0x53980, symBinAddr: 0xBFAD4, symSize: 0x4 }
  - { offset: 0x59E7BC, size: 0x8, addend: 0x0, symName: '__ZNSt3__110__function6__funcIZNK11llama_model13create_memoryERK19llama_memory_paramsRK13llama_cparamsE3$_2NS_9allocatorIS9_EEFbiEE18destroy_deallocateEv', symObjAddr: 0x53980, symBinAddr: 0xBFAD4, symSize: 0x4 }
  - { offset: 0x59E7EF, size: 0x8, addend: 0x0, symName: '__ZNSt3__110__function6__funcIZNK11llama_model13create_memoryERK19llama_memory_paramsRK13llama_cparamsE3$_2NS_9allocatorIS9_EEFbiEE18destroy_deallocateEv', symObjAddr: 0x53980, symBinAddr: 0xBFAD4, symSize: 0x4 }
  - { offset: 0x59E892, size: 0x8, addend: 0x0, symName: '__ZNSt3__110__function6__funcIZNK11llama_model13create_memoryERK19llama_memory_paramsRK13llama_cparamsE3$_2NS_9allocatorIS9_EEFbiEEclEOi', symObjAddr: 0x53984, symBinAddr: 0xBFAD8, symSize: 0x54 }
  - { offset: 0x59E915, size: 0x8, addend: 0x0, symName: '__ZNKSt3__110__function6__funcIZNK11llama_model13create_memoryERK19llama_memory_paramsRK13llama_cparamsE3$_2NS_9allocatorIS9_EEFbiEE6targetERKSt9type_info', symObjAddr: 0x539D8, symBinAddr: 0xBFB2C, symSize: 0x64 }
  - { offset: 0x59E9C9, size: 0x8, addend: 0x0, symName: '__ZNKSt3__110__function6__funcIZNK11llama_model13create_memoryERK19llama_memory_paramsRK13llama_cparamsE3$_2NS_9allocatorIS9_EEFbiEE11target_typeEv', symObjAddr: 0x53A3C, symBinAddr: 0xBFB90, symSize: 0xC }
  - { offset: 0x59E9EC, size: 0x8, addend: 0x0, symName: '__ZNSt3__110__function6__funcIZNK11llama_model13create_memoryERK19llama_memory_paramsRK13llama_cparamsE3$_3NS_9allocatorIS9_EEFbiEED1Ev', symObjAddr: 0x53A48, symBinAddr: 0xBFB9C, symSize: 0x4 }
  - { offset: 0x59EA18, size: 0x8, addend: 0x0, symName: '__ZNSt3__110__function6__funcIZNK11llama_model13create_memoryERK19llama_memory_paramsRK13llama_cparamsE3$_3NS_9allocatorIS9_EEFbiEED0Ev', symObjAddr: 0x53A4C, symBinAddr: 0xBFBA0, symSize: 0x4 }
  - { offset: 0x59EACF, size: 0x8, addend: 0x0, symName: '__ZNKSt3__110__function6__funcIZNK11llama_model13create_memoryERK19llama_memory_paramsRK13llama_cparamsE3$_3NS_9allocatorIS9_EEFbiEE7__cloneEv', symObjAddr: 0x53A50, symBinAddr: 0xBFBA4, symSize: 0x34 }
  - { offset: 0x59EC21, size: 0x8, addend: 0x0, symName: '__ZNKSt3__110__function6__funcIZNK11llama_model13create_memoryERK19llama_memory_paramsRK13llama_cparamsE3$_3NS_9allocatorIS9_EEFbiEE7__cloneEPNS0_6__baseISC_EE', symObjAddr: 0x53A84, symBinAddr: 0xBFBD8, symSize: 0x14 }
  - { offset: 0x59EC8E, size: 0x8, addend: 0x0, symName: '__ZNSt3__110__function6__funcIZNK11llama_model13create_memoryERK19llama_memory_paramsRK13llama_cparamsE3$_3NS_9allocatorIS9_EEFbiEE7destroyEv', symObjAddr: 0x53A98, symBinAddr: 0xBFBEC, symSize: 0x4 }
  - { offset: 0x59ECE3, size: 0x8, addend: 0x0, symName: '__ZNSt3__110__function6__funcIZNK11llama_model13create_memoryERK19llama_memory_paramsRK13llama_cparamsE3$_3NS_9allocatorIS9_EEFbiEE18destroy_deallocateEv', symObjAddr: 0x53A9C, symBinAddr: 0xBFBF0, symSize: 0x4 }
  - { offset: 0x59ED18, size: 0x8, addend: 0x0, symName: '__ZNSt3__110__function6__funcIZNK11llama_model13create_memoryERK19llama_memory_paramsRK13llama_cparamsE3$_3NS_9allocatorIS9_EEFbiEE18destroy_deallocateEv', symObjAddr: 0x53A9C, symBinAddr: 0xBFBF0, symSize: 0x4 }
  - { offset: 0x59ED3B, size: 0x8, addend: 0x0, symName: '__ZNSt3__110__function6__funcIZNK11llama_model13create_memoryERK19llama_memory_paramsRK13llama_cparamsE3$_3NS_9allocatorIS9_EEFbiEE18destroy_deallocateEv', symObjAddr: 0x53A9C, symBinAddr: 0xBFBF0, symSize: 0x4 }
  - { offset: 0x59ED6E, size: 0x8, addend: 0x0, symName: '__ZNSt3__110__function6__funcIZNK11llama_model13create_memoryERK19llama_memory_paramsRK13llama_cparamsE3$_3NS_9allocatorIS9_EEFbiEE18destroy_deallocateEv', symObjAddr: 0x53A9C, symBinAddr: 0xBFBF0, symSize: 0x4 }
  - { offset: 0x59EE11, size: 0x8, addend: 0x0, symName: '__ZNSt3__110__function6__funcIZNK11llama_model13create_memoryERK19llama_memory_paramsRK13llama_cparamsE3$_3NS_9allocatorIS9_EEFbiEEclEOi', symObjAddr: 0x53AA0, symBinAddr: 0xBFBF4, symSize: 0x44 }
  - { offset: 0x59EEBA, size: 0x8, addend: 0x0, symName: '__ZNKSt3__110__function6__funcIZNK11llama_model13create_memoryERK19llama_memory_paramsRK13llama_cparamsE3$_3NS_9allocatorIS9_EEFbiEE6targetERKSt9type_info', symObjAddr: 0x53AE4, symBinAddr: 0xBFC38, symSize: 0x64 }
  - { offset: 0x59EF6E, size: 0x8, addend: 0x0, symName: '__ZNKSt3__110__function6__funcIZNK11llama_model13create_memoryERK19llama_memory_paramsRK13llama_cparamsE3$_3NS_9allocatorIS9_EEFbiEE11target_typeEv', symObjAddr: 0x53B48, symBinAddr: 0xBFC9C, symSize: 0xC }
  - { offset: 0x59EF91, size: 0x8, addend: 0x0, symName: '__ZNSt3__110__function6__funcIZNK11llama_model13create_memoryERK19llama_memory_paramsRK13llama_cparamsE3$_4NS_9allocatorIS9_EEFiiEED1Ev', symObjAddr: 0x53B54, symBinAddr: 0xBFCA8, symSize: 0x4 }
  - { offset: 0x59EFBD, size: 0x8, addend: 0x0, symName: '__ZNSt3__110__function6__funcIZNK11llama_model13create_memoryERK19llama_memory_paramsRK13llama_cparamsE3$_4NS_9allocatorIS9_EEFiiEED0Ev', symObjAddr: 0x53B58, symBinAddr: 0xBFCAC, symSize: 0x4 }
  - { offset: 0x59F074, size: 0x8, addend: 0x0, symName: '__ZNKSt3__110__function6__funcIZNK11llama_model13create_memoryERK19llama_memory_paramsRK13llama_cparamsE3$_4NS_9allocatorIS9_EEFiiEE7__cloneEv', symObjAddr: 0x53B5C, symBinAddr: 0xBFCB0, symSize: 0x34 }
  - { offset: 0x59F1C6, size: 0x8, addend: 0x0, symName: '__ZNKSt3__110__function6__funcIZNK11llama_model13create_memoryERK19llama_memory_paramsRK13llama_cparamsE3$_4NS_9allocatorIS9_EEFiiEE7__cloneEPNS0_6__baseISC_EE', symObjAddr: 0x53B90, symBinAddr: 0xBFCE4, symSize: 0x14 }
  - { offset: 0x59F233, size: 0x8, addend: 0x0, symName: '__ZNSt3__110__function6__funcIZNK11llama_model13create_memoryERK19llama_memory_paramsRK13llama_cparamsE3$_4NS_9allocatorIS9_EEFiiEE7destroyEv', symObjAddr: 0x53BA4, symBinAddr: 0xBFCF8, symSize: 0x4 }
  - { offset: 0x59F288, size: 0x8, addend: 0x0, symName: '__ZNSt3__110__function6__funcIZNK11llama_model13create_memoryERK19llama_memory_paramsRK13llama_cparamsE3$_4NS_9allocatorIS9_EEFiiEE18destroy_deallocateEv', symObjAddr: 0x53BA8, symBinAddr: 0xBFCFC, symSize: 0x4 }
  - { offset: 0x59F2BD, size: 0x8, addend: 0x0, symName: '__ZNSt3__110__function6__funcIZNK11llama_model13create_memoryERK19llama_memory_paramsRK13llama_cparamsE3$_4NS_9allocatorIS9_EEFiiEE18destroy_deallocateEv', symObjAddr: 0x53BA8, symBinAddr: 0xBFCFC, symSize: 0x4 }
  - { offset: 0x59F2E0, size: 0x8, addend: 0x0, symName: '__ZNSt3__110__function6__funcIZNK11llama_model13create_memoryERK19llama_memory_paramsRK13llama_cparamsE3$_4NS_9allocatorIS9_EEFiiEE18destroy_deallocateEv', symObjAddr: 0x53BA8, symBinAddr: 0xBFCFC, symSize: 0x4 }
  - { offset: 0x59F313, size: 0x8, addend: 0x0, symName: '__ZNSt3__110__function6__funcIZNK11llama_model13create_memoryERK19llama_memory_paramsRK13llama_cparamsE3$_4NS_9allocatorIS9_EEFiiEE18destroy_deallocateEv', symObjAddr: 0x53BA8, symBinAddr: 0xBFCFC, symSize: 0x4 }
  - { offset: 0x59F3B6, size: 0x8, addend: 0x0, symName: '__ZNSt3__110__function6__funcIZNK11llama_model13create_memoryERK19llama_memory_paramsRK13llama_cparamsE3$_4NS_9allocatorIS9_EEFiiEEclEOi', symObjAddr: 0x53BAC, symBinAddr: 0xBFD00, symSize: 0x54 }
  - { offset: 0x59F439, size: 0x8, addend: 0x0, symName: '__ZNKSt3__110__function6__funcIZNK11llama_model13create_memoryERK19llama_memory_paramsRK13llama_cparamsE3$_4NS_9allocatorIS9_EEFiiEE6targetERKSt9type_info', symObjAddr: 0x53C00, symBinAddr: 0xBFD54, symSize: 0x64 }
  - { offset: 0x59F4ED, size: 0x8, addend: 0x0, symName: '__ZNKSt3__110__function6__funcIZNK11llama_model13create_memoryERK19llama_memory_paramsRK13llama_cparamsE3$_4NS_9allocatorIS9_EEFiiEE11target_typeEv', symObjAddr: 0x53C64, symBinAddr: 0xBFDB8, symSize: 0xC }
  - { offset: 0x59F59F, size: 0x8, addend: 0x0, symName: __GLOBAL__sub_I_llama_model.cpp, symObjAddr: 0x5E884, symBinAddr: 0xBFF64, symSize: 0x98 }
  - { offset: 0x5A17EA, size: 0x8, addend: 0x0, symName: __ZL25llama_model_quantize_implRKNSt3__112basic_stringIcNS_11char_traitsIcEENS_9allocatorIcEEEES7_PK27llama_model_quantize_params, symObjAddr: 0x254, symBinAddr: 0xC0250, symSize: 0x603C }
  - { offset: 0x5D9440, size: 0x8, addend: 0x0, symName: '__ZNSt3__111__introsortINS_17_ClassicAlgPolicyERZL25llama_model_quantize_implRKNS_12basic_stringIcNS_11char_traitsIcEENS_9allocatorIcEEEES9_PK27llama_model_quantize_paramsE3$_0PPKN18llama_model_loader19llama_tensor_weightELb0EEEvT1_SK_T0_NS_15iterator_traitsISK_E15difference_typeEb', symObjAddr: 0x1241C, symBinAddr: 0xC6A8C, symSize: 0xEA8 }
  - { offset: 0x5DB1B3, size: 0x8, addend: 0x0, symName: '__ZNSt3__127__insertion_sort_incompleteB8ne200100INS_17_ClassicAlgPolicyERZL25llama_model_quantize_implRKNS_12basic_stringIcNS_11char_traitsIcEENS_9allocatorIcEEEES9_PK27llama_model_quantize_paramsE3$_0PPKN18llama_model_loader19llama_tensor_weightEEEbT1_SK_T0_', symObjAddr: 0x13438, symBinAddr: 0xC7AA8, symSize: 0x41C }
  - { offset: 0x5F7518, size: 0x8, addend: 0x0, symName: '__ZNSt3__17__sort4B8ne200100INS_17_ClassicAlgPolicyERZL25llama_model_quantize_implRKNS_12basic_stringIcNS_11char_traitsIcEENS_9allocatorIcEEEES9_PK27llama_model_quantize_paramsE3$_0PPKN18llama_model_loader19llama_tensor_weightELi0EEEvT1_SK_SK_SK_T0_', symObjAddr: 0x132C4, symBinAddr: 0xC7934, symSize: 0x174 }
  - { offset: 0x5F7FEB, size: 0x8, addend: 0x0, symName: '__ZNSt3__114__thread_proxyB8ne200100INS_5tupleIJNS_10unique_ptrINS_15__thread_structENS_14default_deleteIS3_EEEEZL28llama_tensor_dequantize_implP11ggml_tensorRNS_6vectorI7no_initIfENS_9allocatorISB_EEEERNS9_INS_6threadENSC_ISG_EEEEmiE3$_09ggml_typePhPfmEEEEEPvSP_', symObjAddr: 0x17A20, symBinAddr: 0xC83F4, symSize: 0xB4 }
  - { offset: 0x5F83D6, size: 0x8, addend: 0x0, symName: '__ZNSt3__114__thread_proxyB8ne200100INS_5tupleIJNS_10unique_ptrINS_15__thread_structENS_14default_deleteIS3_EEEEZL26llama_tensor_quantize_impl9ggml_typePKfPvxxxS9_RNS_6vectorINS_6threadENS_9allocatorISC_EEEEiE3$_0EEEEESA_SA_', symObjAddr: 0x17C80, symBinAddr: 0xC8618, symSize: 0x78 }
  - { offset: 0x5FD23E, size: 0x8, addend: 0x0, symName: _llama_model_quantize_default_params, symObjAddr: 0x0, symBinAddr: 0xBFFFC, symSize: 0x30 }
  - { offset: 0x5FD4E6, size: 0x8, addend: 0x0, symName: _llama_model_quantize, symObjAddr: 0x30, symBinAddr: 0xC002C, symSize: 0x224 }
  - { offset: 0x605EF8, size: 0x8, addend: 0x0, symName: __ZNSt3__16vectorIiNS_9allocatorIiEEE18__assign_with_sizeB8ne200100IPiS5_EEvT_T0_l, symObjAddr: 0x6B30, symBinAddr: 0xC6930, symSize: 0x148 }
  - { offset: 0x6072E6, size: 0x8, addend: 0x0, symName: '__ZZL25llama_model_quantize_implRKNSt3__112basic_stringIcNS_11char_traitsIcEENS_9allocatorIcEEEES7_PK27llama_model_quantize_paramsENK3$_2clEi', symObjAddr: 0x638C, symBinAddr: 0xC628C, symSize: 0x394 }
  - { offset: 0x607F5B, size: 0x8, addend: 0x0, symName: '__ZZL25llama_model_quantize_implRKNSt3__112basic_stringIcNS_11char_traitsIcEENS_9allocatorIcEEEES7_PK27llama_model_quantize_paramsENK3$_1clEv', symObjAddr: 0x6720, symBinAddr: 0xC6620, symSize: 0x1F0 }
  - { offset: 0x6086A1, size: 0x8, addend: 0x0, symName: __ZNKSt3__112__hash_tableINS_17__hash_value_typeINS_12basic_stringIcNS_11char_traitsIcEENS_9allocatorIcEEEENS_6vectorIfNS5_IfEEEEEENS_22__unordered_map_hasherIS7_SB_NS_4hashIS7_EENS_8equal_toIS7_EELb1EEENS_21__unordered_map_equalIS7_SB_SG_SE_Lb1EEENS5_ISB_EEE4findIS7_EENS_21__hash_const_iteratorIPNS_11__hash_nodeISB_PvEEEERKT_, symObjAddr: 0x1740C, symBinAddr: 0xC822C, symSize: 0x1B4 }
  - { offset: 0x608CA7, size: 0x8, addend: 0x0, symName: '__ZZL21llama_tensor_get_typeR19quantize_state_impl9ggml_typePK11ggml_tensor11llama_ftypeENK3$_1clEiiPKc', symObjAddr: 0x172A8, symBinAddr: 0xC80C8, symSize: 0x164 }
  - { offset: 0x608E9D, size: 0x8, addend: 0x0, symName: __ZNSt3__16__treeINS_12__value_typeIiNS_12basic_stringIcNS_11char_traitsIcEENS_9allocatorIcEEEEEENS_19__map_value_compareIiS8_NS_4lessIiEELb1EEENS5_IS8_EEE7destroyEPNS_11__tree_nodeIS8_PvEE, symObjAddr: 0x17D40, symBinAddr: 0xC86D8, symSize: 0x60 }
  - { offset: 0x6090DF, size: 0x8, addend: 0x0, symName: __ZN18llama_model_loaderD2Ev, symObjAddr: 0x17DA0, symBinAddr: 0xC8738, symSize: 0x1AC }
  - { offset: 0x609E07, size: 0x8, addend: 0x0, symName: __ZNSt3__16vectorINS_6threadENS_9allocatorIS1_EEE20__throw_length_errorB8ne200100Ev, symObjAddr: 0x13898, symBinAddr: 0xC7EC4, symSize: 0x14 }
  - { offset: 0x609E1F, size: 0x8, addend: 0x0, symName: __ZNSt3__114__split_bufferINS_6threadERNS_9allocatorIS1_EEED1Ev, symObjAddr: 0x138AC, symBinAddr: 0xC7ED8, symSize: 0x50 }
  - { offset: 0x609E5A, size: 0x8, addend: 0x0, symName: __ZNSt3__16vectorIPKN18llama_model_loader19llama_tensor_weightENS_9allocatorIS4_EEE20__throw_length_errorB8ne200100Ev, symObjAddr: 0x6D28, symBinAddr: 0xC6A78, symSize: 0x14 }
  - { offset: 0x609E92, size: 0x8, addend: 0x0, symName: __ZNSt3__16vectorI7no_initIfENS_9allocatorIS2_EEE20__throw_length_errorB8ne200100Ev, symObjAddr: 0x17A0C, symBinAddr: 0xC83E0, symSize: 0x14 }
  - { offset: 0x609EAA, size: 0x8, addend: 0x0, symName: '__ZNSt3__114__thread_proxyB8ne200100INS_5tupleIJNS_10unique_ptrINS_15__thread_structENS_14default_deleteIS3_EEEEZL28llama_tensor_dequantize_implP11ggml_tensorRNS_6vectorI7no_initIfENS_9allocatorISB_EEEERNS9_INS_6threadENSC_ISG_EEEEmiE3$_09ggml_typePhPfmEEEEEPvSP_', symObjAddr: 0x17A20, symBinAddr: 0xC83F4, symSize: 0xB4 }
  - { offset: 0x609EB5, size: 0x8, addend: 0x0, symName: __ZNSt3__128__exception_guard_exceptionsINS_6vectorINS_10unique_ptrI12gguf_context20gguf_context_deleterEENS_9allocatorIS5_EEE16__destroy_vectorEED1B8ne200100Ev, symObjAddr: 0x138FC, symBinAddr: 0xC7F28, symSize: 0x80 }
  - { offset: 0x60A0B3, size: 0x8, addend: 0x0, symName: '__ZNSt3__110unique_ptrINS_5tupleIJNS0_INS_15__thread_structENS_14default_deleteIS2_EEEEZL28llama_tensor_dequantize_implP11ggml_tensorRNS_6vectorI7no_initIfENS_9allocatorISA_EEEERNS8_INS_6threadENSB_ISF_EEEEmiE3$_09ggml_typePhPfmEEENS3_ISN_EEED1B8ne200100Ev', symObjAddr: 0x17AD4, symBinAddr: 0xC84A8, symSize: 0x48 }
  - { offset: 0x60A2B2, size: 0x8, addend: 0x0, symName: __ZNSt3__114__split_bufferINS_6threadERNS_9allocatorIS1_EEED1Ev, symObjAddr: 0x138AC, symBinAddr: 0xC7ED8, symSize: 0x50 }
  - { offset: 0x60A407, size: 0x8, addend: 0x0, symName: __ZNSt3__16vectorINS_10unique_ptrI12gguf_context20gguf_context_deleterEENS_9allocatorIS4_EEED1B8ne200100Ev, symObjAddr: 0x69C4, symBinAddr: 0xC6868, symSize: 0x70 }
  - { offset: 0x60A5F5, size: 0x8, addend: 0x0, symName: __ZNSt3__114basic_ofstreamIcNS_11char_traitsIcEEED1Ev, symObjAddr: 0x696C, symBinAddr: 0xC6810, symSize: 0x58 }
  - { offset: 0x60A6E6, size: 0x8, addend: 0x0, symName: '__ZNSt3__110unique_ptrINS_5tupleIJNS0_INS_15__thread_structENS_14default_deleteIS2_EEEEZL26llama_tensor_quantize_impl9ggml_typePKfPvxxxS8_RNS_6vectorINS_6threadENS_9allocatorISB_EEEEiE3$_0EEENS3_ISH_EEED1B8ne200100Ev', symObjAddr: 0x17CF8, symBinAddr: 0xC8690, symSize: 0x48 }
  - { offset: 0x60A88E, size: 0x8, addend: 0x0, symName: __ZNSt3__16vectorINS_6threadENS_9allocatorIS1_EEED1B8ne200100Ev, symObjAddr: 0x6A34, symBinAddr: 0xC68D8, symSize: 0x58 }
  - { offset: 0x60AF15, size: 0x8, addend: 0x0, symName: __ZNSt3__114basic_ofstreamIcNS_11char_traitsIcEEEC1ERKNS_12basic_stringIcS2_NS_9allocatorIcEEEEj, symObjAddr: 0x1397C, symBinAddr: 0xC7FA8, symSize: 0x120 }
  - { offset: 0x627488, size: 0x8, addend: 0x0, symName: '__ZZL26llama_tensor_quantize_impl9ggml_typePKfPvxxxS1_RNSt3__16vectorINS3_6threadENS3_9allocatorIS5_EEEEiENK3$_0clEv', symObjAddr: 0x17B58, symBinAddr: 0xC84F0, symSize: 0x128 }
  - { offset: 0x62A1DC, size: 0x8, addend: 0x0, symName: __MergedGlobals, symObjAddr: 0x1D990, symBinAddr: 0x2E8408, symSize: 0x0 }
  - { offset: 0x62A3EB, size: 0x8, addend: 0x0, symName: __ZL22llama_sampler_greedy_i, symObjAddr: 0x1D850, symBinAddr: 0x2E82C8, symSize: 0x0 }
  - { offset: 0x62A3F9, size: 0x8, addend: 0x0, symName: __ZL12get_rng_seedj, symObjAddr: 0xAD8, symBinAddr: 0xC93BC, symSize: 0x160 }
  - { offset: 0x62A425, size: 0x8, addend: 0x0, symName: __MergedGlobals.177, symObjAddr: 0x1FB7C8, symBinAddr: 0x371EB8, symSize: 0x0 }
  - { offset: 0x62A7C0, size: 0x8, addend: 0x0, symName: __MergedGlobals, symObjAddr: 0x1D990, symBinAddr: 0x2E8408, symSize: 0x0 }
  - { offset: 0x62A7DD, size: 0x8, addend: 0x0, symName: __MergedGlobals, symObjAddr: 0x1D990, symBinAddr: 0x2E8408, symSize: 0x0 }
  - { offset: 0x62A7FB, size: 0x8, addend: 0x0, symName: __MergedGlobals, symObjAddr: 0x1D990, symBinAddr: 0x2E8408, symSize: 0x0 }
  - { offset: 0x62A80C, size: 0x8, addend: 0x0, symName: __ZL43llama_token_data_array_partial_sort_inplaceP22llama_token_data_arrayi, symObjAddr: 0x4840, symBinAddr: 0xCD098, symSize: 0x4BC }
  - { offset: 0x62AF08, size: 0x8, addend: 0x0, symName: __ZL35llama_token_data_array_partial_sortRK22llama_token_data_arrayiRNSt3__16vectorI16llama_token_dataNS2_9allocatorIS4_EEEE, symObjAddr: 0x4CFC, symBinAddr: 0xCD554, symSize: 0x5B8 }
  - { offset: 0x64053C, size: 0x8, addend: 0x0, symName: '__ZNSt3__111__introsortINS_17_ClassicAlgPolicyERZL35llama_token_data_array_partial_sortRK22llama_token_data_arrayiRNS_6vectorI16llama_token_dataNS_9allocatorIS6_EEEEE3$_0PS6_Lb0EEEvT1_SE_T0_NS_15iterator_traitsISE_E15difference_typeEb', symObjAddr: 0x5378, symBinAddr: 0xCDB20, symSize: 0xDA4 }
  - { offset: 0x6419AE, size: 0x8, addend: 0x0, symName: '__ZNSt3__127__insertion_sort_incompleteB8ne200100INS_17_ClassicAlgPolicyERZL35llama_token_data_array_partial_sortRK22llama_token_data_arrayiRNS_6vectorI16llama_token_dataNS_9allocatorIS6_EEEEE3$_0PS6_EEbT1_SE_T0_', symObjAddr: 0x635C, symBinAddr: 0xCEB04, symSize: 0x4B4 }
  - { offset: 0x643B11, size: 0x8, addend: 0x0, symName: '__ZNSt3__111__introsortINS_17_ClassicAlgPolicyERZL27llama_sampler_typical_applyP13llama_samplerP22llama_token_data_arrayE3$_0PmLb0EEEvT1_S9_T0_NS_15iterator_traitsIS9_E15difference_typeEb', symObjAddr: 0x8354, symBinAddr: 0xD0AD4, symSize: 0xAD8 }
  - { offset: 0x645729, size: 0x8, addend: 0x0, symName: '__ZNSt3__127__insertion_sort_incompleteB8ne200100INS_17_ClassicAlgPolicyERZL27llama_sampler_typical_applyP13llama_samplerP22llama_token_data_arrayE3$_0PmEEbT1_S9_T0_', symObjAddr: 0x8FC8, symBinAddr: 0xD1748, symSize: 0x358 }
  - { offset: 0x650A30, size: 0x8, addend: 0x0, symName: __ZNSt3__113regex_replaceB8ne200100INS_20back_insert_iteratorINS_12basic_stringIcNS_11char_traitsIcEENS_9allocatorIcEEEEEEPKcNS_12regex_traitsIcEEcEET_SD_T0_SE_RKNS_11basic_regexIT2_T1_EEPKSG_NS_15regex_constants15match_flag_typeE, symObjAddr: 0x14898, symBinAddr: 0xD41FC, symSize: 0x284 }
  - { offset: 0x65367D, size: 0x8, addend: 0x0, symName: '__ZNSt3__119__partial_sort_implB8ne200100INS_17_ClassicAlgPolicyERZL35llama_token_data_array_partial_sortRK22llama_token_data_arrayiRNS_6vectorI16llama_token_dataNS_9allocatorIS6_EEEEE3$_0PS6_SD_EET1_SE_SE_T2_OT0_', symObjAddr: 0x6810, symBinAddr: 0xCEFB8, symSize: 0x40C }
  - { offset: 0x653D8C, size: 0x8, addend: 0x0, symName: '__ZNSt3__17__sort5B8ne200100INS_17_ClassicAlgPolicyERZL35llama_token_data_array_partial_sortRK22llama_token_data_arrayiRNS_6vectorI16llama_token_dataNS_9allocatorIS6_EEEEE3$_0PS6_Li0EEEvT1_SE_SE_SE_SE_T0_', symObjAddr: 0x611C, symBinAddr: 0xCE8C4, symSize: 0x240 }
  - { offset: 0x6554C4, size: 0x8, addend: 0x0, symName: '__ZNSt3__17__sort5B8ne200100INS_17_ClassicAlgPolicyERZL27llama_sampler_typical_applyP13llama_samplerP22llama_token_data_arrayE3$_0PmLi0EEEvT1_S9_S9_S9_S9_T0_', symObjAddr: 0x8E2C, symBinAddr: 0xD15AC, symSize: 0x19C }
  - { offset: 0x655532, size: 0x8, addend: 0x0, symName: '__ZNSt3__17__sort5B8ne200100INS_17_ClassicAlgPolicyERZL27llama_sampler_typical_applyP13llama_samplerP22llama_token_data_arrayE3$_0PmLi0EEEvT1_S9_S9_S9_S9_T0_', symObjAddr: 0x8E2C, symBinAddr: 0xD15AC, symSize: 0x19C }
  - { offset: 0x65BE99, size: 0x8, addend: 0x0, symName: __MergedGlobals, symObjAddr: 0x1D990, symBinAddr: 0x2E8408, symSize: 0x0 }
  - { offset: 0x65BEB7, size: 0x8, addend: 0x0, symName: __MergedGlobals, symObjAddr: 0x1D990, symBinAddr: 0x2E8408, symSize: 0x0 }
  - { offset: 0x65BED5, size: 0x8, addend: 0x0, symName: __MergedGlobals, symObjAddr: 0x1D990, symBinAddr: 0x2E8408, symSize: 0x0 }
  - { offset: 0x65BEF3, size: 0x8, addend: 0x0, symName: __MergedGlobals, symObjAddr: 0x1D990, symBinAddr: 0x2E8408, symSize: 0x0 }
  - { offset: 0x65BF11, size: 0x8, addend: 0x0, symName: __MergedGlobals, symObjAddr: 0x1D990, symBinAddr: 0x2E8408, symSize: 0x0 }
  - { offset: 0x65BF2F, size: 0x8, addend: 0x0, symName: __MergedGlobals, symObjAddr: 0x1D990, symBinAddr: 0x2E8408, symSize: 0x0 }
  - { offset: 0x65BF4D, size: 0x8, addend: 0x0, symName: __MergedGlobals, symObjAddr: 0x1D990, symBinAddr: 0x2E8408, symSize: 0x0 }
  - { offset: 0x65BF6B, size: 0x8, addend: 0x0, symName: __MergedGlobals, symObjAddr: 0x1D990, symBinAddr: 0x2E8408, symSize: 0x0 }
  - { offset: 0x65BF7C, size: 0x8, addend: 0x0, symName: __ZL31llama_sampler_init_grammar_implPK11llama_vocabPKcS3_bPS3_mPKimS4_m, symObjAddr: 0x12C8, symBinAddr: 0xC9BAC, symSize: 0x600 }
  - { offset: 0x65BF9D, size: 0x8, addend: 0x0, symName: __MergedGlobals.177, symObjAddr: 0x1FB7C8, symBinAddr: 0x371EB8, symSize: 0x0 }
  - { offset: 0x65D91E, size: 0x8, addend: 0x0, symName: __ZL23llama_sampler_grammar_i, symObjAddr: 0x1D940, symBinAddr: 0x2E83B8, symSize: 0x0 }
  - { offset: 0x65D939, size: 0x8, addend: 0x0, symName: __MergedGlobals, symObjAddr: 0x1D990, symBinAddr: 0x2E8408, symSize: 0x0 }
  - { offset: 0x65D95C, size: 0x8, addend: 0x0, symName: __MergedGlobals, symObjAddr: 0x1D990, symBinAddr: 0x2E8408, symSize: 0x0 }
  - { offset: 0x65D97A, size: 0x8, addend: 0x0, symName: __MergedGlobals, symObjAddr: 0x1D990, symBinAddr: 0x2E8408, symSize: 0x0 }
  - { offset: 0x65D998, size: 0x8, addend: 0x0, symName: __ZL26llama_sampler_adaptive_p_i, symObjAddr: 0x1D8A0, symBinAddr: 0x2E8318, symSize: 0x0 }
  - { offset: 0x65D9EE, size: 0x8, addend: 0x0, symName: __MergedGlobals, symObjAddr: 0x1D990, symBinAddr: 0x2E8408, symSize: 0x0 }
  - { offset: 0x65DA0C, size: 0x8, addend: 0x0, symName: __ZL22llama_sampler_infill_i, symObjAddr: 0x1D8F0, symBinAddr: 0x2E8368, symSize: 0x0 }
  - { offset: 0x65EE72, size: 0x8, addend: 0x0, symName: __ZL17llama_sample_distP22llama_token_data_arrayRNSt3__123mersenne_twister_engineIjLm32ELm624ELm397ELm31ELj2567483615ELm11ELj4294967295ELm7ELj2636928640ELm15ELj4022730752ELm18ELj1812433253EEE, symObjAddr: 0xAE18, symBinAddr: 0xD3598, symSize: 0x1D0 }
  - { offset: 0x660AB6, size: 0x8, addend: 0x0, symName: _llama_sampler_init, symObjAddr: 0x0, symBinAddr: 0xC88E4, symSize: 0x2C }
  - { offset: 0x660ADD, size: 0x8, addend: 0x0, symName: _llama_sampler_name, symObjAddr: 0x2C, symBinAddr: 0xC8910, symSize: 0x1C }
  - { offset: 0x660B15, size: 0x8, addend: 0x0, symName: _llama_sampler_accept, symObjAddr: 0x48, symBinAddr: 0xC892C, symSize: 0x18 }
  - { offset: 0x660B44, size: 0x8, addend: 0x0, symName: _llama_sampler_apply, symObjAddr: 0x60, symBinAddr: 0xC8944, symSize: 0x48 }
  - { offset: 0x660B79, size: 0x8, addend: 0x0, symName: _llama_sampler_reset, symObjAddr: 0xA8, symBinAddr: 0xC898C, symSize: 0x18 }
  - { offset: 0x660BA6, size: 0x8, addend: 0x0, symName: _llama_sampler_reset, symObjAddr: 0xA8, symBinAddr: 0xC898C, symSize: 0x18 }
  - { offset: 0x660BF5, size: 0x8, addend: 0x0, symName: _llama_sampler_clone, symObjAddr: 0xC0, symBinAddr: 0xC89A4, symSize: 0x60 }
  - { offset: 0x660C45, size: 0x8, addend: 0x0, symName: _llama_sampler_free, symObjAddr: 0x120, symBinAddr: 0xC8A04, symSize: 0x38 }
  - { offset: 0x660C58, size: 0x8, addend: 0x0, symName: _llama_sampler_free, symObjAddr: 0x120, symBinAddr: 0xC8A04, symSize: 0x38 }
  - { offset: 0x660CBC, size: 0x8, addend: 0x0, symName: _llama_sampler_chain_init, symObjAddr: 0x158, symBinAddr: 0xC8A3C, symSize: 0x58 }
  - { offset: 0x660F59, size: 0x8, addend: 0x0, symName: _llama_sampler_sample, symObjAddr: 0x1B0, symBinAddr: 0xC8A94, symSize: 0x63C }
  - { offset: 0x66183C, size: 0x8, addend: 0x0, symName: __ZNSt3__16vectorI16llama_token_dataNS_9allocatorIS1_EEE8__appendEm, symObjAddr: 0x1C0CC, symBinAddr: 0xD8E28, symSize: 0x180 }
  - { offset: 0x661BFB, size: 0x8, addend: 0x0, symName: __ZNSt3__16vectorIN19llama_sampler_chain4infoENS_9allocatorIS2_EEE20__throw_length_errorB8ne200100Ev, symObjAddr: 0x1C24C, symBinAddr: 0xD8FA8, symSize: 0x14 }
  - { offset: 0x661F9F, size: 0x8, addend: 0x0, symName: _llama_sampler_chain_add, symObjAddr: 0x7EC, symBinAddr: 0xC90D0, symSize: 0xF4 }
  - { offset: 0x6623A6, size: 0x8, addend: 0x0, symName: _llama_sampler_chain_get, symObjAddr: 0x8E0, symBinAddr: 0xC91C4, symSize: 0x50 }
  - { offset: 0x6623B1, size: 0x8, addend: 0x0, symName: __ZNSt3__16vectorIN19llama_sampler_chain4infoENS_9allocatorIS2_EEE20__throw_length_errorB8ne200100Ev, symObjAddr: 0x1C24C, symBinAddr: 0xD8FA8, symSize: 0x14 }
  - { offset: 0x6623D4, size: 0x8, addend: 0x0, symName: _llama_sampler_chain_get, symObjAddr: 0x8E0, symBinAddr: 0xC91C4, symSize: 0x50 }
  - { offset: 0x662552, size: 0x8, addend: 0x0, symName: _llama_sampler_chain_remove, symObjAddr: 0x930, symBinAddr: 0xC9214, symSize: 0x88 }
  - { offset: 0x66277E, size: 0x8, addend: 0x0, symName: _llama_sampler_chain_n, symObjAddr: 0x9B8, symBinAddr: 0xC929C, symSize: 0x14 }
  - { offset: 0x662805, size: 0x8, addend: 0x0, symName: _llama_sampler_init_greedy, symObjAddr: 0x9CC, symBinAddr: 0xC92B0, symSize: 0x58 }
  - { offset: 0x662874, size: 0x8, addend: 0x0, symName: __ZN21llama_sampler_backendC2EPKc, symObjAddr: 0x3998, symBinAddr: 0xCC1F0, symSize: 0x138 }
  - { offset: 0x662EC4, size: 0x8, addend: 0x0, symName: _llama_sampler_init_dist, symObjAddr: 0xA24, symBinAddr: 0xC9308, symSize: 0xB4 }
  - { offset: 0x6631FA, size: 0x8, addend: 0x0, symName: __ZNSt3__113random_deviceC1B8ne200100Ev, symObjAddr: 0x3AD0, symBinAddr: 0xCC328, symSize: 0x98 }
  - { offset: 0x66355B, size: 0x8, addend: 0x0, symName: __ZN21llama_sampler_backendD1Ev, symObjAddr: 0xC38, symBinAddr: 0xC951C, symSize: 0x58 }
  - { offset: 0x66379F, size: 0x8, addend: 0x0, symName: _llama_sampler_init_top_k, symObjAddr: 0xC90, symBinAddr: 0xC9574, symSize: 0xA0 }
  - { offset: 0x663816, size: 0x8, addend: 0x0, symName: _llama_sampler_init_top_p, symObjAddr: 0xD30, symBinAddr: 0xC9614, symSize: 0xA4 }
  - { offset: 0x6638D5, size: 0x8, addend: 0x0, symName: _llama_sampler_init_min_p, symObjAddr: 0xDD4, symBinAddr: 0xC96B8, symSize: 0x9C }
  - { offset: 0x663955, size: 0x8, addend: 0x0, symName: _llama_sampler_init_typical, symObjAddr: 0xE70, symBinAddr: 0xC9754, symSize: 0x80 }
  - { offset: 0x6639A1, size: 0x8, addend: 0x0, symName: _llama_sampler_init_temp, symObjAddr: 0xEF0, symBinAddr: 0xC97D4, symSize: 0x98 }
  - { offset: 0x663A18, size: 0x8, addend: 0x0, symName: _llama_sampler_init_temp_ext, symObjAddr: 0xF88, symBinAddr: 0xC986C, symSize: 0xB4 }
  - { offset: 0x663AAA, size: 0x8, addend: 0x0, symName: _llama_sampler_init_xtc, symObjAddr: 0x103C, symBinAddr: 0xC9920, symSize: 0xE4 }
  - { offset: 0x663BAB, size: 0x8, addend: 0x0, symName: _llama_sampler_init_mirostat, symObjAddr: 0x1120, symBinAddr: 0xC9A04, symSize: 0xC8 }
  - { offset: 0x663CBD, size: 0x8, addend: 0x0, symName: _llama_sampler_init_mirostat_v2, symObjAddr: 0x11E8, symBinAddr: 0xC9ACC, symSize: 0xAC }
  - { offset: 0x663DBD, size: 0x8, addend: 0x0, symName: _llama_sampler_init_grammar, symObjAddr: 0x1294, symBinAddr: 0xC9B78, symSize: 0x34 }
  - { offset: 0x6642B5, size: 0x8, addend: 0x0, symName: _llama_sampler_init_grammar_lazy, symObjAddr: 0x18C8, symBinAddr: 0xCA1AC, symSize: 0x34 }
  - { offset: 0x664385, size: 0x8, addend: 0x0, symName: _llama_sampler_init_grammar_lazy_patterns, symObjAddr: 0x18FC, symBinAddr: 0xCA1E0, symSize: 0x34 }
  - { offset: 0x6646FC, size: 0x8, addend: 0x0, symName: _llama_sampler_init_penalties, symObjAddr: 0x1930, symBinAddr: 0xCA214, symSize: 0x11C }
  - { offset: 0x664A16, size: 0x8, addend: 0x0, symName: _llama_sampler_init_top_n_sigma, symObjAddr: 0x1A4C, symBinAddr: 0xCA330, symSize: 0x74 }
  - { offset: 0x665F83, size: 0x8, addend: 0x0, symName: _llama_sampler_init_dry, symObjAddr: 0x1AC0, symBinAddr: 0xCA3A4, symSize: 0xB6C }
  - { offset: 0x669169, size: 0x8, addend: 0x0, symName: __ZNSt3__112__hash_tableINS_17__hash_value_typeIiNS_6vectorIiNS_9allocatorIiEEEEEENS_22__unordered_map_hasherIiS6_NS_4hashIiEENS_8equal_toIiEELb1EEENS_21__unordered_map_equalIiS6_SB_S9_Lb1EEENS3_IS6_EEE27__node_insert_multi_prepareEmRS6_, symObjAddr: 0x18970, symBinAddr: 0xD57EC, symSize: 0x27C }
  - { offset: 0x669428, size: 0x8, addend: 0x0, symName: __ZNSt3__112__hash_tableINS_17__hash_value_typeIiNS_6vectorIiNS_9allocatorIiEEEEEENS_22__unordered_map_hasherIiS6_NS_4hashIiEENS_8equal_toIiEELb1EEENS_21__unordered_map_equalIiS6_SB_S9_Lb1EEENS3_IS6_EEE19__node_insert_multiEPNS_11__hash_nodeIS6_PvEE, symObjAddr: 0x187E4, symBinAddr: 0xD5660, symSize: 0x12C }
  - { offset: 0x6697DD, size: 0x8, addend: 0x0, symName: __ZNSt3__118unordered_multimapIiNS_6vectorIiNS_9allocatorIiEEEENS_4hashIiEENS_8equal_toIiEENS2_INS_4pairIKiS4_EEEEED1B8ne200100Ev, symObjAddr: 0x2674, symBinAddr: 0xCAF10, symSize: 0x68 }
  - { offset: 0x669BF8, size: 0x8, addend: 0x0, symName: __ZNSt3__110unique_ptrINS_11__hash_nodeINS_17__hash_value_typeIiNS_6vectorIiNS_9allocatorIiEEEEEEPvEENS_22__hash_node_destructorINS4_IS9_EEEEED1B8ne200100Ev, symObjAddr: 0x18910, symBinAddr: 0xD578C, symSize: 0x60 }
  - { offset: 0x66A2DD, size: 0x8, addend: 0x0, symName: __Z30llama_sampler_init_dry_testingiffiiRKNSt3__16vectorINS0_IiNS_9allocatorIiEEEENS1_IS3_EEEE, symObjAddr: 0x26DC, symBinAddr: 0xCAF78, symSize: 0x2B4 }
  - { offset: 0x66ADBD, size: 0x8, addend: 0x0, symName: _llama_sampler_init_adaptive_p, symObjAddr: 0x2990, symBinAddr: 0xCB22C, symSize: 0x108 }
  - { offset: 0x66B176, size: 0x8, addend: 0x0, symName: _llama_sampler_init_logit_bias, symObjAddr: 0x2A98, symBinAddr: 0xCB334, symSize: 0xF0 }
  - { offset: 0x66B6D1, size: 0x8, addend: 0x0, symName: _llama_sampler_init_infill, symObjAddr: 0x2B88, symBinAddr: 0xCB424, symSize: 0x138 }
  - { offset: 0x66BBC4, size: 0x8, addend: 0x0, symName: _llama_sampler_get_seed, symObjAddr: 0x2CC0, symBinAddr: 0xCB55C, symSize: 0xD8 }
  - { offset: 0x66BD31, size: 0x8, addend: 0x0, symName: _llama_perf_sampler, symObjAddr: 0x2D98, symBinAddr: 0xCB634, symSize: 0x7C }
  - { offset: 0x66BDC1, size: 0x8, addend: 0x0, symName: _llama_perf_sampler_print, symObjAddr: 0x2E14, symBinAddr: 0xCB6B0, symSize: 0xA4 }
  - { offset: 0x66BE2C, size: 0x8, addend: 0x0, symName: _llama_perf_sampler_print, symObjAddr: 0x2E14, symBinAddr: 0xCB6B0, symSize: 0xA4 }
  - { offset: 0x66BF00, size: 0x8, addend: 0x0, symName: _llama_perf_sampler_reset, symObjAddr: 0x2EB8, symBinAddr: 0xCB754, symSize: 0x58 }
  - { offset: 0x66BF13, size: 0x8, addend: 0x0, symName: _llama_perf_sampler_reset, symObjAddr: 0x2EB8, symBinAddr: 0xCB754, symSize: 0x58 }
  - { offset: 0x66BF4D, size: 0x8, addend: 0x0, symName: __ZL24llama_sampler_chain_namePK13llama_sampler, symObjAddr: 0x2F10, symBinAddr: 0xCB7AC, symSize: 0xC }
  - { offset: 0x66BF60, size: 0x8, addend: 0x0, symName: __ZL24llama_sampler_chain_namePK13llama_sampler, symObjAddr: 0x2F10, symBinAddr: 0xCB7AC, symSize: 0xC }
  - { offset: 0x66BFBB, size: 0x8, addend: 0x0, symName: __ZL26llama_sampler_chain_acceptP13llama_sampleri, symObjAddr: 0x2F1C, symBinAddr: 0xCB7B8, symSize: 0xA0 }
  - { offset: 0x66C0DB, size: 0x8, addend: 0x0, symName: __ZL25llama_sampler_chain_applyP13llama_samplerP22llama_token_data_array, symObjAddr: 0x2FBC, symBinAddr: 0xCB858, symSize: 0xB0 }
  - { offset: 0x66C217, size: 0x8, addend: 0x0, symName: __ZL25llama_sampler_chain_resetP13llama_sampler, symObjAddr: 0x306C, symBinAddr: 0xCB908, symSize: 0x4C }
  - { offset: 0x66C36B, size: 0x8, addend: 0x0, symName: __ZL25llama_sampler_chain_clonePK13llama_sampler, symObjAddr: 0x30B8, symBinAddr: 0xCB954, symSize: 0xE0 }
  - { offset: 0x66C514, size: 0x8, addend: 0x0, symName: __ZL24llama_sampler_chain_freeP13llama_sampler, symObjAddr: 0x3198, symBinAddr: 0xCBA34, symSize: 0xA0 }
  - { offset: 0x66C5EE, size: 0x8, addend: 0x0, symName: __ZL24llama_sampler_chain_freeP13llama_sampler, symObjAddr: 0x3198, symBinAddr: 0xCBA34, symSize: 0xA0 }
  - { offset: 0x66C95A, size: 0x8, addend: 0x0, symName: __ZL32llama_sampler_chain_backend_initP13llama_samplerP24ggml_backend_buffer_type, symObjAddr: 0x3238, symBinAddr: 0xCBAD4, symSize: 0xB4 }
  - { offset: 0x66CA53, size: 0x8, addend: 0x0, symName: __ZL34llama_sampler_chain_backend_acceptP13llama_samplerP12ggml_contextP11ggml_cgraphP11ggml_tensor, symObjAddr: 0x32EC, symBinAddr: 0xCBB88, symSize: 0x84 }
  - { offset: 0x66CA66, size: 0x8, addend: 0x0, symName: __ZL34llama_sampler_chain_backend_acceptP13llama_samplerP12ggml_contextP11ggml_cgraphP11ggml_tensor, symObjAddr: 0x32EC, symBinAddr: 0xCBB88, symSize: 0x84 }
  - { offset: 0x66CB7C, size: 0x8, addend: 0x0, symName: __ZL33llama_sampler_chain_backend_applyP13llama_samplerP12ggml_contextP11ggml_cgraphP18llama_sampler_data, symObjAddr: 0x3370, symBinAddr: 0xCBC0C, symSize: 0xB8 }
  - { offset: 0x66CC94, size: 0x8, addend: 0x0, symName: __ZL37llama_sampler_chain_backend_set_inputP13llama_sampler, symObjAddr: 0x3428, symBinAddr: 0xCBCC4, symSize: 0x54 }
  - { offset: 0x66CCA7, size: 0x8, addend: 0x0, symName: __ZL37llama_sampler_chain_backend_set_inputP13llama_sampler, symObjAddr: 0x3428, symBinAddr: 0xCBCC4, symSize: 0x54 }
  - { offset: 0x66CD90, size: 0x8, addend: 0x0, symName: __ZL25llama_sampler_greedy_namePK13llama_sampler, symObjAddr: 0x348C, symBinAddr: 0xCBD18, symSize: 0xC0 }
  - { offset: 0x66CFF5, size: 0x8, addend: 0x0, symName: __ZL26llama_sampler_greedy_applyP13llama_samplerP22llama_token_data_array, symObjAddr: 0x354C, symBinAddr: 0xCBDD8, symSize: 0x5C }
  - { offset: 0x66D047, size: 0x8, addend: 0x0, symName: __ZL26llama_sampler_greedy_resetP13llama_sampler, symObjAddr: 0x35A8, symBinAddr: 0xCBE34, symSize: 0x4 }
  - { offset: 0x66D089, size: 0x8, addend: 0x0, symName: __ZL26llama_sampler_greedy_clonePK13llama_sampler, symObjAddr: 0x35AC, symBinAddr: 0xCBE38, symSize: 0x58 }
  - { offset: 0x66D179, size: 0x8, addend: 0x0, symName: __ZL25llama_sampler_greedy_freeP13llama_sampler, symObjAddr: 0x3604, symBinAddr: 0xCBE90, symSize: 0x68 }
  - { offset: 0x66D3EC, size: 0x8, addend: 0x0, symName: __ZL33llama_sampler_greedy_backend_initP13llama_samplerP24ggml_backend_buffer_type, symObjAddr: 0x366C, symBinAddr: 0xCBEF8, symSize: 0x60 }
  - { offset: 0x66D47D, size: 0x8, addend: 0x0, symName: __ZL34llama_sampler_greedy_backend_applyP13llama_samplerP12ggml_contextP11ggml_cgraphP18llama_sampler_data, symObjAddr: 0x36CC, symBinAddr: 0xCBF58, symSize: 0x3C }
  - { offset: 0x66D490, size: 0x8, addend: 0x0, symName: __ZL29llama_sampler_backend_supportP13llama_samplerP24ggml_backend_buffer_type, symObjAddr: 0x3708, symBinAddr: 0xCBF94, symSize: 0x25C }
  - { offset: 0x66D933, size: 0x8, addend: 0x0, symName: __ZL34llama_sampler_greedy_backend_applyP13llama_samplerP12ggml_contextP11ggml_cgraphP18llama_sampler_data, symObjAddr: 0x36CC, symBinAddr: 0xCBF58, symSize: 0x3C }
  - { offset: 0x66DC9F, size: 0x8, addend: 0x0, symName: __ZL23llama_sampler_dist_namePK13llama_sampler, symObjAddr: 0x3B68, symBinAddr: 0xCC3C0, symSize: 0xC0 }
  - { offset: 0x66E029, size: 0x8, addend: 0x0, symName: __ZL24llama_sampler_dist_applyP13llama_samplerP22llama_token_data_array, symObjAddr: 0x3C28, symBinAddr: 0xCC480, symSize: 0x324 }
  - { offset: 0x66E296, size: 0x8, addend: 0x0, symName: __ZL24llama_sampler_dist_resetP13llama_sampler, symObjAddr: 0x3F4C, symBinAddr: 0xCC7A4, symSize: 0x68 }
  - { offset: 0x66E346, size: 0x8, addend: 0x0, symName: __ZL24llama_sampler_dist_clonePK13llama_sampler, symObjAddr: 0x3FB4, symBinAddr: 0xCC80C, symSize: 0xE0 }
  - { offset: 0x66E4F3, size: 0x8, addend: 0x0, symName: __ZL23llama_sampler_dist_freeP13llama_sampler, symObjAddr: 0x4094, symBinAddr: 0xCC8EC, symSize: 0x68 }
  - { offset: 0x66E744, size: 0x8, addend: 0x0, symName: __ZL31llama_sampler_dist_backend_initP13llama_samplerP24ggml_backend_buffer_type, symObjAddr: 0x40FC, symBinAddr: 0xCC954, symSize: 0x60 }
  - { offset: 0x66E7D5, size: 0x8, addend: 0x0, symName: __ZL32llama_sampler_dist_backend_applyP13llama_samplerP12ggml_contextP11ggml_cgraphP18llama_sampler_data, symObjAddr: 0x415C, symBinAddr: 0xCC9B4, symSize: 0x16C }
  - { offset: 0x66E7E8, size: 0x8, addend: 0x0, symName: __ZL32llama_sampler_dist_backend_applyP13llama_samplerP12ggml_contextP11ggml_cgraphP18llama_sampler_data, symObjAddr: 0x415C, symBinAddr: 0xCC9B4, symSize: 0x16C }
  - { offset: 0x66EBA0, size: 0x8, addend: 0x0, symName: __ZL36llama_sampler_dist_backend_set_inputP13llama_sampler, symObjAddr: 0x42C8, symBinAddr: 0xCCB20, symSize: 0x18C }
  - { offset: 0x66ED1F, size: 0x8, addend: 0x0, symName: __ZL24llama_sampler_empty_namePK13llama_sampler, symObjAddr: 0x4454, symBinAddr: 0xCCCAC, symSize: 0xC }
  - { offset: 0x66ED4E, size: 0x8, addend: 0x0, symName: __ZL24llama_sampler_empty_namePK13llama_sampler, symObjAddr: 0x4454, symBinAddr: 0xCCCAC, symSize: 0xC }
  - { offset: 0x66ED8E, size: 0x8, addend: 0x0, symName: __ZL26llama_sampler_empty_acceptP13llama_sampleri, symObjAddr: 0x4460, symBinAddr: 0xCCCB8, symSize: 0x4 }
  - { offset: 0x66EDC2, size: 0x8, addend: 0x0, symName: __ZL25llama_sampler_empty_applyP13llama_samplerP22llama_token_data_array, symObjAddr: 0x4464, symBinAddr: 0xCCCBC, symSize: 0x4 }
  - { offset: 0x66EDF6, size: 0x8, addend: 0x0, symName: __ZL25llama_sampler_empty_resetP13llama_sampler, symObjAddr: 0x4468, symBinAddr: 0xCCCC0, symSize: 0x4 }
  - { offset: 0x66EE1E, size: 0x8, addend: 0x0, symName: __ZL25llama_sampler_empty_clonePK13llama_sampler, symObjAddr: 0x446C, symBinAddr: 0xCCCC4, symSize: 0x44 }
  - { offset: 0x66EEA1, size: 0x8, addend: 0x0, symName: __ZL24llama_sampler_empty_freeP13llama_sampler, symObjAddr: 0x44B0, symBinAddr: 0xCCD08, symSize: 0x10 }
  - { offset: 0x66EECD, size: 0x8, addend: 0x0, symName: __ZL32llama_sampler_empty_backend_initP13llama_samplerP24ggml_backend_buffer_type, symObjAddr: 0x44C0, symBinAddr: 0xCCD18, symSize: 0x8 }
  - { offset: 0x66EF05, size: 0x8, addend: 0x0, symName: __ZL34llama_sampler_empty_backend_acceptP13llama_samplerP12ggml_contextP11ggml_cgraphP11ggml_tensor, symObjAddr: 0x44C8, symBinAddr: 0xCCD20, symSize: 0x4 }
  - { offset: 0x66EF51, size: 0x8, addend: 0x0, symName: __ZL33llama_sampler_empty_backend_applyP13llama_samplerP12ggml_contextP11ggml_cgraphP18llama_sampler_data, symObjAddr: 0x44CC, symBinAddr: 0xCCD24, symSize: 0x4 }
  - { offset: 0x66EF9D, size: 0x8, addend: 0x0, symName: __ZL37llama_sampler_empty_backend_set_inputP13llama_sampler, symObjAddr: 0x44D0, symBinAddr: 0xCCD28, symSize: 0x4 }
  - { offset: 0x66EFC5, size: 0x8, addend: 0x0, symName: __ZL24llama_sampler_top_k_namePK13llama_sampler, symObjAddr: 0x44D4, symBinAddr: 0xCCD2C, symSize: 0xC0 }
  - { offset: 0x66F251, size: 0x8, addend: 0x0, symName: __ZL25llama_sampler_top_k_applyP13llama_samplerP22llama_token_data_array, symObjAddr: 0x4594, symBinAddr: 0xCCDEC, symSize: 0x58 }
  - { offset: 0x66F2F7, size: 0x8, addend: 0x0, symName: __ZL25llama_sampler_top_k_clonePK13llama_sampler, symObjAddr: 0x45EC, symBinAddr: 0xCCE44, symSize: 0xA4 }
  - { offset: 0x66F3E1, size: 0x8, addend: 0x0, symName: __ZL24llama_sampler_top_k_freeP13llama_sampler, symObjAddr: 0x4690, symBinAddr: 0xCCEE8, symSize: 0x68 }
  - { offset: 0x66F632, size: 0x8, addend: 0x0, symName: __ZL32llama_sampler_top_k_backend_initP13llama_samplerP24ggml_backend_buffer_type, symObjAddr: 0x46F8, symBinAddr: 0xCCF50, symSize: 0x60 }
  - { offset: 0x66F6C3, size: 0x8, addend: 0x0, symName: __ZL33llama_sampler_top_k_backend_applyP13llama_samplerP12ggml_contextP11ggml_cgraphP18llama_sampler_data, symObjAddr: 0x4758, symBinAddr: 0xCCFB0, symSize: 0xE8 }
  - { offset: 0x66F6D6, size: 0x8, addend: 0x0, symName: __ZL33llama_sampler_top_k_backend_applyP13llama_samplerP12ggml_contextP11ggml_cgraphP18llama_sampler_data, symObjAddr: 0x4758, symBinAddr: 0xCCFB0, symSize: 0xE8 }
  - { offset: 0x66FF5F, size: 0x8, addend: 0x0, symName: __ZNSt3__16vectorIP16llama_token_dataNS_9allocatorIS2_EEE20__throw_length_errorB8ne200100Ev, symObjAddr: 0x5364, symBinAddr: 0xCDB0C, symSize: 0x14 }
  - { offset: 0x66FF77, size: 0x8, addend: 0x0, symName: '__ZNSt3__111__introsortINS_17_ClassicAlgPolicyERZL35llama_token_data_array_partial_sortRK22llama_token_data_arrayiRNS_6vectorI16llama_token_dataNS_9allocatorIS6_EEEEE3$_0PS6_Lb0EEEvT1_SE_T0_NS_15iterator_traitsISE_E15difference_typeEb', symObjAddr: 0x5378, symBinAddr: 0xCDB20, symSize: 0xDA4 }
  - { offset: 0x67003A, size: 0x8, addend: 0x0, symName: __ZL24llama_sampler_top_p_namePK13llama_sampler, symObjAddr: 0x6C1C, symBinAddr: 0xCF3C4, symSize: 0xC0 }
  - { offset: 0x670316, size: 0x8, addend: 0x0, symName: __ZL25llama_sampler_top_p_applyP13llama_samplerP22llama_token_data_array, symObjAddr: 0x6CDC, symBinAddr: 0xCF484, symSize: 0x348 }
  - { offset: 0x670678, size: 0x8, addend: 0x0, symName: __ZL25llama_sampler_top_p_clonePK13llama_sampler, symObjAddr: 0x7024, symBinAddr: 0xCF7CC, symSize: 0xA8 }
  - { offset: 0x6706BE, size: 0x8, addend: 0x0, symName: __ZL25llama_sampler_top_p_clonePK13llama_sampler, symObjAddr: 0x7024, symBinAddr: 0xCF7CC, symSize: 0xA8 }
  - { offset: 0x6707F0, size: 0x8, addend: 0x0, symName: __ZL24llama_sampler_top_p_freeP13llama_sampler, symObjAddr: 0x70CC, symBinAddr: 0xCF874, symSize: 0x78 }
  - { offset: 0x670B6D, size: 0x8, addend: 0x0, symName: __ZL32llama_sampler_top_p_backend_initP13llama_samplerP24ggml_backend_buffer_type, symObjAddr: 0x7144, symBinAddr: 0xCF8EC, symSize: 0x60 }
  - { offset: 0x670BFE, size: 0x8, addend: 0x0, symName: __ZL33llama_sampler_top_p_backend_applyP13llama_samplerP12ggml_contextP11ggml_cgraphP18llama_sampler_data, symObjAddr: 0x71A4, symBinAddr: 0xCF94C, symSize: 0x2A0 }
  - { offset: 0x670C11, size: 0x8, addend: 0x0, symName: __ZL33llama_sampler_top_p_backend_applyP13llama_samplerP12ggml_contextP11ggml_cgraphP18llama_sampler_data, symObjAddr: 0x71A4, symBinAddr: 0xCF94C, symSize: 0x2A0 }
  - { offset: 0x6710B5, size: 0x8, addend: 0x0, symName: __ZL24llama_sampler_min_p_namePK13llama_sampler, symObjAddr: 0x7444, symBinAddr: 0xCFBEC, symSize: 0xC0 }
  - { offset: 0x6711CC, size: 0x8, addend: 0x0, symName: __ZL24llama_sampler_min_p_namePK13llama_sampler, symObjAddr: 0x7444, symBinAddr: 0xCFBEC, symSize: 0xC0 }
  - { offset: 0x67172B, size: 0x8, addend: 0x0, symName: __ZL25llama_sampler_min_p_applyP13llama_samplerP22llama_token_data_array, symObjAddr: 0x7504, symBinAddr: 0xCFCAC, symSize: 0x2DC }
  - { offset: 0x671EB8, size: 0x8, addend: 0x0, symName: __ZNSt3__16vectorI16llama_token_dataNS_9allocatorIS1_EEE20__throw_length_errorB8ne200100Ev, symObjAddr: 0x7A6C, symBinAddr: 0xD0214, symSize: 0x14 }
